
ADXL345_I2C_example.elf:     file format elf32-littlearm

Sections:
Idx Name          Size      VMA       LMA       File off  Algn
  0 .text         00008dd4  00000000  00000000  00010000  2**3
                  CONTENTS, ALLOC, LOAD, READONLY, CODE
  1 .ARM.exidx    00000008  00008dd4  00008dd4  00018dd4  2**2
                  CONTENTS, ALLOC, LOAD, READONLY, DATA
  2 .relocate     000009b0  20000000  00008ddc  00020000  2**3
                  CONTENTS, ALLOC, LOAD, DATA
  3 .bss          000000e4  200009b0  0000978c  000209b0  2**2
                  ALLOC
  4 .stack        00002004  20000a94  00009870  000209b0  2**0
                  ALLOC
  5 .ARM.attributes 00000028  00000000  00000000  000209b0  2**0
                  CONTENTS, READONLY
  6 .comment      00000059  00000000  00000000  000209d8  2**0
                  CONTENTS, READONLY
  7 .debug_info   00024059  00000000  00000000  00020a31  2**0
                  CONTENTS, READONLY, DEBUGGING
  8 .debug_abbrev 00003229  00000000  00000000  00044a8a  2**0
                  CONTENTS, READONLY, DEBUGGING
  9 .debug_loc    0000adb3  00000000  00000000  00047cb3  2**0
                  CONTENTS, READONLY, DEBUGGING
 10 .debug_aranges 00000a70  00000000  00000000  00052a66  2**0
                  CONTENTS, READONLY, DEBUGGING
 11 .debug_ranges 00000eb8  00000000  00000000  000534d6  2**0
                  CONTENTS, READONLY, DEBUGGING
 12 .debug_macro  0001bd8e  00000000  00000000  0005438e  2**0
                  CONTENTS, READONLY, DEBUGGING
 13 .debug_line   00010c19  00000000  00000000  0007011c  2**0
                  CONTENTS, READONLY, DEBUGGING
 14 .debug_str    00089c8f  00000000  00000000  00080d35  2**0
                  CONTENTS, READONLY, DEBUGGING
 15 .debug_frame  00002d28  00000000  00000000  0010a9c4  2**2
                  CONTENTS, READONLY, DEBUGGING

Disassembly of section .text:

00000000 <exception_table>:
       0:	98 2a 00 20 59 05 00 00 55 05 00 00 55 05 00 00     .*. Y...U...U...
	...
      2c:	55 05 00 00 00 00 00 00 00 00 00 00 55 05 00 00     U...........U...
      3c:	55 05 00 00 55 05 00 00 55 05 00 00 55 05 00 00     U...U...U...U...
      4c:	55 05 00 00 55 05 00 00 55 05 00 00 55 05 00 00     U...U...U...U...
      5c:	55 05 00 00 55 05 00 00 55 05 00 00 55 05 00 00     U...U...U...U...
      6c:	55 05 00 00 55 05 00 00 55 05 00 00 55 05 00 00     U...U...U...U...
      7c:	55 05 00 00 55 05 00 00 55 05 00 00 55 05 00 00     U...U...U...U...
      8c:	55 05 00 00 55 05 00 00 55 05 00 00 55 05 00 00     U...U...U...U...
      9c:	55 05 00 00 55 05 00 00 55 05 00 00 55 05 00 00     U...U...U...U...
      ac:	55 05 00 00 00 00 00 00                             U.......

000000b4 <__do_global_dtors_aux>:
      b4:	b510      	push	{r4, lr}
      b6:	4c06      	ldr	r4, [pc, #24]	; (d0 <__do_global_dtors_aux+0x1c>)
      b8:	7823      	ldrb	r3, [r4, #0]
      ba:	2b00      	cmp	r3, #0
      bc:	d107      	bne.n	ce <__do_global_dtors_aux+0x1a>
      be:	4b05      	ldr	r3, [pc, #20]	; (d4 <__do_global_dtors_aux+0x20>)
      c0:	2b00      	cmp	r3, #0
      c2:	d002      	beq.n	ca <__do_global_dtors_aux+0x16>
      c4:	4804      	ldr	r0, [pc, #16]	; (d8 <__do_global_dtors_aux+0x24>)
      c6:	e000      	b.n	ca <__do_global_dtors_aux+0x16>
      c8:	bf00      	nop
      ca:	2301      	movs	r3, #1
      cc:	7023      	strb	r3, [r4, #0]
      ce:	bd10      	pop	{r4, pc}
      d0:	200009b0 	.word	0x200009b0
      d4:	00000000 	.word	0x00000000
      d8:	00008ddc 	.word	0x00008ddc

000000dc <frame_dummy>:
      dc:	4b08      	ldr	r3, [pc, #32]	; (100 <frame_dummy+0x24>)
      de:	b510      	push	{r4, lr}
      e0:	2b00      	cmp	r3, #0
      e2:	d003      	beq.n	ec <frame_dummy+0x10>
      e4:	4907      	ldr	r1, [pc, #28]	; (104 <frame_dummy+0x28>)
      e6:	4808      	ldr	r0, [pc, #32]	; (108 <frame_dummy+0x2c>)
      e8:	e000      	b.n	ec <frame_dummy+0x10>
      ea:	bf00      	nop
      ec:	4807      	ldr	r0, [pc, #28]	; (10c <frame_dummy+0x30>)
      ee:	6803      	ldr	r3, [r0, #0]
      f0:	2b00      	cmp	r3, #0
      f2:	d100      	bne.n	f6 <frame_dummy+0x1a>
      f4:	bd10      	pop	{r4, pc}
      f6:	4b06      	ldr	r3, [pc, #24]	; (110 <frame_dummy+0x34>)
      f8:	2b00      	cmp	r3, #0
      fa:	d0fb      	beq.n	f4 <frame_dummy+0x18>
      fc:	4798      	blx	r3
      fe:	e7f9      	b.n	f4 <frame_dummy+0x18>
     100:	00000000 	.word	0x00000000
     104:	200009b4 	.word	0x200009b4
     108:	00008ddc 	.word	0x00008ddc
     10c:	00008ddc 	.word	0x00008ddc
     110:	00000000 	.word	0x00000000

00000114 <adxl34x_init>:
	#if ADXL_I2C_Mode == 1
	return i2c_driver_read16(ADXL34x_REG_DATAZ0);
	#endif
}
uint8_t adxl34x_init(struct Acc_adxl34x_t *acc)
{
     114:	b510      	push	{r4, lr}
	return adxl_error_non;
}
uint8_t adxl34x_get_DeviceID(struct Acc_adxl34x_t *acc)
{
	#if ADXL_I2C_Mode == 1
	return i2c_driver_read(ADXL34x_REG_DEVID);
     116:	2000      	movs	r0, #0
     118:	4b0f      	ldr	r3, [pc, #60]	; (158 <adxl34x_init+0x44>)
     11a:	4798      	blx	r3
	return 255	;
     11c:	23ff      	movs	r3, #255	; 0xff
	if(getID != 0xE5)
     11e:	28e5      	cmp	r0, #229	; 0xe5
     120:	d001      	beq.n	126 <adxl34x_init+0x12>
}
     122:	0018      	movs	r0, r3
     124:	bd10      	pop	{r4, pc}
	  i2c_driver_write(ADXL34x_REG_INT_ENABLE, 0);  // Disable interrupts to start
     126:	2100      	movs	r1, #0
     128:	38b7      	subs	r0, #183	; 0xb7
     12a:	4c0c      	ldr	r4, [pc, #48]	; (15c <adxl34x_init+0x48>)
     12c:	47a0      	blx	r4
	  i2c_driver_write(ADXL34x_REG_THRESH_TAP, 0x16);
     12e:	2116      	movs	r1, #22
     130:	201d      	movs	r0, #29
     132:	47a0      	blx	r4
	  i2c_driver_write(ADXL34x_REG_DUR, 50);        // Max tap duration, 625 µs/LSB
     134:	2132      	movs	r1, #50	; 0x32
     136:	2021      	movs	r0, #33	; 0x21
     138:	47a0      	blx	r4
	  i2c_driver_write(ADXL34x_REG_LATENT,0);
     13a:	2100      	movs	r1, #0
     13c:	2022      	movs	r0, #34	; 0x22
     13e:	47a0      	blx	r4
	  i2c_driver_write(ADXL34x_REG_WINDOW,0); // Waiting period,  1.25 ms/LSB, 0=no double tap
     140:	2100      	movs	r1, #0
     142:	2023      	movs	r0, #35	; 0x23
     144:	47a0      	blx	r4
	  i2c_driver_write(ADXL34x_REG_TAP_AXES, 0x7); // Enable the XYZ axis for tap
     146:	2107      	movs	r1, #7
     148:	202a      	movs	r0, #42	; 0x2a
     14a:	47a0      	blx	r4
	  i2c_driver_write(ADXL34x_REG_POWER_CTL, 0x08);
     14c:	2108      	movs	r1, #8
     14e:	202d      	movs	r0, #45	; 0x2d
     150:	47a0      	blx	r4
	return adxl_error_non;
     152:	2300      	movs	r3, #0
     154:	e7e5      	b.n	122 <adxl34x_init+0xe>
     156:	46c0      	nop			; (mov r8, r8)
     158:	000004e9 	.word	0x000004e9
     15c:	000004b5 	.word	0x000004b5

00000160 <adxl34x_set_Range>:
	#endif
}

uint8_t adxl34x_set_Range(struct Acc_adxl34x_t *acc,uint8_t range)
{
     160:	b570      	push	{r4, r5, r6, lr}
     162:	0005      	movs	r5, r0
     164:	000c      	movs	r4, r1
	switch (range)
     166:	2901      	cmp	r1, #1
     168:	d017      	beq.n	19a <adxl34x_set_Range+0x3a>
     16a:	2900      	cmp	r1, #0
     16c:	d012      	beq.n	194 <adxl34x_set_Range+0x34>
     16e:	2902      	cmp	r1, #2
     170:	d016      	beq.n	1a0 <adxl34x_set_Range+0x40>
     172:	2903      	cmp	r1, #3
     174:	d017      	beq.n	1a6 <adxl34x_set_Range+0x46>
		case ADXL343_RANGE_16_G :
		acc->g_factor= 16;
		break;
	}
	#if ADXL_I2C_Mode == 1
	  uint8_t format = i2c_driver_read(ADXL34x_REG_DATA_FORMAT);
     176:	2031      	movs	r0, #49	; 0x31
     178:	4b0c      	ldr	r3, [pc, #48]	; (1ac <adxl34x_set_Range+0x4c>)
     17a:	4798      	blx	r3

	  /* Update the data rate */
	  format &= ~0x0F;
     17c:	21f0      	movs	r1, #240	; 0xf0
     17e:	4001      	ands	r1, r0
	  format |= range;

	  /* Make sure that the FULL-RES bit is enabled for range scaling */
	  format |= 0x08;
     180:	2008      	movs	r0, #8
     182:	4320      	orrs	r0, r4
     184:	4301      	orrs	r1, r0

	  /* Write the register back to the IC */
	  i2c_driver_write(ADXL34x_REG_DATA_FORMAT, format);
     186:	b2c9      	uxtb	r1, r1
     188:	2031      	movs	r0, #49	; 0x31
     18a:	4b09      	ldr	r3, [pc, #36]	; (1b0 <adxl34x_set_Range+0x50>)
     18c:	4798      	blx	r3

	  /* Keep track of the current range (to avoid read back) */
	  acc->range = range;
     18e:	826c      	strh	r4, [r5, #18]
	return adxl_error_non;
	#endif
}
     190:	2000      	movs	r0, #0
     192:	bd70      	pop	{r4, r5, r6, pc}
		acc->g_factor= 2;
     194:	2302      	movs	r3, #2
     196:	7783      	strb	r3, [r0, #30]
		break;
     198:	e7ed      	b.n	176 <adxl34x_set_Range+0x16>
		acc->g_factor= 4;
     19a:	2304      	movs	r3, #4
     19c:	7783      	strb	r3, [r0, #30]
		break;
     19e:	e7ea      	b.n	176 <adxl34x_set_Range+0x16>
		acc->g_factor= 8;
     1a0:	2308      	movs	r3, #8
     1a2:	7783      	strb	r3, [r0, #30]
		break;
     1a4:	e7e7      	b.n	176 <adxl34x_set_Range+0x16>
		acc->g_factor= 16;
     1a6:	2310      	movs	r3, #16
     1a8:	7783      	strb	r3, [r0, #30]
		break;
     1aa:	e7e4      	b.n	176 <adxl34x_set_Range+0x16>
     1ac:	000004e9 	.word	0x000004e9
     1b0:	000004b5 	.word	0x000004b5

000001b4 <adxl34x_get_Range>:

uint8_t adxl34x_get_Range(struct Acc_adxl34x_t *acc)
{
     1b4:	b510      	push	{r4, lr}
	#if ADXL_I2C_Mode == 1
	return i2c_driver_read(ADXL34x_REG_DATA_FORMAT) & 0x03;
     1b6:	2031      	movs	r0, #49	; 0x31
     1b8:	4b02      	ldr	r3, [pc, #8]	; (1c4 <adxl34x_get_Range+0x10>)
     1ba:	4798      	blx	r3
     1bc:	2303      	movs	r3, #3
     1be:	4018      	ands	r0, r3
	#endif
}
     1c0:	bd10      	pop	{r4, pc}
     1c2:	46c0      	nop			; (mov r8, r8)
     1c4:	000004e9 	.word	0x000004e9

000001c8 <adxl34x_set_DataRate>:

uint8_t adxl34x_set_DataRate(struct Acc_adxl34x_t *acc,uint8_t dataRate){
     1c8:	b510      	push	{r4, lr}
  /* Note: The LOW_POWER bits are currently ignored and we always keep
     the device in 'normal' mode */
  acc->rate=dataRate;
     1ca:	7581      	strb	r1, [r0, #22]
  #if ADXL_I2C_Mode == 1
  i2c_driver_write(ADXL34x_REG_BW_RATE, dataRate);
     1cc:	202c      	movs	r0, #44	; 0x2c
     1ce:	4b02      	ldr	r3, [pc, #8]	; (1d8 <adxl34x_set_DataRate+0x10>)
     1d0:	4798      	blx	r3
  return adxl_error_non;
  #endif
}
     1d2:	2000      	movs	r0, #0
     1d4:	bd10      	pop	{r4, pc}
     1d6:	46c0      	nop			; (mov r8, r8)
     1d8:	000004b5 	.word	0x000004b5

000001dc <adxl34x_get_DataRate>:

uint8_t adxl34x_get_DataRate(struct Acc_adxl34x_t *acc)
{
     1dc:	b510      	push	{r4, lr}
	#if ADXL_I2C_Mode == 1
	 return i2c_driver_read(ADXL34x_REG_BW_RATE) & 0x0F;
     1de:	202c      	movs	r0, #44	; 0x2c
     1e0:	4b02      	ldr	r3, [pc, #8]	; (1ec <adxl34x_get_DataRate+0x10>)
     1e2:	4798      	blx	r3
     1e4:	230f      	movs	r3, #15
     1e6:	4018      	ands	r0, r3
    #endif
}
     1e8:	bd10      	pop	{r4, pc}
     1ea:	46c0      	nop			; (mov r8, r8)
     1ec:	000004e9 	.word	0x000004e9

000001f0 <adxl34x_refresh_xyz>:

void adxl34x_refresh_xyz(struct Acc_adxl34x_t *acc)
{
     1f0:	b5f0      	push	{r4, r5, r6, r7, lr}
     1f2:	b085      	sub	sp, #20
     1f4:	0005      	movs	r5, r0
	return i2c_driver_read16(ADXL34x_REG_DATAX0);
     1f6:	2032      	movs	r0, #50	; 0x32
     1f8:	4c1c      	ldr	r4, [pc, #112]	; (26c <adxl34x_refresh_xyz+0x7c>)
     1fa:	47a0      	blx	r4
		acc->raw_x=get_x_axis();
     1fc:	81a8      	strh	r0, [r5, #12]
	return i2c_driver_read16(ADXL34x_REG_DATAY0);
     1fe:	2034      	movs	r0, #52	; 0x34
     200:	47a0      	blx	r4
		acc->raw_y=get_y_axis();
     202:	81e8      	strh	r0, [r5, #14]
	return i2c_driver_read16(ADXL34x_REG_DATAZ0);
     204:	2036      	movs	r0, #54	; 0x36
     206:	47a0      	blx	r4
		acc->raw_z=get_z_axis();
     208:	9002      	str	r0, [sp, #8]
     20a:	8228      	strh	r0, [r5, #16]
		
		acc->x_axis= acc->raw_x * ADXL34x_MG2G_MULTIPLIER * acc->g_factor;
     20c:	201e      	movs	r0, #30
     20e:	5628      	ldrsb	r0, [r5, r0]
     210:	4f17      	ldr	r7, [pc, #92]	; (270 <adxl34x_refresh_xyz+0x80>)
     212:	47b8      	blx	r7
     214:	9000      	str	r0, [sp, #0]
     216:	9101      	str	r1, [sp, #4]
     218:	230c      	movs	r3, #12
     21a:	5ee8      	ldrsh	r0, [r5, r3]
     21c:	47b8      	blx	r7
     21e:	4e15      	ldr	r6, [pc, #84]	; (274 <adxl34x_refresh_xyz+0x84>)
     220:	9a00      	ldr	r2, [sp, #0]
     222:	9b01      	ldr	r3, [sp, #4]
     224:	47b0      	blx	r6
     226:	4a14      	ldr	r2, [pc, #80]	; (278 <adxl34x_refresh_xyz+0x88>)
     228:	4b14      	ldr	r3, [pc, #80]	; (27c <adxl34x_refresh_xyz+0x8c>)
     22a:	47b0      	blx	r6
     22c:	4c14      	ldr	r4, [pc, #80]	; (280 <adxl34x_refresh_xyz+0x90>)
     22e:	47a0      	blx	r4
     230:	6028      	str	r0, [r5, #0]
		acc->y_axis= acc->raw_y * ADXL34x_MG2G_MULTIPLIER * acc->g_factor;
     232:	230e      	movs	r3, #14
     234:	5ee8      	ldrsh	r0, [r5, r3]
     236:	47b8      	blx	r7
     238:	9a00      	ldr	r2, [sp, #0]
     23a:	9b01      	ldr	r3, [sp, #4]
     23c:	47b0      	blx	r6
     23e:	4a0e      	ldr	r2, [pc, #56]	; (278 <adxl34x_refresh_xyz+0x88>)
     240:	4b0e      	ldr	r3, [pc, #56]	; (27c <adxl34x_refresh_xyz+0x8c>)
     242:	47b0      	blx	r6
     244:	47a0      	blx	r4
     246:	6068      	str	r0, [r5, #4]
		acc->z_axis= acc->raw_z * ADXL34x_MG2G_MULTIPLIER * acc->g_factor;
     248:	9802      	ldr	r0, [sp, #8]
     24a:	47b8      	blx	r7
     24c:	9002      	str	r0, [sp, #8]
     24e:	9103      	str	r1, [sp, #12]
     250:	4a09      	ldr	r2, [pc, #36]	; (278 <adxl34x_refresh_xyz+0x88>)
     252:	4b0a      	ldr	r3, [pc, #40]	; (27c <adxl34x_refresh_xyz+0x8c>)
     254:	9800      	ldr	r0, [sp, #0]
     256:	9901      	ldr	r1, [sp, #4]
     258:	47b0      	blx	r6
     25a:	0002      	movs	r2, r0
     25c:	000b      	movs	r3, r1
     25e:	9802      	ldr	r0, [sp, #8]
     260:	9903      	ldr	r1, [sp, #12]
     262:	47b0      	blx	r6
     264:	47a0      	blx	r4
     266:	60a8      	str	r0, [r5, #8]
		//return i2c_driver_read(ADXL34x_REG_BW_RATE) & 0x0F;
}
     268:	b005      	add	sp, #20
     26a:	bdf0      	pop	{r4, r5, r6, r7, pc}
     26c:	00000509 	.word	0x00000509
     270:	00002d2d 	.word	0x00002d2d
     274:	00002199 	.word	0x00002199
     278:	d2f1a9fc 	.word	0xd2f1a9fc
     27c:	3f70624d 	.word	0x3f70624d
     280:	00002ec5 	.word	0x00002ec5

00000284 <adxl34x_get_axisOffset>:

void adxl34x_get_axisOffset(struct Acc_adxl34x_t *acc)
{
     284:	b570      	push	{r4, r5, r6, lr}
     286:	0004      	movs	r4, r0
	 #if ADXL_I2C_Mode == 1
	acc->offset_x_axis = i2c_driver_read(ADXL34x_REG_OFSX);
     288:	201e      	movs	r0, #30
     28a:	4d05      	ldr	r5, [pc, #20]	; (2a0 <adxl34x_get_axisOffset+0x1c>)
     28c:	47a8      	blx	r5
     28e:	8320      	strh	r0, [r4, #24]
	acc->offset_y_axis = i2c_driver_read(ADXL34x_REG_OFSY);
     290:	201f      	movs	r0, #31
     292:	47a8      	blx	r5
     294:	8360      	strh	r0, [r4, #26]
	acc->offset_z_axis = i2c_driver_read(ADXL34x_REG_OFSZ);
     296:	2020      	movs	r0, #32
     298:	47a8      	blx	r5
     29a:	83a0      	strh	r0, [r4, #28]
	 #endif
}
     29c:	bd70      	pop	{r4, r5, r6, pc}
     29e:	46c0      	nop			; (mov r8, r8)
     2a0:	000004e9 	.word	0x000004e9

000002a4 <adxl34x_set_axisOffset>:
void adxl34x_set_axisOffset(struct Acc_adxl34x_t *acc,int8_t x_offset,int8_t y_offset,int8_t z_offset)
{
     2a4:	b570      	push	{r4, r5, r6, lr}
     2a6:	0016      	movs	r6, r2
     2a8:	001d      	movs	r5, r3
	 #if ADXL_I2C_Mode == 1
	 i2c_driver_write(ADXL34x_REG_OFSX, x_offset);
     2aa:	b2c9      	uxtb	r1, r1
     2ac:	201e      	movs	r0, #30
     2ae:	4c04      	ldr	r4, [pc, #16]	; (2c0 <adxl34x_set_axisOffset+0x1c>)
     2b0:	47a0      	blx	r4
	 i2c_driver_write(ADXL34x_REG_OFSY, y_offset);
     2b2:	b2f1      	uxtb	r1, r6
     2b4:	201f      	movs	r0, #31
     2b6:	47a0      	blx	r4
	 i2c_driver_write(ADXL34x_REG_OFSZ, z_offset);
     2b8:	b2e9      	uxtb	r1, r5
     2ba:	2020      	movs	r0, #32
     2bc:	47a0      	blx	r4
	// return adxl_error_non;
	 #endif
}
     2be:	bd70      	pop	{r4, r5, r6, pc}
     2c0:	000004b5 	.word	0x000004b5

000002c4 <adxl34x_set_zeroOffset>:

void adxl34x_set_zeroOffset(struct Acc_adxl34x_t *acc)
{
     2c4:	b5f0      	push	{r4, r5, r6, r7, lr}
     2c6:	46de      	mov	lr, fp
     2c8:	4657      	mov	r7, sl
     2ca:	464e      	mov	r6, r9
     2cc:	4645      	mov	r5, r8
     2ce:	b5e0      	push	{r5, r6, r7, lr}
     2d0:	b083      	sub	sp, #12
     2d2:	9001      	str	r0, [sp, #4]
	int16_t X0g=0;
	int16_t Y0g=0;
	int16_t Z0g=0;
	uint16_t time_delay=0;
	uint8_t  num_of_sample=10;/*default value*/
	acc->offset_x_axis=0;
     2d4:	2300      	movs	r3, #0
     2d6:	8303      	strh	r3, [r0, #24]
	acc->offset_y_axis=0;
     2d8:	8343      	strh	r3, [r0, #26]
	acc->offset_z_axis=0;
     2da:	8383      	strh	r3, [r0, #28]
	switch (acc->rate)
     2dc:	7d83      	ldrb	r3, [r0, #22]
     2de:	2b0a      	cmp	r3, #10
     2e0:	d82c      	bhi.n	33c <adxl34x_set_zeroOffset+0x78>
     2e2:	009b      	lsls	r3, r3, #2
     2e4:	4a68      	ldr	r2, [pc, #416]	; (488 <adxl34x_set_zeroOffset+0x1c4>)
     2e6:	58d3      	ldr	r3, [r2, r3]
     2e8:	469f      	mov	pc, r3
	uint8_t  num_of_sample=10;/*default value*/
     2ea:	230a      	movs	r3, #10
     2ec:	4699      	mov	r9, r3
	 break;	
	 case ADXL34x_DATARATE_0_20_HZ :
	 time_delay=5000; /*in millisecond*/
	 break;
	 case ADXL34x_DATARATE_0_39_HZ :
	 time_delay=2560; /*in millisecond*/
     2ee:	23a0      	movs	r3, #160	; 0xa0
     2f0:	011b      	lsls	r3, r3, #4
     2f2:	9300      	str	r3, [sp, #0]
     2f4:	e047      	b.n	386 <adxl34x_set_zeroOffset+0xc2>
	uint8_t  num_of_sample=10;/*default value*/
     2f6:	230a      	movs	r3, #10
     2f8:	4699      	mov	r9, r3
	 break;
	 case ADXL34x_DATARATE_0_78_HZ :
	 time_delay=1285; /*in millisecond*/
	 break;
	 case ADXL34x_DATARATE_1_56_HZ :
	 time_delay=650; /*in millisecond*/
     2fa:	4b64      	ldr	r3, [pc, #400]	; (48c <adxl34x_set_zeroOffset+0x1c8>)
     2fc:	9300      	str	r3, [sp, #0]
	 break;
     2fe:	e042      	b.n	386 <adxl34x_set_zeroOffset+0xc2>
	uint8_t  num_of_sample=10;/*default value*/
     300:	230a      	movs	r3, #10
     302:	4699      	mov	r9, r3
	 case ADXL34x_DATARATE_3_13_HZ :
	 time_delay=320; /*in millisecond*/
     304:	3337      	adds	r3, #55	; 0x37
     306:	33ff      	adds	r3, #255	; 0xff
     308:	9300      	str	r3, [sp, #0]
	 break;
     30a:	e03c      	b.n	386 <adxl34x_set_zeroOffset+0xc2>
	uint8_t  num_of_sample=10;/*default value*/
     30c:	230a      	movs	r3, #10
     30e:	4699      	mov	r9, r3
	 case ADXL34x_DATARATE_6_25HZ :
	 time_delay=160; /*in millisecond*/
     310:	3396      	adds	r3, #150	; 0x96
     312:	9300      	str	r3, [sp, #0]
	 break;
     314:	e037      	b.n	386 <adxl34x_set_zeroOffset+0xc2>
	uint8_t  num_of_sample=10;/*default value*/
     316:	230a      	movs	r3, #10
     318:	4699      	mov	r9, r3
	 case ADXL34x_DATARATE_12_5_HZ :
	 time_delay=80; /*in millisecond*/
     31a:	3346      	adds	r3, #70	; 0x46
     31c:	9300      	str	r3, [sp, #0]
	 break;
     31e:	e032      	b.n	386 <adxl34x_set_zeroOffset+0xc2>
	uint8_t  num_of_sample=10;/*default value*/
     320:	230a      	movs	r3, #10
     322:	4699      	mov	r9, r3
	 case ADXL34x_DATARATE_25_HZ :
	 time_delay=40; /*in millisecond*/
     324:	331e      	adds	r3, #30
     326:	9300      	str	r3, [sp, #0]
	 break;
     328:	e02d      	b.n	386 <adxl34x_set_zeroOffset+0xc2>
	uint8_t  num_of_sample=10;/*default value*/
     32a:	230a      	movs	r3, #10
     32c:	4699      	mov	r9, r3
	 case ADXL34x_DATARATE_50_HZ :
	 time_delay=20; /*in millisecond*/
     32e:	330a      	adds	r3, #10
     330:	9300      	str	r3, [sp, #0]
	 break;
     332:	e028      	b.n	386 <adxl34x_set_zeroOffset+0xc2>
	uint8_t  num_of_sample=10;/*default value*/
     334:	230a      	movs	r3, #10
     336:	4699      	mov	r9, r3
	 case ADXL34x_DATARATE_100_HZ :
	 time_delay=10; /*in millisecond*/
     338:	9300      	str	r3, [sp, #0]
	 break;
     33a:	e024      	b.n	386 <adxl34x_set_zeroOffset+0xc2>
	 default:
	 /*for any data rate above 100Hz , but need 0.1 sec worth of samples */
	 time_delay=5; /*in millisecond*/
	 num_of_sample=40; /*40 samples in total */
     33c:	2328      	movs	r3, #40	; 0x28
     33e:	4699      	mov	r9, r3
	 time_delay=5; /*in millisecond*/
     340:	3b23      	subs	r3, #35	; 0x23
     342:	9300      	str	r3, [sp, #0]
	 break;
     344:	e01f      	b.n	386 <adxl34x_set_zeroOffset+0xc2>
	}
	 #if ADXL_I2C_Mode == 1
	 /*first you should delete any previous offset data*/
	 adxl34x_set_axisOffset(acc,acc->offset_x_axis,acc->offset_y_axis,acc->offset_z_axis);
     346:	2300      	movs	r3, #0
     348:	2200      	movs	r2, #0
     34a:	2100      	movs	r1, #0
     34c:	9801      	ldr	r0, [sp, #4]
     34e:	4c50      	ldr	r4, [pc, #320]	; (490 <adxl34x_set_zeroOffset+0x1cc>)
     350:	47a0      	blx	r4
	 i2c_delay_ms(40);
     352:	2028      	movs	r0, #40	; 0x28
     354:	4d4f      	ldr	r5, [pc, #316]	; (494 <adxl34x_set_zeroOffset+0x1d0>)
     356:	47a8      	blx	r5
	return i2c_driver_read16(ADXL34x_REG_DATAX0);
     358:	2032      	movs	r0, #50	; 0x32
     35a:	4c4f      	ldr	r4, [pc, #316]	; (498 <adxl34x_set_zeroOffset+0x1d4>)
     35c:	47a0      	blx	r4
	return i2c_driver_read16(ADXL34x_REG_DATAY0);
     35e:	2034      	movs	r0, #52	; 0x34
     360:	47a0      	blx	r4
	return i2c_driver_read16(ADXL34x_REG_DATAZ0);
     362:	2036      	movs	r0, #54	; 0x36
     364:	47a0      	blx	r4
	 get_x_axis();
	 get_y_axis();
	 get_z_axis();
	 i2c_delay_ms(time_delay);
     366:	4c4d      	ldr	r4, [pc, #308]	; (49c <adxl34x_set_zeroOffset+0x1d8>)
     368:	0020      	movs	r0, r4
     36a:	47a8      	blx	r5
	uint8_t  num_of_sample=10;/*default value*/
     36c:	230a      	movs	r3, #10
     36e:	4699      	mov	r9, r3
	 time_delay=10000; /*in millisecond*/	 
     370:	9400      	str	r4, [sp, #0]
     372:	e01a      	b.n	3aa <adxl34x_set_zeroOffset+0xe6>
	uint8_t  num_of_sample=10;/*default value*/
     374:	230a      	movs	r3, #10
     376:	4699      	mov	r9, r3
	 time_delay=5000; /*in millisecond*/
     378:	4b49      	ldr	r3, [pc, #292]	; (4a0 <adxl34x_set_zeroOffset+0x1dc>)
     37a:	9300      	str	r3, [sp, #0]
     37c:	e003      	b.n	386 <adxl34x_set_zeroOffset+0xc2>
	uint8_t  num_of_sample=10;/*default value*/
     37e:	230a      	movs	r3, #10
     380:	4699      	mov	r9, r3
	 time_delay=1285; /*in millisecond*/
     382:	4b48      	ldr	r3, [pc, #288]	; (4a4 <adxl34x_set_zeroOffset+0x1e0>)
     384:	9300      	str	r3, [sp, #0]
	 adxl34x_set_axisOffset(acc,acc->offset_x_axis,acc->offset_y_axis,acc->offset_z_axis);
     386:	2300      	movs	r3, #0
     388:	2200      	movs	r2, #0
     38a:	2100      	movs	r1, #0
     38c:	9801      	ldr	r0, [sp, #4]
     38e:	4c40      	ldr	r4, [pc, #256]	; (490 <adxl34x_set_zeroOffset+0x1cc>)
     390:	47a0      	blx	r4
	 i2c_delay_ms(40);
     392:	2028      	movs	r0, #40	; 0x28
     394:	4d3f      	ldr	r5, [pc, #252]	; (494 <adxl34x_set_zeroOffset+0x1d0>)
     396:	47a8      	blx	r5
	return i2c_driver_read16(ADXL34x_REG_DATAX0);
     398:	2032      	movs	r0, #50	; 0x32
     39a:	4c3f      	ldr	r4, [pc, #252]	; (498 <adxl34x_set_zeroOffset+0x1d4>)
     39c:	47a0      	blx	r4
	return i2c_driver_read16(ADXL34x_REG_DATAY0);
     39e:	2034      	movs	r0, #52	; 0x34
     3a0:	47a0      	blx	r4
	return i2c_driver_read16(ADXL34x_REG_DATAZ0);
     3a2:	2036      	movs	r0, #54	; 0x36
     3a4:	47a0      	blx	r4
	 i2c_delay_ms(time_delay);
     3a6:	9800      	ldr	r0, [sp, #0]
     3a8:	47a8      	blx	r5
	 time_delay=10000; /*in millisecond*/	 
     3aa:	2300      	movs	r3, #0
     3ac:	4698      	mov	r8, r3
     3ae:	2500      	movs	r5, #0
     3b0:	2400      	movs	r4, #0
     3b2:	2700      	movs	r7, #0
	return i2c_driver_read16(ADXL34x_REG_DATAX0);
     3b4:	4e38      	ldr	r6, [pc, #224]	; (498 <adxl34x_set_zeroOffset+0x1d4>)
	 for (uint8_t i=0;i<num_of_sample;i++)
	 {
		 X0gt+=get_x_axis();
		 Y0gt+=get_y_axis();
		 Z0gt+=get_z_axis();
		 i2c_delay_ms(time_delay);
     3b6:	4b37      	ldr	r3, [pc, #220]	; (494 <adxl34x_set_zeroOffset+0x1d0>)
     3b8:	469b      	mov	fp, r3
	return i2c_driver_read16(ADXL34x_REG_DATAX0);
     3ba:	2032      	movs	r0, #50	; 0x32
     3bc:	47b0      	blx	r6
		 X0gt+=get_x_axis();
     3be:	183f      	adds	r7, r7, r0
	return i2c_driver_read16(ADXL34x_REG_DATAY0);
     3c0:	2034      	movs	r0, #52	; 0x34
     3c2:	47b0      	blx	r6
		 Y0gt+=get_y_axis();
     3c4:	1824      	adds	r4, r4, r0
	return i2c_driver_read16(ADXL34x_REG_DATAZ0);
     3c6:	2036      	movs	r0, #54	; 0x36
     3c8:	47b0      	blx	r6
		 Z0gt+=get_z_axis();
     3ca:	182d      	adds	r5, r5, r0
		 i2c_delay_ms(time_delay);
     3cc:	9800      	ldr	r0, [sp, #0]
     3ce:	47d8      	blx	fp
	 for (uint8_t i=0;i<num_of_sample;i++)
     3d0:	4643      	mov	r3, r8
     3d2:	3301      	adds	r3, #1
     3d4:	b2db      	uxtb	r3, r3
     3d6:	4698      	mov	r8, r3
     3d8:	45c8      	cmp	r8, r9
     3da:	d3ee      	bcc.n	3ba <adxl34x_set_zeroOffset+0xf6>
	 }
	 #endif
	 
	 /*we have to take the average of the readings*/
	 X0g=(int16_t)X0gt/num_of_sample;
     3dc:	b238      	sxth	r0, r7
     3de:	4b32      	ldr	r3, [pc, #200]	; (4a8 <adxl34x_set_zeroOffset+0x1e4>)
     3e0:	469b      	mov	fp, r3
     3e2:	464f      	mov	r7, r9
     3e4:	4649      	mov	r1, r9
     3e6:	4798      	blx	r3
	 Y0g=(int16_t)Y0gt/num_of_sample;
	 Z0g=(int16_t)(Z0gt/num_of_sample) - 256 ;
	 
	 acc->offset_x_axis = round(X0g/4) *-1;
     3e8:	b203      	sxth	r3, r0
     3ea:	17d8      	asrs	r0, r3, #31
     3ec:	2203      	movs	r2, #3
     3ee:	4690      	mov	r8, r2
     3f0:	4010      	ands	r0, r2
     3f2:	18c0      	adds	r0, r0, r3
     3f4:	1080      	asrs	r0, r0, #2
     3f6:	4b2d      	ldr	r3, [pc, #180]	; (4ac <adxl34x_set_zeroOffset+0x1e8>)
     3f8:	469a      	mov	sl, r3
     3fa:	4798      	blx	r3
     3fc:	4b2c      	ldr	r3, [pc, #176]	; (4b0 <adxl34x_set_zeroOffset+0x1ec>)
     3fe:	4699      	mov	r9, r3
     400:	0002      	movs	r2, r0
     402:	2080      	movs	r0, #128	; 0x80
     404:	0600      	lsls	r0, r0, #24
     406:	180b      	adds	r3, r1, r0
     408:	0010      	movs	r0, r2
     40a:	0019      	movs	r1, r3
     40c:	47c8      	blx	r9
     40e:	b203      	sxth	r3, r0
     410:	001a      	movs	r2, r3
     412:	9e01      	ldr	r6, [sp, #4]
     414:	0033      	movs	r3, r6
     416:	9200      	str	r2, [sp, #0]
     418:	831a      	strh	r2, [r3, #24]
	 Y0g=(int16_t)Y0gt/num_of_sample;
     41a:	b220      	sxth	r0, r4
     41c:	0039      	movs	r1, r7
     41e:	47d8      	blx	fp
	 acc->offset_y_axis = round(Y0g/4) *-1;
     420:	b203      	sxth	r3, r0
     422:	17d8      	asrs	r0, r3, #31
     424:	4644      	mov	r4, r8
     426:	4020      	ands	r0, r4
     428:	18c0      	adds	r0, r0, r3
     42a:	1080      	asrs	r0, r0, #2
     42c:	47d0      	blx	sl
     42e:	0002      	movs	r2, r0
     430:	2080      	movs	r0, #128	; 0x80
     432:	0600      	lsls	r0, r0, #24
     434:	180b      	adds	r3, r1, r0
     436:	0010      	movs	r0, r2
     438:	0019      	movs	r1, r3
     43a:	47c8      	blx	r9
     43c:	b204      	sxth	r4, r0
     43e:	8374      	strh	r4, [r6, #26]
	 Z0g=(int16_t)(Z0gt/num_of_sample) - 256 ;
     440:	0039      	movs	r1, r7
     442:	0028      	movs	r0, r5
     444:	47d8      	blx	fp
     446:	3801      	subs	r0, #1
     448:	38ff      	subs	r0, #255	; 0xff
	 acc->offset_z_axis = round(Z0g/4) *-1;
     44a:	b203      	sxth	r3, r0
     44c:	17d8      	asrs	r0, r3, #31
     44e:	4641      	mov	r1, r8
     450:	4008      	ands	r0, r1
     452:	18c0      	adds	r0, r0, r3
     454:	1080      	asrs	r0, r0, #2
     456:	47d0      	blx	sl
     458:	0002      	movs	r2, r0
     45a:	2080      	movs	r0, #128	; 0x80
     45c:	0600      	lsls	r0, r0, #24
     45e:	180b      	adds	r3, r1, r0
     460:	0010      	movs	r0, r2
     462:	0019      	movs	r1, r3
     464:	47c8      	blx	r9
     466:	b203      	sxth	r3, r0
     468:	83b3      	strh	r3, [r6, #28]
	 adxl34x_set_axisOffset(acc,acc->offset_x_axis,acc->offset_y_axis,acc->offset_z_axis);
     46a:	b25b      	sxtb	r3, r3
     46c:	b262      	sxtb	r2, r4
     46e:	4669      	mov	r1, sp
     470:	7809      	ldrb	r1, [r1, #0]
     472:	b249      	sxtb	r1, r1
     474:	0030      	movs	r0, r6
     476:	4c06      	ldr	r4, [pc, #24]	; (490 <adxl34x_set_zeroOffset+0x1cc>)
     478:	47a0      	blx	r4
}
     47a:	b003      	add	sp, #12
     47c:	bc3c      	pop	{r2, r3, r4, r5}
     47e:	4690      	mov	r8, r2
     480:	4699      	mov	r9, r3
     482:	46a2      	mov	sl, r4
     484:	46ab      	mov	fp, r5
     486:	bdf0      	pop	{r4, r5, r6, r7, pc}
     488:	0000879c 	.word	0x0000879c
     48c:	0000028a 	.word	0x0000028a
     490:	000002a5 	.word	0x000002a5
     494:	00000531 	.word	0x00000531
     498:	00000509 	.word	0x00000509
     49c:	00002710 	.word	0x00002710
     4a0:	00001388 	.word	0x00001388
     4a4:	00000505 	.word	0x00000505
     4a8:	00001799 	.word	0x00001799
     4ac:	00002d2d 	.word	0x00002d2d
     4b0:	00002cc5 	.word	0x00002cc5

000004b4 <i2c_driver_write>:
struct _i2c_m_msg i2c_msg;
#define wr_buf_size  2
static uint8_t write_buf[wr_buf_size];
static uint8_t read_buf [wr_buf_size];
void i2c_driver_write(uint8_t reg,uint8_t data)
{
     4b4:	b510      	push	{r4, lr}
	/*write one byte to the sensor*/
	write_buf[0]=reg;
     4b6:	4b07      	ldr	r3, [pc, #28]	; (4d4 <i2c_driver_write+0x20>)
     4b8:	7018      	strb	r0, [r3, #0]
	write_buf[1]=data;
     4ba:	7059      	strb	r1, [r3, #1]

	i2c_msg.addr   = ADXL34x_ADDRESS;
     4bc:	4906      	ldr	r1, [pc, #24]	; (4d8 <i2c_driver_write+0x24>)
     4be:	2253      	movs	r2, #83	; 0x53
     4c0:	800a      	strh	r2, [r1, #0]
	i2c_msg.flags  = I2C_M_STOP;
     4c2:	4a06      	ldr	r2, [pc, #24]	; (4dc <i2c_driver_write+0x28>)
     4c4:	804a      	strh	r2, [r1, #2]
	i2c_msg.buffer = write_buf;
     4c6:	608b      	str	r3, [r1, #8]
	i2c_msg.len    = wr_buf_size;
     4c8:	2302      	movs	r3, #2
     4ca:	604b      	str	r3, [r1, #4]

	i2c_m_sync_transfer(&I2C_ADXL345, &i2c_msg);
     4cc:	4804      	ldr	r0, [pc, #16]	; (4e0 <i2c_driver_write+0x2c>)
     4ce:	4b05      	ldr	r3, [pc, #20]	; (4e4 <i2c_driver_write+0x30>)
     4d0:	4798      	blx	r3
}
     4d2:	bd10      	pop	{r4, pc}
     4d4:	200009cc 	.word	0x200009cc
     4d8:	20000a14 	.word	0x20000a14
     4dc:	ffff8000 	.word	0xffff8000
     4e0:	20000a2c 	.word	0x20000a2c
     4e4:	00000909 	.word	0x00000909

000004e8 <i2c_driver_read>:
uint8_t i2c_driver_read(uint8_t reg)/**/
{
     4e8:	b570      	push	{r4, r5, r6, lr}
     4ea:	0001      	movs	r1, r0
	i2c_m_sync_cmd_read(&I2C_ADXL345,reg,read_buf,1);
     4ec:	4c03      	ldr	r4, [pc, #12]	; (4fc <i2c_driver_read+0x14>)
     4ee:	1d22      	adds	r2, r4, #4
     4f0:	2301      	movs	r3, #1
     4f2:	4803      	ldr	r0, [pc, #12]	; (500 <i2c_driver_read+0x18>)
     4f4:	4d03      	ldr	r5, [pc, #12]	; (504 <i2c_driver_read+0x1c>)
     4f6:	47a8      	blx	r5
	return read_buf[0];
     4f8:	7920      	ldrb	r0, [r4, #4]
}
     4fa:	bd70      	pop	{r4, r5, r6, pc}
     4fc:	200009cc 	.word	0x200009cc
     500:	20000a2c 	.word	0x20000a2c
     504:	000008c1 	.word	0x000008c1

00000508 <i2c_driver_read16>:

int16_t i2c_driver_read16(uint8_t reg)/*only to read the accel. data*/
{
     508:	b570      	push	{r4, r5, r6, lr}
     50a:	0001      	movs	r1, r0
	i2c_m_sync_cmd_read(&I2C_ADXL345,reg,read_buf,2);
     50c:	4c05      	ldr	r4, [pc, #20]	; (524 <i2c_driver_read16+0x1c>)
     50e:	1d22      	adds	r2, r4, #4
     510:	2302      	movs	r3, #2
     512:	4805      	ldr	r0, [pc, #20]	; (528 <i2c_driver_read16+0x20>)
     514:	4d05      	ldr	r5, [pc, #20]	; (52c <i2c_driver_read16+0x24>)
     516:	47a8      	blx	r5
	return (uint16_t)(read_buf[0] | read_buf[1] << 8);
     518:	7963      	ldrb	r3, [r4, #5]
     51a:	021b      	lsls	r3, r3, #8
     51c:	7920      	ldrb	r0, [r4, #4]
     51e:	4318      	orrs	r0, r3
     520:	b200      	sxth	r0, r0
}
     522:	bd70      	pop	{r4, r5, r6, pc}
     524:	200009cc 	.word	0x200009cc
     528:	20000a2c 	.word	0x20000a2c
     52c:	000008c1 	.word	0x000008c1

00000530 <i2c_delay_ms>:
	 delay_us(tdelay);
	 return 0;
}

uint16_t i2c_delay_ms(uint16_t tdelay)
{
     530:	b510      	push	{r4, lr}
	delay_ms(tdelay);
     532:	4b02      	ldr	r3, [pc, #8]	; (53c <i2c_delay_ms+0xc>)
     534:	4798      	blx	r3
	return 0;
     536:	2000      	movs	r0, #0
     538:	bd10      	pop	{r4, pc}
     53a:	46c0      	nop			; (mov r8, r8)
     53c:	000007e1 	.word	0x000007e1

00000540 <atmel_start_init>:

/**
 * Initializes MCU, drivers and middleware in the project
 **/
void atmel_start_init(void)
{
     540:	b510      	push	{r4, lr}
	system_init();
     542:	4b02      	ldr	r3, [pc, #8]	; (54c <atmel_start_init+0xc>)
     544:	4798      	blx	r3
	stdio_redirect_init();
     546:	4b02      	ldr	r3, [pc, #8]	; (550 <atmel_start_init+0x10>)
     548:	4798      	blx	r3
}
     54a:	bd10      	pop	{r4, pc}
     54c:	0000077d 	.word	0x0000077d
     550:	00001665 	.word	0x00001665

00000554 <Dummy_Handler>:

/**
 * \brief Default interrupt handler for unused IRQs.
 */
void Dummy_Handler(void)
{
     554:	e7fe      	b.n	554 <Dummy_Handler>
	...

00000558 <Reset_Handler>:
{
     558:	b5f8      	push	{r3, r4, r5, r6, r7, lr}
        if (pSrc != pDest) {
     55a:	4a2a      	ldr	r2, [pc, #168]	; (604 <Reset_Handler+0xac>)
     55c:	4b2a      	ldr	r3, [pc, #168]	; (608 <Reset_Handler+0xb0>)
     55e:	429a      	cmp	r2, r3
     560:	d011      	beq.n	586 <Reset_Handler+0x2e>
                for (; pDest < &_erelocate;) {
     562:	001a      	movs	r2, r3
     564:	4b29      	ldr	r3, [pc, #164]	; (60c <Reset_Handler+0xb4>)
     566:	429a      	cmp	r2, r3
     568:	d20d      	bcs.n	586 <Reset_Handler+0x2e>
     56a:	4a29      	ldr	r2, [pc, #164]	; (610 <Reset_Handler+0xb8>)
     56c:	3303      	adds	r3, #3
     56e:	1a9b      	subs	r3, r3, r2
     570:	089b      	lsrs	r3, r3, #2
     572:	3301      	adds	r3, #1
     574:	009b      	lsls	r3, r3, #2
     576:	2200      	movs	r2, #0
                        *pDest++ = *pSrc++;
     578:	4823      	ldr	r0, [pc, #140]	; (608 <Reset_Handler+0xb0>)
     57a:	4922      	ldr	r1, [pc, #136]	; (604 <Reset_Handler+0xac>)
     57c:	588c      	ldr	r4, [r1, r2]
     57e:	5084      	str	r4, [r0, r2]
     580:	3204      	adds	r2, #4
                for (; pDest < &_erelocate;) {
     582:	429a      	cmp	r2, r3
     584:	d1fa      	bne.n	57c <Reset_Handler+0x24>
        for (pDest = &_szero; pDest < &_ezero;) {
     586:	4a23      	ldr	r2, [pc, #140]	; (614 <Reset_Handler+0xbc>)
     588:	4b23      	ldr	r3, [pc, #140]	; (618 <Reset_Handler+0xc0>)
     58a:	429a      	cmp	r2, r3
     58c:	d20a      	bcs.n	5a4 <Reset_Handler+0x4c>
     58e:	43d3      	mvns	r3, r2
     590:	4921      	ldr	r1, [pc, #132]	; (618 <Reset_Handler+0xc0>)
     592:	185b      	adds	r3, r3, r1
     594:	2103      	movs	r1, #3
     596:	438b      	bics	r3, r1
     598:	3304      	adds	r3, #4
     59a:	189b      	adds	r3, r3, r2
                *pDest++ = 0;
     59c:	2100      	movs	r1, #0
     59e:	c202      	stmia	r2!, {r1}
        for (pDest = &_szero; pDest < &_ezero;) {
     5a0:	4293      	cmp	r3, r2
     5a2:	d1fc      	bne.n	59e <Reset_Handler+0x46>
        SCB->VTOR = ((uint32_t) pSrc & SCB_VTOR_TBLOFF_Msk);
     5a4:	4a1d      	ldr	r2, [pc, #116]	; (61c <Reset_Handler+0xc4>)
     5a6:	21ff      	movs	r1, #255	; 0xff
     5a8:	4b1d      	ldr	r3, [pc, #116]	; (620 <Reset_Handler+0xc8>)
     5aa:	438b      	bics	r3, r1
     5ac:	6093      	str	r3, [r2, #8]
        SBMATRIX->SFR[SBMATRIX_SLAVE_HMCRAMC0].reg = 2;
     5ae:	39fd      	subs	r1, #253	; 0xfd
     5b0:	2390      	movs	r3, #144	; 0x90
     5b2:	005b      	lsls	r3, r3, #1
     5b4:	4a1b      	ldr	r2, [pc, #108]	; (624 <Reset_Handler+0xcc>)
     5b6:	50d1      	str	r1, [r2, r3]
        USB->DEVICE.QOSCTRL.bit.CQOS = 2;
     5b8:	4a1b      	ldr	r2, [pc, #108]	; (628 <Reset_Handler+0xd0>)
     5ba:	78d3      	ldrb	r3, [r2, #3]
     5bc:	2503      	movs	r5, #3
     5be:	43ab      	bics	r3, r5
     5c0:	2402      	movs	r4, #2
     5c2:	4323      	orrs	r3, r4
     5c4:	70d3      	strb	r3, [r2, #3]
        USB->DEVICE.QOSCTRL.bit.DQOS = 2;
     5c6:	78d3      	ldrb	r3, [r2, #3]
     5c8:	270c      	movs	r7, #12
     5ca:	43bb      	bics	r3, r7
     5cc:	2608      	movs	r6, #8
     5ce:	4333      	orrs	r3, r6
     5d0:	70d3      	strb	r3, [r2, #3]
        DMAC->QOSCTRL.bit.DQOS = 2;
     5d2:	4b16      	ldr	r3, [pc, #88]	; (62c <Reset_Handler+0xd4>)
     5d4:	7b98      	ldrb	r0, [r3, #14]
     5d6:	2230      	movs	r2, #48	; 0x30
     5d8:	4390      	bics	r0, r2
     5da:	2220      	movs	r2, #32
     5dc:	4310      	orrs	r0, r2
     5de:	7398      	strb	r0, [r3, #14]
        DMAC->QOSCTRL.bit.FQOS = 2;
     5e0:	7b99      	ldrb	r1, [r3, #14]
     5e2:	43b9      	bics	r1, r7
     5e4:	4331      	orrs	r1, r6
     5e6:	7399      	strb	r1, [r3, #14]
        DMAC->QOSCTRL.bit.WRBQOS = 2;
     5e8:	7b9a      	ldrb	r2, [r3, #14]
     5ea:	43aa      	bics	r2, r5
     5ec:	4322      	orrs	r2, r4
     5ee:	739a      	strb	r2, [r3, #14]
        NVMCTRL->CTRLB.bit.MANW = 1;
     5f0:	4a0f      	ldr	r2, [pc, #60]	; (630 <Reset_Handler+0xd8>)
     5f2:	6853      	ldr	r3, [r2, #4]
     5f4:	2180      	movs	r1, #128	; 0x80
     5f6:	430b      	orrs	r3, r1
     5f8:	6053      	str	r3, [r2, #4]
        __libc_init_array();
     5fa:	4b0e      	ldr	r3, [pc, #56]	; (634 <Reset_Handler+0xdc>)
     5fc:	4798      	blx	r3
        main();
     5fe:	4b0e      	ldr	r3, [pc, #56]	; (638 <Reset_Handler+0xe0>)
     600:	4798      	blx	r3
     602:	e7fe      	b.n	602 <Reset_Handler+0xaa>
     604:	00008ddc 	.word	0x00008ddc
     608:	20000000 	.word	0x20000000
     60c:	200009b0 	.word	0x200009b0
     610:	20000004 	.word	0x20000004
     614:	200009b0 	.word	0x200009b0
     618:	20000a94 	.word	0x20000a94
     61c:	e000ed00 	.word	0xe000ed00
     620:	00000000 	.word	0x00000000
     624:	41007000 	.word	0x41007000
     628:	41005000 	.word	0x41005000
     62c:	41004800 	.word	0x41004800
     630:	41004000 	.word	0x41004000
     634:	000032a9 	.word	0x000032a9
     638:	00001455 	.word	0x00001455

0000063c <I2C_ADXL345_PORT_init>:
struct i2c_m_sync_desc I2C_ADXL345;

struct usart_sync_descriptor TARGET_IO;

void I2C_ADXL345_PORT_init(void)
{
     63c:	b570      	push	{r4, r5, r6, lr}
}

static inline void hri_port_clear_PINCFG_PULLEN_bit(const void *const hw, uint8_t submodule_index, uint8_t index)
{
	PORT_CRITICAL_SECTION_ENTER();
	((Port *)hw)->Group[submodule_index].PINCFG[index].reg &= ~PORT_PINCFG_PULLEN;
     63e:	4b12      	ldr	r3, [pc, #72]	; (688 <I2C_ADXL345_PORT_init+0x4c>)
     640:	2048      	movs	r0, #72	; 0x48
     642:	5c19      	ldrb	r1, [r3, r0]
     644:	2204      	movs	r2, #4
     646:	4391      	bics	r1, r2
     648:	5419      	strb	r1, [r3, r0]
	tmp = ((Port *)hw)->Group[submodule_index].PINCFG[index].reg;
     64a:	5c19      	ldrb	r1, [r3, r0]
	tmp &= ~PORT_PINCFG_PMUXEN;
     64c:	2501      	movs	r5, #1
     64e:	43a9      	bics	r1, r5
	tmp |= value << PORT_PINCFG_PMUXEN_Pos;
     650:	2401      	movs	r4, #1
     652:	4321      	orrs	r1, r4
     654:	b2c9      	uxtb	r1, r1
	((Port *)hw)->Group[submodule_index].PINCFG[index].reg = tmp;
     656:	5419      	strb	r1, [r3, r0]
	tmp = ((Port *)hw)->Group[submodule_index].PMUX[index].reg;
     658:	3814      	subs	r0, #20
     65a:	5c19      	ldrb	r1, [r3, r0]
	tmp &= ~PORT_PMUX_PMUXE_Msk;
     65c:	260f      	movs	r6, #15
     65e:	43b1      	bics	r1, r6
	tmp |= PORT_PMUX_PMUXE(data);
     660:	3e0d      	subs	r6, #13
     662:	4331      	orrs	r1, r6
	((Port *)hw)->Group[submodule_index].PMUX[index].reg = tmp;
     664:	5419      	strb	r1, [r3, r0]
	((Port *)hw)->Group[submodule_index].PINCFG[index].reg &= ~PORT_PINCFG_PULLEN;
     666:	2149      	movs	r1, #73	; 0x49
     668:	5c5e      	ldrb	r6, [r3, r1]
     66a:	4396      	bics	r6, r2
     66c:	545e      	strb	r6, [r3, r1]
	tmp = ((Port *)hw)->Group[submodule_index].PINCFG[index].reg;
     66e:	5c5a      	ldrb	r2, [r3, r1]
	tmp &= ~PORT_PINCFG_PMUXEN;
     670:	43aa      	bics	r2, r5
	tmp |= value << PORT_PINCFG_PMUXEN_Pos;
     672:	4322      	orrs	r2, r4
     674:	b2d2      	uxtb	r2, r2
	((Port *)hw)->Group[submodule_index].PINCFG[index].reg = tmp;
     676:	545a      	strb	r2, [r3, r1]
	tmp = ((Port *)hw)->Group[submodule_index].PMUX[index].reg;
     678:	5c1a      	ldrb	r2, [r3, r0]
	tmp &= ~PORT_PMUX_PMUXO_Msk;
     67a:	393a      	subs	r1, #58	; 0x3a
     67c:	400a      	ands	r2, r1
	tmp |= PORT_PMUX_PMUXO(data);
     67e:	3111      	adds	r1, #17
     680:	430a      	orrs	r2, r1
	((Port *)hw)->Group[submodule_index].PMUX[index].reg = tmp;
     682:	541a      	strb	r2, [r3, r0]
	                       // <GPIO_PULL_UP"> Pull-up
	                       // <GPIO_PULL_DOWN"> Pull-down
	                       GPIO_PULL_OFF);

	gpio_set_pin_function(PA09, PINMUX_PA09C_SERCOM0_PAD1);
}
     684:	bd70      	pop	{r4, r5, r6, pc}
     686:	46c0      	nop			; (mov r8, r8)
     688:	41004400 	.word	0x41004400

0000068c <I2C_ADXL345_CLOCK_init>:
			peripheral = (uint32_t)_pm_get_apbb_index(module);
			PM->APBBMASK.reg |= 1 << peripheral;
		}
		break;
	case PM_BUS_APBC:
		PM->APBCMASK.reg |= 1 << peripheral;
     68c:	4a05      	ldr	r2, [pc, #20]	; (6a4 <I2C_ADXL345_CLOCK_init+0x18>)
     68e:	6a13      	ldr	r3, [r2, #32]
     690:	2104      	movs	r1, #4
     692:	430b      	orrs	r3, r1
     694:	6213      	str	r3, [r2, #32]
}

static inline void hri_gclk_write_CLKCTRL_reg(const void *const hw, hri_gclk_clkctrl_reg_t data)
{
	GCLK_CRITICAL_SECTION_ENTER();
	((Gclk *)hw)->CLKCTRL.reg = data;
     696:	4b04      	ldr	r3, [pc, #16]	; (6a8 <I2C_ADXL345_CLOCK_init+0x1c>)
     698:	4a04      	ldr	r2, [pc, #16]	; (6ac <I2C_ADXL345_CLOCK_init+0x20>)
     69a:	805a      	strh	r2, [r3, #2]
     69c:	4a04      	ldr	r2, [pc, #16]	; (6b0 <I2C_ADXL345_CLOCK_init+0x24>)
     69e:	805a      	strh	r2, [r3, #2]
void I2C_ADXL345_CLOCK_init(void)
{
	_pm_enable_bus_clock(PM_BUS_APBC, SERCOM0);
	_gclk_enable_channel(SERCOM0_GCLK_ID_CORE, CONF_GCLK_SERCOM0_CORE_SRC);
	_gclk_enable_channel(SERCOM0_GCLK_ID_SLOW, CONF_GCLK_SERCOM0_SLOW_SRC);
}
     6a0:	4770      	bx	lr
     6a2:	46c0      	nop			; (mov r8, r8)
     6a4:	40000400 	.word	0x40000400
     6a8:	40000c00 	.word	0x40000c00
     6ac:	00004014 	.word	0x00004014
     6b0:	00004313 	.word	0x00004313

000006b4 <I2C_ADXL345_init>:

void I2C_ADXL345_init(void)
{
     6b4:	b510      	push	{r4, lr}
	I2C_ADXL345_CLOCK_init();
     6b6:	4b04      	ldr	r3, [pc, #16]	; (6c8 <I2C_ADXL345_init+0x14>)
     6b8:	4798      	blx	r3
	i2c_m_sync_init(&I2C_ADXL345, SERCOM0);
     6ba:	4904      	ldr	r1, [pc, #16]	; (6cc <I2C_ADXL345_init+0x18>)
     6bc:	4804      	ldr	r0, [pc, #16]	; (6d0 <I2C_ADXL345_init+0x1c>)
     6be:	4b05      	ldr	r3, [pc, #20]	; (6d4 <I2C_ADXL345_init+0x20>)
     6c0:	4798      	blx	r3
	I2C_ADXL345_PORT_init();
     6c2:	4b05      	ldr	r3, [pc, #20]	; (6d8 <I2C_ADXL345_init+0x24>)
     6c4:	4798      	blx	r3
}
     6c6:	bd10      	pop	{r4, pc}
     6c8:	0000068d 	.word	0x0000068d
     6cc:	42000800 	.word	0x42000800
     6d0:	20000a2c 	.word	0x20000a2c
     6d4:	00000861 	.word	0x00000861
     6d8:	0000063d 	.word	0x0000063d

000006dc <TARGET_IO_PORT_init>:

void TARGET_IO_PORT_init(void)
{
     6dc:	b530      	push	{r4, r5, lr}
	tmp = ((Port *)hw)->Group[submodule_index].PINCFG[index].reg;
     6de:	4b0e      	ldr	r3, [pc, #56]	; (718 <TARGET_IO_PORT_init+0x3c>)
     6e0:	2256      	movs	r2, #86	; 0x56
     6e2:	5c99      	ldrb	r1, [r3, r2]
	tmp &= ~PORT_PINCFG_PMUXEN;
     6e4:	2501      	movs	r5, #1
     6e6:	43a9      	bics	r1, r5
	tmp |= value << PORT_PINCFG_PMUXEN_Pos;
     6e8:	2401      	movs	r4, #1
     6ea:	4321      	orrs	r1, r4
     6ec:	b2c9      	uxtb	r1, r1
	((Port *)hw)->Group[submodule_index].PINCFG[index].reg = tmp;
     6ee:	5499      	strb	r1, [r3, r2]
	tmp = ((Port *)hw)->Group[submodule_index].PMUX[index].reg;
     6f0:	203b      	movs	r0, #59	; 0x3b
     6f2:	5c19      	ldrb	r1, [r3, r0]
	tmp &= ~PORT_PMUX_PMUXE_Msk;
     6f4:	3a47      	subs	r2, #71	; 0x47
     6f6:	4391      	bics	r1, r2
	tmp |= PORT_PMUX_PMUXE(data);
     6f8:	3a0d      	subs	r2, #13
     6fa:	4311      	orrs	r1, r2
	((Port *)hw)->Group[submodule_index].PMUX[index].reg = tmp;
     6fc:	5419      	strb	r1, [r3, r0]
	tmp = ((Port *)hw)->Group[submodule_index].PINCFG[index].reg;
     6fe:	2157      	movs	r1, #87	; 0x57
     700:	5c5a      	ldrb	r2, [r3, r1]
	tmp &= ~PORT_PINCFG_PMUXEN;
     702:	43aa      	bics	r2, r5
	tmp |= value << PORT_PINCFG_PMUXEN_Pos;
     704:	4322      	orrs	r2, r4
     706:	b2d2      	uxtb	r2, r2
	((Port *)hw)->Group[submodule_index].PINCFG[index].reg = tmp;
     708:	545a      	strb	r2, [r3, r1]
	tmp = ((Port *)hw)->Group[submodule_index].PMUX[index].reg;
     70a:	5c1a      	ldrb	r2, [r3, r0]
	tmp &= ~PORT_PMUX_PMUXO_Msk;
     70c:	3948      	subs	r1, #72	; 0x48
     70e:	400a      	ands	r2, r1
	tmp |= PORT_PMUX_PMUXO(data);
     710:	3111      	adds	r1, #17
     712:	430a      	orrs	r2, r1
	((Port *)hw)->Group[submodule_index].PMUX[index].reg = tmp;
     714:	541a      	strb	r2, [r3, r0]

	gpio_set_pin_function(PA22, PINMUX_PA22C_SERCOM3_PAD0);

	gpio_set_pin_function(PA23, PINMUX_PA23C_SERCOM3_PAD1);
}
     716:	bd30      	pop	{r4, r5, pc}
     718:	41004400 	.word	0x41004400

0000071c <TARGET_IO_CLOCK_init>:
     71c:	4a04      	ldr	r2, [pc, #16]	; (730 <TARGET_IO_CLOCK_init+0x14>)
     71e:	6a13      	ldr	r3, [r2, #32]
     720:	2120      	movs	r1, #32
     722:	430b      	orrs	r3, r1
     724:	6213      	str	r3, [r2, #32]
     726:	4a03      	ldr	r2, [pc, #12]	; (734 <TARGET_IO_CLOCK_init+0x18>)
     728:	4b03      	ldr	r3, [pc, #12]	; (738 <TARGET_IO_CLOCK_init+0x1c>)
     72a:	805a      	strh	r2, [r3, #2]

void TARGET_IO_CLOCK_init(void)
{
	_pm_enable_bus_clock(PM_BUS_APBC, SERCOM3);
	_gclk_enable_channel(SERCOM3_GCLK_ID_CORE, CONF_GCLK_SERCOM3_CORE_SRC);
}
     72c:	4770      	bx	lr
     72e:	46c0      	nop			; (mov r8, r8)
     730:	40000400 	.word	0x40000400
     734:	00004017 	.word	0x00004017
     738:	40000c00 	.word	0x40000c00

0000073c <TARGET_IO_init>:

void TARGET_IO_init(void)
{
     73c:	b510      	push	{r4, lr}
	TARGET_IO_CLOCK_init();
     73e:	4b05      	ldr	r3, [pc, #20]	; (754 <TARGET_IO_init+0x18>)
     740:	4798      	blx	r3
	usart_sync_init(&TARGET_IO, SERCOM3, (void *)NULL);
     742:	2200      	movs	r2, #0
     744:	4904      	ldr	r1, [pc, #16]	; (758 <TARGET_IO_init+0x1c>)
     746:	4805      	ldr	r0, [pc, #20]	; (75c <TARGET_IO_init+0x20>)
     748:	4b05      	ldr	r3, [pc, #20]	; (760 <TARGET_IO_init+0x24>)
     74a:	4798      	blx	r3
	TARGET_IO_PORT_init();
     74c:	4b05      	ldr	r3, [pc, #20]	; (764 <TARGET_IO_init+0x28>)
     74e:	4798      	blx	r3
}
     750:	bd10      	pop	{r4, pc}
     752:	46c0      	nop			; (mov r8, r8)
     754:	0000071d 	.word	0x0000071d
     758:	42001400 	.word	0x42001400
     75c:	20000a20 	.word	0x20000a20
     760:	00000a61 	.word	0x00000a61
     764:	000006dd 	.word	0x000006dd

00000768 <delay_driver_init>:

void delay_driver_init(void)
{
     768:	b510      	push	{r4, lr}
	delay_init(SysTick);
     76a:	4802      	ldr	r0, [pc, #8]	; (774 <delay_driver_init+0xc>)
     76c:	4b02      	ldr	r3, [pc, #8]	; (778 <delay_driver_init+0x10>)
     76e:	4798      	blx	r3
}
     770:	bd10      	pop	{r4, pc}
     772:	46c0      	nop			; (mov r8, r8)
     774:	e000e010 	.word	0xe000e010
     778:	000007cd 	.word	0x000007cd

0000077c <system_init>:

void system_init(void)
{
     77c:	b510      	push	{r4, lr}
 * Currently the following initialization functions are supported:
 *  - System clock initialization
 */
static inline void init_mcu(void)
{
	_init_chip();
     77e:	4b0d      	ldr	r3, [pc, #52]	; (7b4 <system_init+0x38>)
     780:	4798      	blx	r3
	((Port *)hw)->Group[submodule_index].OUTCLR.reg = mask;
     782:	23c0      	movs	r3, #192	; 0xc0
     784:	05db      	lsls	r3, r3, #23
     786:	2280      	movs	r2, #128	; 0x80
     788:	05d2      	lsls	r2, r2, #23
     78a:	2194      	movs	r1, #148	; 0x94
     78c:	505a      	str	r2, [r3, r1]
	((Port *)hw)->Group[submodule_index].DIRSET.reg = mask;
     78e:	390c      	subs	r1, #12
     790:	505a      	str	r2, [r3, r1]

static inline void hri_port_write_WRCONFIG_reg(const void *const hw, uint8_t submodule_index,
                                               hri_port_wrconfig_reg_t data)
{
	PORT_CRITICAL_SECTION_ENTER();
	((Port *)hw)->Group[submodule_index].WRCONFIG.reg = data;
     792:	4b09      	ldr	r3, [pc, #36]	; (7b8 <system_init+0x3c>)
     794:	3120      	adds	r1, #32
     796:	505a      	str	r2, [r3, r1]
     798:	4a08      	ldr	r2, [pc, #32]	; (7bc <system_init+0x40>)
     79a:	505a      	str	r2, [r3, r1]
	tmp = ((Port *)hw)->Group[submodule_index].PINCFG[index].reg;
     79c:	3136      	adds	r1, #54	; 0x36
     79e:	5c5a      	ldrb	r2, [r3, r1]
	tmp &= ~PORT_PINCFG_PMUXEN;
     7a0:	2001      	movs	r0, #1
     7a2:	4382      	bics	r2, r0
	((Port *)hw)->Group[submodule_index].PINCFG[index].reg = tmp;
     7a4:	545a      	strb	r2, [r3, r1]
	// Set pin direction to output
	gpio_set_pin_direction(LED0, GPIO_DIRECTION_OUT);

	gpio_set_pin_function(LED0, GPIO_PIN_FUNCTION_OFF);

	I2C_ADXL345_init();
     7a6:	4b06      	ldr	r3, [pc, #24]	; (7c0 <system_init+0x44>)
     7a8:	4798      	blx	r3

	TARGET_IO_init();
     7aa:	4b06      	ldr	r3, [pc, #24]	; (7c4 <system_init+0x48>)
     7ac:	4798      	blx	r3

	delay_driver_init();
     7ae:	4b06      	ldr	r3, [pc, #24]	; (7c8 <system_init+0x4c>)
     7b0:	4798      	blx	r3
}
     7b2:	bd10      	pop	{r4, pc}
     7b4:	00000b25 	.word	0x00000b25
     7b8:	41004400 	.word	0x41004400
     7bc:	c0004000 	.word	0xc0004000
     7c0:	000006b5 	.word	0x000006b5
     7c4:	0000073d 	.word	0x0000073d
     7c8:	00000769 	.word	0x00000769

000007cc <delay_init>:

/**
 * \brief Initialize Delay driver
 */
void delay_init(void *const hw)
{
     7cc:	b510      	push	{r4, lr}
	_delay_init(hardware = hw);
     7ce:	4b02      	ldr	r3, [pc, #8]	; (7d8 <delay_init+0xc>)
     7d0:	6018      	str	r0, [r3, #0]
     7d2:	4b02      	ldr	r3, [pc, #8]	; (7dc <delay_init+0x10>)
     7d4:	4798      	blx	r3
}
     7d6:	bd10      	pop	{r4, pc}
     7d8:	200009d4 	.word	0x200009d4
     7dc:	000013ed 	.word	0x000013ed

000007e0 <delay_ms>:

/**
 * \brief Perform delay in ms
 */
void delay_ms(const uint16_t ms)
{
     7e0:	b510      	push	{r4, lr}
	_delay_cycles(hardware, _get_cycles_for_ms(ms));
     7e2:	4b04      	ldr	r3, [pc, #16]	; (7f4 <delay_ms+0x14>)
     7e4:	681c      	ldr	r4, [r3, #0]
     7e6:	4b04      	ldr	r3, [pc, #16]	; (7f8 <delay_ms+0x18>)
     7e8:	4798      	blx	r3
     7ea:	0001      	movs	r1, r0
     7ec:	0020      	movs	r0, r4
     7ee:	4b03      	ldr	r3, [pc, #12]	; (7fc <delay_ms+0x1c>)
     7f0:	4798      	blx	r3
}
     7f2:	bd10      	pop	{r4, pc}
     7f4:	200009d4 	.word	0x200009d4
     7f8:	00000b1d 	.word	0x00000b1d
     7fc:	00001401 	.word	0x00001401

00000800 <i2c_m_sync_write>:

/**
 * \brief Sync version of I2C I/O write
 */
static int32_t i2c_m_sync_write(struct io_descriptor *io, const uint8_t *buf, const uint16_t n)
{
     800:	b510      	push	{r4, lr}
     802:	b084      	sub	sp, #16
     804:	0014      	movs	r4, r2
	struct i2c_m_sync_desc *i2c = CONTAINER_OF(io, struct i2c_m_sync_desc, io);
	struct _i2c_m_msg       msg;
	int32_t                 ret;

	msg.addr   = i2c->slave_addr;
     806:	ab01      	add	r3, sp, #4
     808:	3814      	subs	r0, #20
     80a:	8b82      	ldrh	r2, [r0, #28]
     80c:	801a      	strh	r2, [r3, #0]
	msg.len    = n;
     80e:	9402      	str	r4, [sp, #8]
	msg.flags  = I2C_M_STOP;
     810:	4a05      	ldr	r2, [pc, #20]	; (828 <i2c_m_sync_write+0x28>)
     812:	805a      	strh	r2, [r3, #2]
	msg.buffer = (uint8_t *)buf;
     814:	9103      	str	r1, [sp, #12]

	ret = _i2c_m_sync_transfer(&i2c->device, &msg);
     816:	0019      	movs	r1, r3
     818:	4b04      	ldr	r3, [pc, #16]	; (82c <i2c_m_sync_write+0x2c>)
     81a:	4798      	blx	r3

	if (ret) {
     81c:	2800      	cmp	r0, #0
     81e:	d100      	bne.n	822 <i2c_m_sync_write+0x22>
		return ret;
	}

	return n;
     820:	0020      	movs	r0, r4
}
     822:	b004      	add	sp, #16
     824:	bd10      	pop	{r4, pc}
     826:	46c0      	nop			; (mov r8, r8)
     828:	ffff8000 	.word	0xffff8000
     82c:	00000e61 	.word	0x00000e61

00000830 <i2c_m_sync_read>:
{
     830:	b510      	push	{r4, lr}
     832:	b084      	sub	sp, #16
     834:	0014      	movs	r4, r2
	msg.addr   = i2c->slave_addr;
     836:	ab01      	add	r3, sp, #4
     838:	3814      	subs	r0, #20
     83a:	8b82      	ldrh	r2, [r0, #28]
     83c:	801a      	strh	r2, [r3, #0]
	msg.len    = n;
     83e:	9402      	str	r4, [sp, #8]
	msg.flags  = I2C_M_STOP | I2C_M_RD;
     840:	4a05      	ldr	r2, [pc, #20]	; (858 <i2c_m_sync_read+0x28>)
     842:	805a      	strh	r2, [r3, #2]
	msg.buffer = buf;
     844:	9103      	str	r1, [sp, #12]
	ret = _i2c_m_sync_transfer(&i2c->device, &msg);
     846:	0019      	movs	r1, r3
     848:	4b04      	ldr	r3, [pc, #16]	; (85c <i2c_m_sync_read+0x2c>)
     84a:	4798      	blx	r3
	if (ret) {
     84c:	2800      	cmp	r0, #0
     84e:	d100      	bne.n	852 <i2c_m_sync_read+0x22>
	return n;
     850:	0020      	movs	r0, r4
}
     852:	b004      	add	sp, #16
     854:	bd10      	pop	{r4, pc}
     856:	46c0      	nop			; (mov r8, r8)
     858:	ffff8001 	.word	0xffff8001
     85c:	00000e61 	.word	0x00000e61

00000860 <i2c_m_sync_init>:

/**
 * \brief Sync version of i2c initialize
 */
int32_t i2c_m_sync_init(struct i2c_m_sync_desc *i2c, void *hw)
{
     860:	b570      	push	{r4, r5, r6, lr}
     862:	0004      	movs	r4, r0
     864:	000d      	movs	r5, r1
	int32_t init_status;
	ASSERT(i2c);
     866:	1e43      	subs	r3, r0, #1
     868:	4198      	sbcs	r0, r3
     86a:	b2c0      	uxtb	r0, r0
     86c:	225e      	movs	r2, #94	; 0x5e
     86e:	4907      	ldr	r1, [pc, #28]	; (88c <i2c_m_sync_init+0x2c>)
     870:	4b07      	ldr	r3, [pc, #28]	; (890 <i2c_m_sync_init+0x30>)
     872:	4798      	blx	r3

	init_status = _i2c_m_sync_init(&i2c->device, hw);
     874:	0029      	movs	r1, r5
     876:	0020      	movs	r0, r4
     878:	4b06      	ldr	r3, [pc, #24]	; (894 <i2c_m_sync_init+0x34>)
     87a:	4798      	blx	r3
	if (init_status) {
     87c:	2800      	cmp	r0, #0
     87e:	d103      	bne.n	888 <i2c_m_sync_init+0x28>
		return init_status;
	}

	/* Init I/O */
	i2c->io.read  = i2c_m_sync_read;
     880:	4b05      	ldr	r3, [pc, #20]	; (898 <i2c_m_sync_init+0x38>)
     882:	61a3      	str	r3, [r4, #24]
	i2c->io.write = i2c_m_sync_write;
     884:	4b05      	ldr	r3, [pc, #20]	; (89c <i2c_m_sync_init+0x3c>)
     886:	6163      	str	r3, [r4, #20]

	return ERR_NONE;
}
     888:	bd70      	pop	{r4, r5, r6, pc}
     88a:	46c0      	nop			; (mov r8, r8)
     88c:	000087c8 	.word	0x000087c8
     890:	00000ad9 	.word	0x00000ad9
     894:	00000dad 	.word	0x00000dad
     898:	00000831 	.word	0x00000831
     89c:	00000801 	.word	0x00000801

000008a0 <i2c_m_sync_enable>:

/**
 * \brief Sync version of i2c enable
 */
int32_t i2c_m_sync_enable(struct i2c_m_sync_desc *i2c)
{
     8a0:	b510      	push	{r4, lr}
	return _i2c_m_sync_enable(&i2c->device);
     8a2:	4b01      	ldr	r3, [pc, #4]	; (8a8 <i2c_m_sync_enable+0x8>)
     8a4:	4798      	blx	r3
}
     8a6:	bd10      	pop	{r4, pc}
     8a8:	00000ddd 	.word	0x00000ddd

000008ac <i2c_m_sync_set_slaveaddr>:
/**
 * \brief Sync version of i2c set slave address
 */
int32_t i2c_m_sync_set_slaveaddr(struct i2c_m_sync_desc *i2c, int16_t addr, int32_t addr_len)
{
	return i2c->slave_addr = (addr & 0x3ff) | (addr_len & I2C_M_TEN);
     8ac:	0589      	lsls	r1, r1, #22
     8ae:	0d89      	lsrs	r1, r1, #22
     8b0:	2380      	movs	r3, #128	; 0x80
     8b2:	00db      	lsls	r3, r3, #3
     8b4:	401a      	ands	r2, r3
     8b6:	430a      	orrs	r2, r1
     8b8:	8382      	strh	r2, [r0, #28]
}
     8ba:	0010      	movs	r0, r2
     8bc:	4770      	bx	lr
	...

000008c0 <i2c_m_sync_cmd_read>:

/**
 * \brief Sync version of i2c read command
 */
int32_t i2c_m_sync_cmd_read(struct i2c_m_sync_desc *i2c, uint8_t reg, uint8_t *buffer, uint8_t length)
{
     8c0:	b570      	push	{r4, r5, r6, lr}
     8c2:	b086      	sub	sp, #24
     8c4:	0004      	movs	r4, r0
     8c6:	0016      	movs	r6, r2
     8c8:	001d      	movs	r5, r3
     8ca:	466b      	mov	r3, sp
     8cc:	71d9      	strb	r1, [r3, #7]
     8ce:	3307      	adds	r3, #7
	struct _i2c_m_msg msg;
	int32_t           ret;

	msg.addr   = i2c->slave_addr;
     8d0:	a903      	add	r1, sp, #12
     8d2:	8b82      	ldrh	r2, [r0, #28]
     8d4:	800a      	strh	r2, [r1, #0]
	msg.len    = 1;
     8d6:	2201      	movs	r2, #1
     8d8:	604a      	str	r2, [r1, #4]
	msg.flags  = 0;
     8da:	2200      	movs	r2, #0
     8dc:	804a      	strh	r2, [r1, #2]
	msg.buffer = &reg;
     8de:	608b      	str	r3, [r1, #8]

	ret = _i2c_m_sync_transfer(&i2c->device, &msg);
     8e0:	4b07      	ldr	r3, [pc, #28]	; (900 <i2c_m_sync_cmd_read+0x40>)
     8e2:	4798      	blx	r3

	if (ret != 0) {
     8e4:	2800      	cmp	r0, #0
     8e6:	d001      	beq.n	8ec <i2c_m_sync_cmd_read+0x2c>
		/* error occurred */
		return ret;
	}

	return ERR_NONE;
}
     8e8:	b006      	add	sp, #24
     8ea:	bd70      	pop	{r4, r5, r6, pc}
	msg.flags  = I2C_M_STOP | I2C_M_RD;
     8ec:	a903      	add	r1, sp, #12
     8ee:	4b05      	ldr	r3, [pc, #20]	; (904 <i2c_m_sync_cmd_read+0x44>)
     8f0:	804b      	strh	r3, [r1, #2]
	msg.buffer = buffer;
     8f2:	608e      	str	r6, [r1, #8]
	msg.len    = length;
     8f4:	604d      	str	r5, [r1, #4]
	ret = _i2c_m_sync_transfer(&i2c->device, &msg);
     8f6:	0020      	movs	r0, r4
     8f8:	4b01      	ldr	r3, [pc, #4]	; (900 <i2c_m_sync_cmd_read+0x40>)
     8fa:	4798      	blx	r3
     8fc:	e7f4      	b.n	8e8 <i2c_m_sync_cmd_read+0x28>
     8fe:	46c0      	nop			; (mov r8, r8)
     900:	00000e61 	.word	0x00000e61
     904:	ffff8001 	.word	0xffff8001

00000908 <i2c_m_sync_transfer>:

/**
 * \brief Sync version of i2c transfer command
 */
int32_t i2c_m_sync_transfer(struct i2c_m_sync_desc *const i2c, struct _i2c_m_msg *msg)
{
     908:	b510      	push	{r4, lr}
	return _i2c_m_sync_transfer(&i2c->device, msg);
     90a:	4b01      	ldr	r3, [pc, #4]	; (910 <i2c_m_sync_transfer+0x8>)
     90c:	4798      	blx	r3
}
     90e:	bd10      	pop	{r4, pc}
     910:	00000e61 	.word	0x00000e61

00000914 <io_write>:

/**
 * \brief I/O write interface
 */
int32_t io_write(struct io_descriptor *const io_descr, const uint8_t *const buf, const uint16_t length)
{
     914:	b570      	push	{r4, r5, r6, lr}
     916:	0006      	movs	r6, r0
     918:	000c      	movs	r4, r1
     91a:	0015      	movs	r5, r2
	ASSERT(io_descr && buf);
     91c:	2800      	cmp	r0, #0
     91e:	d00d      	beq.n	93c <io_write+0x28>
     920:	0008      	movs	r0, r1
     922:	1e43      	subs	r3, r0, #1
     924:	4198      	sbcs	r0, r3
     926:	b2c0      	uxtb	r0, r0
     928:	2234      	movs	r2, #52	; 0x34
     92a:	4905      	ldr	r1, [pc, #20]	; (940 <io_write+0x2c>)
     92c:	4b05      	ldr	r3, [pc, #20]	; (944 <io_write+0x30>)
     92e:	4798      	blx	r3
	return io_descr->write(io_descr, buf, length);
     930:	6833      	ldr	r3, [r6, #0]
     932:	002a      	movs	r2, r5
     934:	0021      	movs	r1, r4
     936:	0030      	movs	r0, r6
     938:	4798      	blx	r3
}
     93a:	bd70      	pop	{r4, r5, r6, pc}
     93c:	2000      	movs	r0, #0
     93e:	e7f3      	b.n	928 <io_write+0x14>
     940:	000087e4 	.word	0x000087e4
     944:	00000ad9 	.word	0x00000ad9

00000948 <io_read>:

/**
 * \brief I/O read interface
 */
int32_t io_read(struct io_descriptor *const io_descr, uint8_t *const buf, const uint16_t length)
{
     948:	b570      	push	{r4, r5, r6, lr}
     94a:	0006      	movs	r6, r0
     94c:	000c      	movs	r4, r1
     94e:	0015      	movs	r5, r2
	ASSERT(io_descr && buf);
     950:	2800      	cmp	r0, #0
     952:	d00d      	beq.n	970 <io_read+0x28>
     954:	0008      	movs	r0, r1
     956:	1e43      	subs	r3, r0, #1
     958:	4198      	sbcs	r0, r3
     95a:	b2c0      	uxtb	r0, r0
     95c:	223d      	movs	r2, #61	; 0x3d
     95e:	4905      	ldr	r1, [pc, #20]	; (974 <io_read+0x2c>)
     960:	4b05      	ldr	r3, [pc, #20]	; (978 <io_read+0x30>)
     962:	4798      	blx	r3
	return io_descr->read(io_descr, buf, length);
     964:	6873      	ldr	r3, [r6, #4]
     966:	002a      	movs	r2, r5
     968:	0021      	movs	r1, r4
     96a:	0030      	movs	r0, r6
     96c:	4798      	blx	r3
}
     96e:	bd70      	pop	{r4, r5, r6, pc}
     970:	2000      	movs	r0, #0
     972:	e7f3      	b.n	95c <io_read+0x14>
     974:	000087e4 	.word	0x000087e4
     978:	00000ad9 	.word	0x00000ad9

0000097c <usart_sync_write>:
 * \param[in] length The number of bytes to write
 *
 * \return The number of bytes written.
 */
static int32_t usart_sync_write(struct io_descriptor *const io_descr, const uint8_t *const buf, const uint16_t length)
{
     97c:	b5f8      	push	{r3, r4, r5, r6, r7, lr}
     97e:	46ce      	mov	lr, r9
     980:	4647      	mov	r7, r8
     982:	b580      	push	{r7, lr}
     984:	0004      	movs	r4, r0
     986:	000f      	movs	r7, r1
     988:	4690      	mov	r8, r2
	uint32_t                      offset = 0;
	struct usart_sync_descriptor *descr  = CONTAINER_OF(io_descr, struct usart_sync_descriptor, io);

	ASSERT(io_descr && buf && length);
     98a:	2800      	cmp	r0, #0
     98c:	d026      	beq.n	9dc <usart_sync_write+0x60>
     98e:	2900      	cmp	r1, #0
     990:	d026      	beq.n	9e0 <usart_sync_write+0x64>
     992:	0010      	movs	r0, r2
     994:	1e43      	subs	r3, r0, #1
     996:	4198      	sbcs	r0, r3
     998:	22f1      	movs	r2, #241	; 0xf1
     99a:	4912      	ldr	r1, [pc, #72]	; (9e4 <usart_sync_write+0x68>)
     99c:	4b12      	ldr	r3, [pc, #72]	; (9e8 <usart_sync_write+0x6c>)
     99e:	4798      	blx	r3
	while (!_usart_sync_is_ready_to_send(&descr->device))
     9a0:	3408      	adds	r4, #8
     9a2:	4d12      	ldr	r5, [pc, #72]	; (9ec <usart_sync_write+0x70>)
     9a4:	0020      	movs	r0, r4
     9a6:	47a8      	blx	r5
     9a8:	2800      	cmp	r0, #0
     9aa:	d0fb      	beq.n	9a4 <usart_sync_write+0x28>
     9ac:	2600      	movs	r6, #0
		;
	do {
		_usart_sync_write_byte(&descr->device, buf[offset]);
     9ae:	4b10      	ldr	r3, [pc, #64]	; (9f0 <usart_sync_write+0x74>)
     9b0:	4699      	mov	r9, r3
		while (!_usart_sync_is_ready_to_send(&descr->device))
     9b2:	4d0e      	ldr	r5, [pc, #56]	; (9ec <usart_sync_write+0x70>)
		_usart_sync_write_byte(&descr->device, buf[offset]);
     9b4:	5db9      	ldrb	r1, [r7, r6]
     9b6:	0020      	movs	r0, r4
     9b8:	47c8      	blx	r9
		while (!_usart_sync_is_ready_to_send(&descr->device))
     9ba:	0020      	movs	r0, r4
     9bc:	47a8      	blx	r5
     9be:	2800      	cmp	r0, #0
     9c0:	d0fb      	beq.n	9ba <usart_sync_write+0x3e>
			;
	} while (++offset < length);
     9c2:	3601      	adds	r6, #1
     9c4:	4546      	cmp	r6, r8
     9c6:	d3f5      	bcc.n	9b4 <usart_sync_write+0x38>
	while (!_usart_sync_is_transmit_done(&descr->device))
     9c8:	4d0a      	ldr	r5, [pc, #40]	; (9f4 <usart_sync_write+0x78>)
     9ca:	0020      	movs	r0, r4
     9cc:	47a8      	blx	r5
     9ce:	2800      	cmp	r0, #0
     9d0:	d0fb      	beq.n	9ca <usart_sync_write+0x4e>
		;
	return (int32_t)offset;
}
     9d2:	0030      	movs	r0, r6
     9d4:	bc0c      	pop	{r2, r3}
     9d6:	4690      	mov	r8, r2
     9d8:	4699      	mov	r9, r3
     9da:	bdf8      	pop	{r3, r4, r5, r6, r7, pc}
	ASSERT(io_descr && buf && length);
     9dc:	2000      	movs	r0, #0
     9de:	e7db      	b.n	998 <usart_sync_write+0x1c>
     9e0:	2000      	movs	r0, #0
     9e2:	e7d9      	b.n	998 <usart_sync_write+0x1c>
     9e4:	000087f8 	.word	0x000087f8
     9e8:	00000ad9 	.word	0x00000ad9
     9ec:	00000d8d 	.word	0x00000d8d
     9f0:	00000d7d 	.word	0x00000d7d
     9f4:	00000d97 	.word	0x00000d97

000009f8 <usart_sync_read>:
 * \param[in] length The size of a buffer
 *
 * \return The number of bytes read.
 */
static int32_t usart_sync_read(struct io_descriptor *const io_descr, uint8_t *const buf, const uint16_t length)
{
     9f8:	b5f8      	push	{r3, r4, r5, r6, r7, lr}
     9fa:	46ce      	mov	lr, r9
     9fc:	4647      	mov	r7, r8
     9fe:	b580      	push	{r7, lr}
     a00:	0004      	movs	r4, r0
     a02:	000f      	movs	r7, r1
     a04:	4690      	mov	r8, r2
	uint32_t                      offset = 0;
	struct usart_sync_descriptor *descr  = CONTAINER_OF(io_descr, struct usart_sync_descriptor, io);

	ASSERT(io_descr && buf && length);
     a06:	2800      	cmp	r0, #0
     a08:	d01d      	beq.n	a46 <usart_sync_read+0x4e>
     a0a:	2900      	cmp	r1, #0
     a0c:	d01d      	beq.n	a4a <usart_sync_read+0x52>
     a0e:	0010      	movs	r0, r2
     a10:	1e43      	subs	r3, r0, #1
     a12:	4198      	sbcs	r0, r3
     a14:	2286      	movs	r2, #134	; 0x86
     a16:	0052      	lsls	r2, r2, #1
     a18:	490d      	ldr	r1, [pc, #52]	; (a50 <usart_sync_read+0x58>)
     a1a:	4b0e      	ldr	r3, [pc, #56]	; (a54 <usart_sync_read+0x5c>)
     a1c:	4798      	blx	r3
	uint32_t                      offset = 0;
     a1e:	2600      	movs	r6, #0
	do {
		while (!_usart_sync_is_byte_received(&descr->device))
     a20:	3408      	adds	r4, #8
     a22:	4d0d      	ldr	r5, [pc, #52]	; (a58 <usart_sync_read+0x60>)
			;
		buf[offset] = _usart_sync_read_byte(&descr->device);
     a24:	4b0d      	ldr	r3, [pc, #52]	; (a5c <usart_sync_read+0x64>)
     a26:	4699      	mov	r9, r3
		while (!_usart_sync_is_byte_received(&descr->device))
     a28:	0020      	movs	r0, r4
     a2a:	47a8      	blx	r5
     a2c:	2800      	cmp	r0, #0
     a2e:	d0fb      	beq.n	a28 <usart_sync_read+0x30>
		buf[offset] = _usart_sync_read_byte(&descr->device);
     a30:	0020      	movs	r0, r4
     a32:	47c8      	blx	r9
     a34:	55b8      	strb	r0, [r7, r6]
	} while (++offset < length);
     a36:	3601      	adds	r6, #1
     a38:	4546      	cmp	r6, r8
     a3a:	d3f5      	bcc.n	a28 <usart_sync_read+0x30>

	return (int32_t)offset;
}
     a3c:	0030      	movs	r0, r6
     a3e:	bc0c      	pop	{r2, r3}
     a40:	4690      	mov	r8, r2
     a42:	4699      	mov	r9, r3
     a44:	bdf8      	pop	{r3, r4, r5, r6, r7, pc}
	ASSERT(io_descr && buf && length);
     a46:	2000      	movs	r0, #0
     a48:	e7e4      	b.n	a14 <usart_sync_read+0x1c>
     a4a:	2000      	movs	r0, #0
     a4c:	e7e2      	b.n	a14 <usart_sync_read+0x1c>
     a4e:	46c0      	nop			; (mov r8, r8)
     a50:	000087f8 	.word	0x000087f8
     a54:	00000ad9 	.word	0x00000ad9
     a58:	00000da1 	.word	0x00000da1
     a5c:	00000d85 	.word	0x00000d85

00000a60 <usart_sync_init>:
{
     a60:	b570      	push	{r4, r5, r6, lr}
     a62:	0005      	movs	r5, r0
     a64:	000c      	movs	r4, r1
	ASSERT(descr && hw);
     a66:	2800      	cmp	r0, #0
     a68:	d013      	beq.n	a92 <usart_sync_init+0x32>
     a6a:	0008      	movs	r0, r1
     a6c:	1e43      	subs	r3, r0, #1
     a6e:	4198      	sbcs	r0, r3
     a70:	b2c0      	uxtb	r0, r0
     a72:	2234      	movs	r2, #52	; 0x34
     a74:	4908      	ldr	r1, [pc, #32]	; (a98 <usart_sync_init+0x38>)
     a76:	4b09      	ldr	r3, [pc, #36]	; (a9c <usart_sync_init+0x3c>)
     a78:	4798      	blx	r3
	init_status = _usart_sync_init(&descr->device, hw);
     a7a:	0028      	movs	r0, r5
     a7c:	3008      	adds	r0, #8
     a7e:	0021      	movs	r1, r4
     a80:	4b07      	ldr	r3, [pc, #28]	; (aa0 <usart_sync_init+0x40>)
     a82:	4798      	blx	r3
	if (init_status) {
     a84:	2800      	cmp	r0, #0
     a86:	d103      	bne.n	a90 <usart_sync_init+0x30>
	descr->io.read  = usart_sync_read;
     a88:	4b06      	ldr	r3, [pc, #24]	; (aa4 <usart_sync_init+0x44>)
     a8a:	606b      	str	r3, [r5, #4]
	descr->io.write = usart_sync_write;
     a8c:	4b06      	ldr	r3, [pc, #24]	; (aa8 <usart_sync_init+0x48>)
     a8e:	602b      	str	r3, [r5, #0]
}
     a90:	bd70      	pop	{r4, r5, r6, pc}
     a92:	2000      	movs	r0, #0
     a94:	e7ed      	b.n	a72 <usart_sync_init+0x12>
     a96:	46c0      	nop			; (mov r8, r8)
     a98:	000087f8 	.word	0x000087f8
     a9c:	00000ad9 	.word	0x00000ad9
     aa0:	00000d3d 	.word	0x00000d3d
     aa4:	000009f9 	.word	0x000009f9
     aa8:	0000097d 	.word	0x0000097d

00000aac <usart_sync_enable>:
{
     aac:	b510      	push	{r4, lr}
     aae:	0004      	movs	r4, r0
	ASSERT(descr);
     ab0:	1e43      	subs	r3, r0, #1
     ab2:	4198      	sbcs	r0, r3
     ab4:	b2c0      	uxtb	r0, r0
     ab6:	2253      	movs	r2, #83	; 0x53
     ab8:	4904      	ldr	r1, [pc, #16]	; (acc <usart_sync_enable+0x20>)
     aba:	4b05      	ldr	r3, [pc, #20]	; (ad0 <usart_sync_enable+0x24>)
     abc:	4798      	blx	r3
	_usart_sync_enable(&descr->device);
     abe:	0020      	movs	r0, r4
     ac0:	3008      	adds	r0, #8
     ac2:	4b04      	ldr	r3, [pc, #16]	; (ad4 <usart_sync_enable+0x28>)
     ac4:	4798      	blx	r3
}
     ac6:	2000      	movs	r0, #0
     ac8:	bd10      	pop	{r4, pc}
     aca:	46c0      	nop			; (mov r8, r8)
     acc:	000087f8 	.word	0x000087f8
     ad0:	00000ad9 	.word	0x00000ad9
     ad4:	00000d69 	.word	0x00000d69

00000ad8 <assert>:
/**
 * \brief Assert function
 */
void assert(const bool condition, const char *const file, const int line)
{
	if (!(condition)) {
     ad8:	2800      	cmp	r0, #0
     ada:	d100      	bne.n	ade <assert+0x6>
		__asm("BKPT #0");
     adc:	be00      	bkpt	0x0000
	}
	(void)file;
	(void)line;
}
     ade:	4770      	bx	lr

00000ae0 <_sbrk>:

/**
 * \brief Replacement of C library of _sbrk
 */
extern caddr_t _sbrk(int incr)
{
     ae0:	0003      	movs	r3, r0
	static unsigned char *heap = NULL;
	unsigned char *       prev_heap;

	if (heap == NULL) {
     ae2:	4a06      	ldr	r2, [pc, #24]	; (afc <_sbrk+0x1c>)
     ae4:	6812      	ldr	r2, [r2, #0]
     ae6:	2a00      	cmp	r2, #0
     ae8:	d004      	beq.n	af4 <_sbrk+0x14>
		heap = (unsigned char *)&_end;
	}
	prev_heap = heap;
     aea:	4a04      	ldr	r2, [pc, #16]	; (afc <_sbrk+0x1c>)
     aec:	6810      	ldr	r0, [r2, #0]

	heap += incr;
     aee:	18c3      	adds	r3, r0, r3
     af0:	6013      	str	r3, [r2, #0]

	return (caddr_t)prev_heap;
}
     af2:	4770      	bx	lr
		heap = (unsigned char *)&_end;
     af4:	4902      	ldr	r1, [pc, #8]	; (b00 <_sbrk+0x20>)
     af6:	4a01      	ldr	r2, [pc, #4]	; (afc <_sbrk+0x1c>)
     af8:	6011      	str	r1, [r2, #0]
     afa:	e7f6      	b.n	aea <_sbrk+0xa>
     afc:	200009d8 	.word	0x200009d8
     b00:	20002a98 	.word	0x20002a98

00000b04 <_close>:
 */
extern int _close(int file)
{
	(void)file;
	return -1;
}
     b04:	2001      	movs	r0, #1
     b06:	4240      	negs	r0, r0
     b08:	4770      	bx	lr

00000b0a <_fstat>:
 * \brief Replacement of C library of _fstat
 */
extern int _fstat(int file, struct stat *st)
{
	(void)file;
	st->st_mode = S_IFCHR;
     b0a:	2380      	movs	r3, #128	; 0x80
     b0c:	019b      	lsls	r3, r3, #6
     b0e:	604b      	str	r3, [r1, #4]

	return 0;
}
     b10:	2000      	movs	r0, #0
     b12:	4770      	bx	lr

00000b14 <_isatty>:
 */
extern int _isatty(int file)
{
	(void)file;
	return 1;
}
     b14:	2001      	movs	r0, #1
     b16:	4770      	bx	lr

00000b18 <_lseek>:
 */
extern int _lseek(int file, int ptr, int dir)
{
	(void)file, (void)ptr, (void)dir;
	return 0;
}
     b18:	2000      	movs	r0, #0
     b1a:	4770      	bx	lr

00000b1c <_get_cycles_for_ms>:
{
	switch (power) {
	case 8:
		return (ms * (freq / 100000)) * 100;
	case 7:
		return (ms * (freq / 10000)) * 10;
     b1c:	23fa      	movs	r3, #250	; 0xfa
     b1e:	015b      	lsls	r3, r3, #5
     b20:	4358      	muls	r0, r3
 * \brief Retrieve the amount of cycles to delay for the given amount of ms
 */
uint32_t _get_cycles_for_ms(const uint16_t ms)
{
	return _get_cycles_for_ms_internal(ms, CONF_CPU_FREQUENCY, CPU_FREQ_POWER);
}
     b22:	4770      	bx	lr

00000b24 <_init_chip>:

/**
 * \brief Initialize the hardware abstraction layer
 */
void _init_chip(void)
{
     b24:	b510      	push	{r4, lr}
}

static inline void hri_nvmctrl_set_CTRLB_RWS_bf(const void *const hw, hri_nvmctrl_ctrlb_reg_t mask)
{
	NVMCTRL_CRITICAL_SECTION_ENTER();
	((Nvmctrl *)hw)->CTRLB.reg |= NVMCTRL_CTRLB_RWS(mask);
     b26:	4b06      	ldr	r3, [pc, #24]	; (b40 <_init_chip+0x1c>)
     b28:	685a      	ldr	r2, [r3, #4]
     b2a:	605a      	str	r2, [r3, #4]
	hri_nvmctrl_set_CTRLB_RWS_bf(NVMCTRL, CONF_NVM_WAIT_STATE);

	_pm_init();
     b2c:	4b05      	ldr	r3, [pc, #20]	; (b44 <_init_chip+0x20>)
     b2e:	4798      	blx	r3
	_sysctrl_init_sources();
     b30:	4b05      	ldr	r3, [pc, #20]	; (b48 <_init_chip+0x24>)
     b32:	4798      	blx	r3
#if _GCLK_INIT_1ST
	_gclk_init_generators_by_fref(_GCLK_INIT_1ST);
#endif
	_sysctrl_init_referenced_generators();
     b34:	4b05      	ldr	r3, [pc, #20]	; (b4c <_init_chip+0x28>)
     b36:	4798      	blx	r3
	_gclk_init_generators_by_fref(_GCLK_INIT_LAST);
     b38:	20ff      	movs	r0, #255	; 0xff
     b3a:	4b05      	ldr	r3, [pc, #20]	; (b50 <_init_chip+0x2c>)
     b3c:	4798      	blx	r3
#if CONF_DMAC_ENABLE
	_pm_enable_bus_clock(PM_BUS_AHB, DMAC);
	_pm_enable_bus_clock(PM_BUS_APBB, DMAC);
	_dma_init();
#endif
}
     b3e:	bd10      	pop	{r4, pc}
     b40:	41004000 	.word	0x41004000
     b44:	00000b75 	.word	0x00000b75
     b48:	00001399 	.word	0x00001399
     b4c:	000013dd 	.word	0x000013dd
     b50:	00000b55 	.word	0x00000b55

00000b54 <_gclk_init_generators_by_fref>:

void _gclk_init_generators_by_fref(uint32_t bm)
{

#if CONF_GCLK_GENERATOR_0_CONFIG == 1
	if (bm & (1ul << 0)) {
     b54:	07c3      	lsls	r3, r0, #31
     b56:	d50a      	bpl.n	b6e <_gclk_init_generators_by_fref+0x1a>
}

static inline void hri_gclk_write_GENDIV_reg(const void *const hw, hri_gclk_gendiv_reg_t data)
{
	GCLK_CRITICAL_SECTION_ENTER();
	((Gclk *)hw)->GENDIV.reg = data;
     b58:	4b05      	ldr	r3, [pc, #20]	; (b70 <_gclk_init_generators_by_fref+0x1c>)
     b5a:	2280      	movs	r2, #128	; 0x80
     b5c:	0052      	lsls	r2, r2, #1
     b5e:	609a      	str	r2, [r3, #8]
	((Gclk *)hw)->GENCTRL.reg = data;
     b60:	2283      	movs	r2, #131	; 0x83
     b62:	0252      	lsls	r2, r2, #9
     b64:	605a      	str	r2, [r3, #4]
	while (((const Gclk *)hw)->STATUS.bit.SYNCBUSY)
     b66:	001a      	movs	r2, r3
     b68:	7853      	ldrb	r3, [r2, #1]
     b6a:	09db      	lsrs	r3, r3, #7
     b6c:	d1fc      	bne.n	b68 <_gclk_init_generators_by_fref+0x14>
		        | (CONF_GCLK_GEN_8_DIVSEL << GCLK_GENCTRL_DIVSEL_Pos) | (CONF_GCLK_GEN_8_OE << GCLK_GENCTRL_OE_Pos)
		        | (CONF_GCLK_GEN_8_OOV << GCLK_GENCTRL_OOV_Pos) | (CONF_GCLK_GEN_8_IDC << GCLK_GENCTRL_IDC_Pos)
		        | (CONF_GCLK_GENERATOR_8_CONFIG << GCLK_GENCTRL_GENEN_Pos) | CONF_GCLK_GEN_8_SRC | GCLK_GENCTRL_ID(8));
	}
#endif
}
     b6e:	4770      	bx	lr
     b70:	40000c00 	.word	0x40000c00

00000b74 <_pm_init>:
}

static inline void hri_pm_set_CPUSEL_CPUDIV_bf(const void *const hw, hri_pm_cpusel_reg_t mask)
{
	PM_CRITICAL_SECTION_ENTER();
	((Pm *)hw)->CPUSEL.reg |= PM_CPUSEL_CPUDIV(mask);
     b74:	4b06      	ldr	r3, [pc, #24]	; (b90 <_pm_init+0x1c>)
     b76:	7a1a      	ldrb	r2, [r3, #8]
     b78:	b2d2      	uxtb	r2, r2
     b7a:	721a      	strb	r2, [r3, #8]
}

static inline void hri_pm_set_APBASEL_APBADIV_bf(const void *const hw, hri_pm_apbasel_reg_t mask)
{
	PM_CRITICAL_SECTION_ENTER();
	((Pm *)hw)->APBASEL.reg |= PM_APBASEL_APBADIV(mask);
     b7c:	7a5a      	ldrb	r2, [r3, #9]
     b7e:	b2d2      	uxtb	r2, r2
     b80:	725a      	strb	r2, [r3, #9]
}

static inline void hri_pm_set_APBBSEL_APBBDIV_bf(const void *const hw, hri_pm_apbbsel_reg_t mask)
{
	PM_CRITICAL_SECTION_ENTER();
	((Pm *)hw)->APBBSEL.reg |= PM_APBBSEL_APBBDIV(mask);
     b82:	7a9a      	ldrb	r2, [r3, #10]
     b84:	b2d2      	uxtb	r2, r2
     b86:	729a      	strb	r2, [r3, #10]
}

static inline void hri_pm_set_APBCSEL_APBCDIV_bf(const void *const hw, hri_pm_apbcsel_reg_t mask)
{
	PM_CRITICAL_SECTION_ENTER();
	((Pm *)hw)->APBCSEL.reg |= PM_APBCSEL_APBCDIV(mask);
     b88:	7ada      	ldrb	r2, [r3, #11]
     b8a:	b2d2      	uxtb	r2, r2
     b8c:	72da      	strb	r2, [r3, #11]
{
	hri_pm_set_CPUSEL_CPUDIV_bf(PM, CONF_CPU_DIV);
	hri_pm_set_APBASEL_APBADIV_bf(PM, CONF_APBA_DIV);
	hri_pm_set_APBBSEL_APBBDIV_bf(PM, CONF_APBB_DIV);
	hri_pm_set_APBCSEL_APBCDIV_bf(PM, CONF_APBC_DIV);
}
     b8e:	4770      	bx	lr
     b90:	40000400 	.word	0x40000400

00000b94 <_get_i2cm_index>:
 * \param[in] hw The pointer to hardware instance

 * \return The ordinal number of the given sercom hardware instance
 */
static int8_t _get_i2cm_index(const void *const hw)
{
     b94:	b510      	push	{r4, lr}
	return ((uint32_t)hw - (uint32_t)SERCOM0) >> 10;
     b96:	4b08      	ldr	r3, [pc, #32]	; (bb8 <_get_i2cm_index+0x24>)
     b98:	469c      	mov	ip, r3
     b9a:	4460      	add	r0, ip
     b9c:	0a80      	lsrs	r0, r0, #10
	uint8_t sercom_offset = _sercom_get_hardware_index(hw);
	uint8_t i;

	for (i = 0; i < ARRAY_SIZE(_i2cms); i++) {
		if (_i2cms[i].number == sercom_offset) {
     b9e:	b2c0      	uxtb	r0, r0
     ba0:	2800      	cmp	r0, #0
     ba2:	d007      	beq.n	bb4 <_get_i2cm_index+0x20>
			return i;
		}
	}

	ASSERT(false);
     ba4:	22e6      	movs	r2, #230	; 0xe6
     ba6:	0092      	lsls	r2, r2, #2
     ba8:	4904      	ldr	r1, [pc, #16]	; (bbc <_get_i2cm_index+0x28>)
     baa:	2000      	movs	r0, #0
     bac:	4b04      	ldr	r3, [pc, #16]	; (bc0 <_get_i2cm_index+0x2c>)
     bae:	4798      	blx	r3
	return -1;
     bb0:	2001      	movs	r0, #1
     bb2:	4240      	negs	r0, r0
}
     bb4:	bd10      	pop	{r4, pc}
     bb6:	46c0      	nop			; (mov r8, r8)
     bb8:	bdfff800 	.word	0xbdfff800
     bbc:	0000882c 	.word	0x0000882c
     bc0:	00000ad9 	.word	0x00000ad9

00000bc4 <_i2c_m_sync_init_impl>:
	}
	return ERR_NONE;
}

static int32_t _i2c_m_sync_init_impl(struct _i2c_m_service *const service, void *const hw)
{
     bc4:	b570      	push	{r4, r5, r6, lr}
     bc6:	0005      	movs	r5, r0
     bc8:	000c      	movs	r4, r1
	uint8_t i = _get_i2cm_index(hw);
     bca:	0008      	movs	r0, r1
     bcc:	4b31      	ldr	r3, [pc, #196]	; (c94 <_i2c_m_sync_init_impl+0xd0>)
     bce:	4798      	blx	r3
     bd0:	b2c0      	uxtb	r0, r0
	};
}

static inline bool hri_sercomi2cm_is_syncing(const void *const hw, hri_sercomi2cm_syncbusy_reg_t reg)
{
	return ((Sercom *)hw)->I2CM.SYNCBUSY.reg & reg;
     bd2:	69e3      	ldr	r3, [r4, #28]

	if (!hri_sercomi2cm_is_syncing(hw, SERCOM_I2CM_SYNCBUSY_SWRST)) {
     bd4:	07db      	lsls	r3, r3, #31
     bd6:	d421      	bmi.n	c1c <_i2c_m_sync_init_impl+0x58>
		uint32_t mode = _i2cms[i].ctrl_a & SERCOM_I2CM_CTRLA_MODE_Msk;
     bd8:	0043      	lsls	r3, r0, #1
     bda:	181b      	adds	r3, r3, r0
     bdc:	00db      	lsls	r3, r3, #3
     bde:	4a2e      	ldr	r2, [pc, #184]	; (c98 <_i2c_m_sync_init_impl+0xd4>)
     be0:	18d3      	adds	r3, r2, r3
     be2:	6859      	ldr	r1, [r3, #4]
     be4:	231c      	movs	r3, #28
     be6:	4019      	ands	r1, r3
	while (((Sercom *)hw)->I2CM.SYNCBUSY.reg & reg) {
     be8:	2203      	movs	r2, #3
     bea:	69e3      	ldr	r3, [r4, #28]
     bec:	421a      	tst	r2, r3
     bee:	d1fc      	bne.n	bea <_i2c_m_sync_init_impl+0x26>
static inline hri_sercomi2cm_ctrla_reg_t hri_sercomi2cm_get_CTRLA_reg(const void *const          hw,
                                                                      hri_sercomi2cm_ctrla_reg_t mask)
{
	uint32_t tmp;
	hri_sercomi2cm_wait_for_sync(hw, SERCOM_I2CM_SYNCBUSY_SWRST | SERCOM_I2CM_SYNCBUSY_ENABLE);
	tmp = ((Sercom *)hw)->I2CM.CTRLA.reg;
     bf0:	6823      	ldr	r3, [r4, #0]
		if (hri_sercomi2cm_get_CTRLA_reg(hw, SERCOM_I2CM_CTRLA_ENABLE)) {
     bf2:	079b      	lsls	r3, r3, #30
     bf4:	d50b      	bpl.n	c0e <_i2c_m_sync_init_impl+0x4a>
	((Sercom *)hw)->I2CM.CTRLA.reg &= ~SERCOM_I2CM_CTRLA_ENABLE;
     bf6:	6823      	ldr	r3, [r4, #0]
     bf8:	2202      	movs	r2, #2
     bfa:	4393      	bics	r3, r2
     bfc:	6023      	str	r3, [r4, #0]
	while (((Sercom *)hw)->I2CM.SYNCBUSY.reg & reg) {
     bfe:	3201      	adds	r2, #1
     c00:	69e3      	ldr	r3, [r4, #28]
     c02:	421a      	tst	r2, r3
     c04:	d1fc      	bne.n	c00 <_i2c_m_sync_init_impl+0x3c>
     c06:	2202      	movs	r2, #2
     c08:	69e3      	ldr	r3, [r4, #28]
     c0a:	421a      	tst	r2, r3
     c0c:	d1fc      	bne.n	c08 <_i2c_m_sync_init_impl+0x44>
			hri_sercomi2cm_clear_CTRLA_ENABLE_bit(hw);
			hri_sercomi2cm_wait_for_sync(hw, SERCOM_I2CM_SYNCBUSY_ENABLE);
		}
		hri_sercomi2cm_write_CTRLA_reg(hw, SERCOM_I2CM_CTRLA_SWRST | mode);
     c0e:	2301      	movs	r3, #1
     c10:	430b      	orrs	r3, r1
}

static inline void hri_sercomi2cm_write_CTRLA_reg(const void *const hw, hri_sercomi2cm_ctrla_reg_t data)
{
	SERCOM_CRITICAL_SECTION_ENTER();
	((Sercom *)hw)->I2CM.CTRLA.reg = data;
     c12:	6023      	str	r3, [r4, #0]
	while (((Sercom *)hw)->I2CM.SYNCBUSY.reg & reg) {
     c14:	2203      	movs	r2, #3
     c16:	69e3      	ldr	r3, [r4, #28]
     c18:	421a      	tst	r2, r3
     c1a:	d1fc      	bne.n	c16 <_i2c_m_sync_init_impl+0x52>
     c1c:	2201      	movs	r2, #1
     c1e:	69e3      	ldr	r3, [r4, #28]
     c20:	421a      	tst	r2, r3
     c22:	d1fc      	bne.n	c1e <_i2c_m_sync_init_impl+0x5a>
	}
	hri_sercomi2cm_wait_for_sync(hw, SERCOM_I2CM_SYNCBUSY_SWRST);

	hri_sercomi2cm_write_CTRLA_reg(hw, _i2cms[i].ctrl_a);
     c24:	0043      	lsls	r3, r0, #1
     c26:	181b      	adds	r3, r3, r0
     c28:	00db      	lsls	r3, r3, #3
     c2a:	4a1b      	ldr	r2, [pc, #108]	; (c98 <_i2c_m_sync_init_impl+0xd4>)
     c2c:	18d3      	adds	r3, r2, r3
     c2e:	6859      	ldr	r1, [r3, #4]
	((Sercom *)hw)->I2CM.CTRLA.reg = data;
     c30:	6021      	str	r1, [r4, #0]
	while (((Sercom *)hw)->I2CM.SYNCBUSY.reg & reg) {
     c32:	2203      	movs	r2, #3
     c34:	69e3      	ldr	r3, [r4, #28]
     c36:	421a      	tst	r2, r3
     c38:	d1fc      	bne.n	c34 <_i2c_m_sync_init_impl+0x70>
	hri_sercomi2cm_write_CTRLB_reg(hw, _i2cms[i].ctrl_b);
     c3a:	0043      	lsls	r3, r0, #1
     c3c:	181b      	adds	r3, r3, r0
     c3e:	00db      	lsls	r3, r3, #3
     c40:	4a15      	ldr	r2, [pc, #84]	; (c98 <_i2c_m_sync_init_impl+0xd4>)
     c42:	18d3      	adds	r3, r2, r3
     c44:	689b      	ldr	r3, [r3, #8]
}

static inline void hri_sercomi2cm_write_CTRLB_reg(const void *const hw, hri_sercomi2cm_ctrlb_reg_t data)
{
	SERCOM_CRITICAL_SECTION_ENTER();
	((Sercom *)hw)->I2CM.CTRLB.reg = data;
     c46:	6063      	str	r3, [r4, #4]
	while (((Sercom *)hw)->I2CM.SYNCBUSY.reg & reg) {
     c48:	2204      	movs	r2, #4
     c4a:	69e3      	ldr	r3, [r4, #28]
     c4c:	421a      	tst	r2, r3
     c4e:	d1fc      	bne.n	c4a <_i2c_m_sync_init_impl+0x86>
	hri_sercomi2cm_write_BAUD_reg(hw, _i2cms[i].baud);
     c50:	0043      	lsls	r3, r0, #1
     c52:	181b      	adds	r3, r3, r0
     c54:	00db      	lsls	r3, r3, #3
     c56:	4a10      	ldr	r2, [pc, #64]	; (c98 <_i2c_m_sync_init_impl+0xd4>)
     c58:	18d3      	adds	r3, r2, r3
     c5a:	68db      	ldr	r3, [r3, #12]
}

static inline void hri_sercomi2cm_write_BAUD_reg(const void *const hw, hri_sercomi2cm_baud_reg_t data)
{
	SERCOM_CRITICAL_SECTION_ENTER();
	((Sercom *)hw)->I2CM.BAUD.reg = data;
     c5c:	60e3      	str	r3, [r4, #12]

	service->mode = (_i2cms[i].ctrl_a & SERCOM_I2CM_CTRLA_SPEED_Msk) >> SERCOM_I2CM_CTRLA_SPEED_Pos;
     c5e:	0189      	lsls	r1, r1, #6
     c60:	0f89      	lsrs	r1, r1, #30
     c62:	81a9      	strh	r1, [r5, #12]

static inline void hri_sercomi2cm_write_ADDR_HS_bit(const void *const hw, bool value)
{
	uint32_t tmp;
	SERCOM_CRITICAL_SECTION_ENTER();
	tmp = ((Sercom *)hw)->I2CM.ADDR.reg;
     c64:	6a63      	ldr	r3, [r4, #36]	; 0x24
	tmp &= ~SERCOM_I2CM_ADDR_HS;
     c66:	4e0d      	ldr	r6, [pc, #52]	; (c9c <_i2c_m_sync_init_impl+0xd8>)
     c68:	401e      	ands	r6, r3
	hri_sercomi2cm_write_ADDR_HS_bit(hw, service->mode < I2C_HS ? 0 : 1);
     c6a:	2301      	movs	r3, #1
     c6c:	428b      	cmp	r3, r1
     c6e:	419b      	sbcs	r3, r3
     c70:	425b      	negs	r3, r3
	tmp |= value << SERCOM_I2CM_ADDR_HS_Pos;
     c72:	039b      	lsls	r3, r3, #14
     c74:	4333      	orrs	r3, r6
	((Sercom *)hw)->I2CM.ADDR.reg = tmp;
     c76:	6263      	str	r3, [r4, #36]	; 0x24
	while (((Sercom *)hw)->I2CM.SYNCBUSY.reg & reg) {
     c78:	2204      	movs	r2, #4
     c7a:	69e3      	ldr	r3, [r4, #28]
     c7c:	421a      	tst	r2, r3
     c7e:	d1fc      	bne.n	c7a <_i2c_m_sync_init_impl+0xb6>

	service->trise = _i2cms[i].trise;
     c80:	0043      	lsls	r3, r0, #1
     c82:	1818      	adds	r0, r3, r0
     c84:	00c0      	lsls	r0, r0, #3
     c86:	4b04      	ldr	r3, [pc, #16]	; (c98 <_i2c_m_sync_init_impl+0xd4>)
     c88:	1818      	adds	r0, r3, r0
     c8a:	8a43      	ldrh	r3, [r0, #18]
     c8c:	81eb      	strh	r3, [r5, #14]

	return ERR_NONE;
}
     c8e:	2000      	movs	r0, #0
     c90:	bd70      	pop	{r4, r5, r6, pc}
     c92:	46c0      	nop			; (mov r8, r8)
     c94:	00000b95 	.word	0x00000b95
     c98:	00008814 	.word	0x00008814
     c9c:	ffffbfff 	.word	0xffffbfff

00000ca0 <_usart_init>:
{
     ca0:	b510      	push	{r4, lr}
     ca2:	0004      	movs	r4, r0
	return ((uint32_t)hw - (uint32_t)SERCOM0) >> 10;
     ca4:	4b1f      	ldr	r3, [pc, #124]	; (d24 <_usart_init+0x84>)
     ca6:	18c3      	adds	r3, r0, r3
     ca8:	0a9b      	lsrs	r3, r3, #10
		if (_usarts[i].number == sercom_offset) {
     caa:	b2db      	uxtb	r3, r3
     cac:	2b03      	cmp	r3, #3
     cae:	d004      	beq.n	cba <_usart_init+0x1a>
	ASSERT(false);
     cb0:	4a1d      	ldr	r2, [pc, #116]	; (d28 <_usart_init+0x88>)
     cb2:	491e      	ldr	r1, [pc, #120]	; (d2c <_usart_init+0x8c>)
     cb4:	2000      	movs	r0, #0
     cb6:	4b1e      	ldr	r3, [pc, #120]	; (d30 <_usart_init+0x90>)
     cb8:	4798      	blx	r3
	return ((Sercom *)hw)->USART.SYNCBUSY.reg & reg;
     cba:	69e3      	ldr	r3, [r4, #28]
	if (!hri_sercomusart_is_syncing(hw, SERCOM_USART_SYNCBUSY_SWRST)) {
     cbc:	07db      	lsls	r3, r3, #31
     cbe:	d418      	bmi.n	cf2 <_usart_init+0x52>
	while (((Sercom *)hw)->USART.SYNCBUSY.reg & reg) {
     cc0:	2203      	movs	r2, #3
     cc2:	69e3      	ldr	r3, [r4, #28]
     cc4:	421a      	tst	r2, r3
     cc6:	d1fc      	bne.n	cc2 <_usart_init+0x22>
	tmp = ((Sercom *)hw)->USART.CTRLA.reg;
     cc8:	6823      	ldr	r3, [r4, #0]
		if (hri_sercomusart_get_CTRLA_reg(hw, SERCOM_USART_CTRLA_ENABLE)) {
     cca:	079b      	lsls	r3, r3, #30
     ccc:	d50b      	bpl.n	ce6 <_usart_init+0x46>
	((Sercom *)hw)->USART.CTRLA.reg &= ~SERCOM_USART_CTRLA_ENABLE;
     cce:	6823      	ldr	r3, [r4, #0]
     cd0:	2202      	movs	r2, #2
     cd2:	4393      	bics	r3, r2
     cd4:	6023      	str	r3, [r4, #0]
	while (((Sercom *)hw)->USART.SYNCBUSY.reg & reg) {
     cd6:	3201      	adds	r2, #1
     cd8:	69e3      	ldr	r3, [r4, #28]
     cda:	421a      	tst	r2, r3
     cdc:	d1fc      	bne.n	cd8 <_usart_init+0x38>
     cde:	2202      	movs	r2, #2
     ce0:	69e3      	ldr	r3, [r4, #28]
     ce2:	421a      	tst	r2, r3
     ce4:	d1fc      	bne.n	ce0 <_usart_init+0x40>
	((Sercom *)hw)->USART.CTRLA.reg = data;
     ce6:	2305      	movs	r3, #5
     ce8:	6023      	str	r3, [r4, #0]
	while (((Sercom *)hw)->USART.SYNCBUSY.reg & reg) {
     cea:	2203      	movs	r2, #3
     cec:	69e3      	ldr	r3, [r4, #28]
     cee:	421a      	tst	r2, r3
     cf0:	d1fc      	bne.n	cec <_usart_init+0x4c>
     cf2:	2201      	movs	r2, #1
     cf4:	69e3      	ldr	r3, [r4, #28]
     cf6:	421a      	tst	r2, r3
     cf8:	d1fc      	bne.n	cf4 <_usart_init+0x54>
	((Sercom *)hw)->USART.CTRLA.reg = data;
     cfa:	4b0e      	ldr	r3, [pc, #56]	; (d34 <_usart_init+0x94>)
     cfc:	6023      	str	r3, [r4, #0]
	while (((Sercom *)hw)->USART.SYNCBUSY.reg & reg) {
     cfe:	2203      	movs	r2, #3
     d00:	69e3      	ldr	r3, [r4, #28]
     d02:	421a      	tst	r2, r3
     d04:	d1fc      	bne.n	d00 <_usart_init+0x60>
	((Sercom *)hw)->USART.CTRLB.reg = data;
     d06:	23c0      	movs	r3, #192	; 0xc0
     d08:	029b      	lsls	r3, r3, #10
     d0a:	6063      	str	r3, [r4, #4]
	while (((Sercom *)hw)->USART.SYNCBUSY.reg & reg) {
     d0c:	2207      	movs	r2, #7
     d0e:	69e3      	ldr	r3, [r4, #28]
     d10:	421a      	tst	r2, r3
     d12:	d1fc      	bne.n	d0e <_usart_init+0x6e>
	((Sercom *)hw)->USART.BAUD.reg = data;
     d14:	4b08      	ldr	r3, [pc, #32]	; (d38 <_usart_init+0x98>)
     d16:	81a3      	strh	r3, [r4, #12]
	((Sercom *)hw)->USART.RXPL.reg = data;
     d18:	2300      	movs	r3, #0
     d1a:	73a3      	strb	r3, [r4, #14]
}

static inline void hri_sercomusart_write_DBGCTRL_reg(const void *const hw, hri_sercomusart_dbgctrl_reg_t data)
{
	SERCOM_CRITICAL_SECTION_ENTER();
	((Sercom *)hw)->USART.DBGCTRL.reg = data;
     d1c:	2230      	movs	r2, #48	; 0x30
     d1e:	54a3      	strb	r3, [r4, r2]
}
     d20:	2000      	movs	r0, #0
     d22:	bd10      	pop	{r4, pc}
     d24:	bdfff800 	.word	0xbdfff800
     d28:	0000023a 	.word	0x0000023a
     d2c:	0000882c 	.word	0x0000882c
     d30:	00000ad9 	.word	0x00000ad9
     d34:	40100004 	.word	0x40100004
     d38:	ffffc504 	.word	0xffffc504

00000d3c <_usart_sync_init>:
{
     d3c:	b570      	push	{r4, r5, r6, lr}
     d3e:	0005      	movs	r5, r0
     d40:	000c      	movs	r4, r1
	ASSERT(device);
     d42:	1e43      	subs	r3, r0, #1
     d44:	4198      	sbcs	r0, r3
     d46:	b2c0      	uxtb	r0, r0
     d48:	22b4      	movs	r2, #180	; 0xb4
     d4a:	4904      	ldr	r1, [pc, #16]	; (d5c <_usart_sync_init+0x20>)
     d4c:	4b04      	ldr	r3, [pc, #16]	; (d60 <_usart_sync_init+0x24>)
     d4e:	4798      	blx	r3
	device->hw = hw;
     d50:	602c      	str	r4, [r5, #0]
	return _usart_init(hw);
     d52:	0020      	movs	r0, r4
     d54:	4b03      	ldr	r3, [pc, #12]	; (d64 <_usart_sync_init+0x28>)
     d56:	4798      	blx	r3
}
     d58:	bd70      	pop	{r4, r5, r6, pc}
     d5a:	46c0      	nop			; (mov r8, r8)
     d5c:	0000882c 	.word	0x0000882c
     d60:	00000ad9 	.word	0x00000ad9
     d64:	00000ca1 	.word	0x00000ca1

00000d68 <_usart_sync_enable>:
	hri_sercomusart_set_CTRLA_ENABLE_bit(device->hw);
     d68:	6802      	ldr	r2, [r0, #0]
	((Sercom *)hw)->USART.CTRLA.reg |= SERCOM_USART_CTRLA_ENABLE;
     d6a:	6813      	ldr	r3, [r2, #0]
     d6c:	2102      	movs	r1, #2
     d6e:	430b      	orrs	r3, r1
     d70:	6013      	str	r3, [r2, #0]
	while (((Sercom *)hw)->USART.SYNCBUSY.reg & reg) {
     d72:	3101      	adds	r1, #1
     d74:	69d3      	ldr	r3, [r2, #28]
     d76:	4219      	tst	r1, r3
     d78:	d1fc      	bne.n	d74 <_usart_sync_enable+0xc>
}
     d7a:	4770      	bx	lr

00000d7c <_usart_sync_write_byte>:
	hri_sercomusart_write_DATA_reg(device->hw, data);
     d7c:	6803      	ldr	r3, [r0, #0]
     d7e:	b289      	uxth	r1, r1
	((Sercom *)hw)->USART.DATA.reg = data;
     d80:	8519      	strh	r1, [r3, #40]	; 0x28
}
     d82:	4770      	bx	lr

00000d84 <_usart_sync_read_byte>:
	return hri_sercomusart_read_DATA_reg(device->hw);
     d84:	6803      	ldr	r3, [r0, #0]
	return ((Sercom *)hw)->USART.DATA.reg;
     d86:	8d18      	ldrh	r0, [r3, #40]	; 0x28
     d88:	b2c0      	uxtb	r0, r0
}
     d8a:	4770      	bx	lr

00000d8c <_usart_sync_is_ready_to_send>:
	return hri_sercomusart_get_interrupt_DRE_bit(device->hw);
     d8c:	6803      	ldr	r3, [r0, #0]
	return (((Sercom *)hw)->USART.INTFLAG.reg & SERCOM_USART_INTFLAG_DRE) >> SERCOM_USART_INTFLAG_DRE_Pos;
     d8e:	7e18      	ldrb	r0, [r3, #24]
     d90:	2301      	movs	r3, #1
     d92:	4018      	ands	r0, r3
}
     d94:	4770      	bx	lr

00000d96 <_usart_sync_is_transmit_done>:
	return hri_sercomusart_get_interrupt_TXC_bit(device->hw);
     d96:	6803      	ldr	r3, [r0, #0]
	return (((Sercom *)hw)->USART.INTFLAG.reg & SERCOM_USART_INTFLAG_TXC) >> SERCOM_USART_INTFLAG_TXC_Pos;
     d98:	7e18      	ldrb	r0, [r3, #24]
     d9a:	0780      	lsls	r0, r0, #30
     d9c:	0fc0      	lsrs	r0, r0, #31
}
     d9e:	4770      	bx	lr

00000da0 <_usart_sync_is_byte_received>:
	return hri_sercomusart_get_interrupt_RXC_bit(device->hw);
     da0:	6803      	ldr	r3, [r0, #0]
	return (((Sercom *)hw)->USART.INTFLAG.reg & SERCOM_USART_INTFLAG_RXC) >> SERCOM_USART_INTFLAG_RXC_Pos;
     da2:	7e18      	ldrb	r0, [r3, #24]
     da4:	0740      	lsls	r0, r0, #29
     da6:	0fc0      	lsrs	r0, r0, #31
}
     da8:	4770      	bx	lr
	...

00000dac <_i2c_m_sync_init>:
{
     dac:	b570      	push	{r4, r5, r6, lr}
     dae:	0004      	movs	r4, r0
     db0:	000d      	movs	r5, r1
	ASSERT(i2c_dev);
     db2:	1e43      	subs	r3, r0, #1
     db4:	4198      	sbcs	r0, r3
     db6:	b2c0      	uxtb	r0, r0
     db8:	4a04      	ldr	r2, [pc, #16]	; (dcc <_i2c_m_sync_init+0x20>)
     dba:	4905      	ldr	r1, [pc, #20]	; (dd0 <_i2c_m_sync_init+0x24>)
     dbc:	4b05      	ldr	r3, [pc, #20]	; (dd4 <_i2c_m_sync_init+0x28>)
     dbe:	4798      	blx	r3
	i2c_dev->hw = hw;
     dc0:	6125      	str	r5, [r4, #16]
	return _i2c_m_sync_init_impl(&i2c_dev->service, hw);
     dc2:	0029      	movs	r1, r5
     dc4:	0020      	movs	r0, r4
     dc6:	4b04      	ldr	r3, [pc, #16]	; (dd8 <_i2c_m_sync_init+0x2c>)
     dc8:	4798      	blx	r3
}
     dca:	bd70      	pop	{r4, r5, r6, pc}
     dcc:	00000507 	.word	0x00000507
     dd0:	0000882c 	.word	0x0000882c
     dd4:	00000ad9 	.word	0x00000ad9
     dd8:	00000bc5 	.word	0x00000bc5

00000ddc <_i2c_m_sync_enable>:
{
     ddc:	b570      	push	{r4, r5, r6, lr}
     dde:	0004      	movs	r4, r0
	ASSERT(i2c_dev);
     de0:	4d1a      	ldr	r5, [pc, #104]	; (e4c <_i2c_m_sync_enable+0x70>)
     de2:	1e43      	subs	r3, r0, #1
     de4:	4198      	sbcs	r0, r3
     de6:	b2c0      	uxtb	r0, r0
     de8:	4a19      	ldr	r2, [pc, #100]	; (e50 <_i2c_m_sync_enable+0x74>)
     dea:	0029      	movs	r1, r5
     dec:	4e19      	ldr	r6, [pc, #100]	; (e54 <_i2c_m_sync_enable+0x78>)
     dee:	47b0      	blx	r6
	return _i2c_m_enable_implementation(i2c_dev->hw);
     df0:	6924      	ldr	r4, [r4, #16]
	ASSERT(hw);
     df2:	0020      	movs	r0, r4
     df4:	1e43      	subs	r3, r0, #1
     df6:	4198      	sbcs	r0, r3
     df8:	b2c0      	uxtb	r0, r0
     dfa:	4a17      	ldr	r2, [pc, #92]	; (e58 <_i2c_m_sync_enable+0x7c>)
     dfc:	0029      	movs	r1, r5
     dfe:	47b0      	blx	r6
	((Sercom *)hw)->I2CM.CTRLA.reg |= SERCOM_I2CM_CTRLA_ENABLE;
     e00:	6823      	ldr	r3, [r4, #0]
     e02:	2202      	movs	r2, #2
     e04:	4313      	orrs	r3, r2
     e06:	6023      	str	r3, [r4, #0]
	while (((Sercom *)hw)->I2CM.SYNCBUSY.reg & reg) {
     e08:	3201      	adds	r2, #1
     e0a:	69e3      	ldr	r3, [r4, #28]
     e0c:	421a      	tst	r2, r3
     e0e:	d1fc      	bne.n	e0a <_i2c_m_sync_enable+0x2e>
     e10:	2504      	movs	r5, #4
     e12:	2204      	movs	r2, #4
}

static inline hri_sercomi2cm_status_reg_t hri_sercomi2cm_read_STATUS_BUSSTATE_bf(const void *const hw)
{
	hri_sercomi2cm_wait_for_sync(hw, SERCOM_I2CM_SYNCBUSY_SYSOP);
	return (((Sercom *)hw)->I2CM.STATUS.reg & SERCOM_I2CM_STATUS_BUSSTATE_Msk) >> SERCOM_I2CM_STATUS_BUSSTATE_Pos;
     e14:	2003      	movs	r0, #3
}

static inline void hri_sercomi2cm_clear_STATUS_reg(const void *const hw, hri_sercomi2cm_status_reg_t mask)
{
	SERCOM_CRITICAL_SECTION_ENTER();
	((Sercom *)hw)->I2CM.STATUS.reg = mask;
     e16:	2610      	movs	r6, #16
	while (((Sercom *)hw)->I2CM.SYNCBUSY.reg & reg) {
     e18:	4910      	ldr	r1, [pc, #64]	; (e5c <_i2c_m_sync_enable+0x80>)
     e1a:	69e3      	ldr	r3, [r4, #28]
     e1c:	421a      	tst	r2, r3
     e1e:	d1fc      	bne.n	e1a <_i2c_m_sync_enable+0x3e>
	return (((Sercom *)hw)->I2CM.STATUS.reg & SERCOM_I2CM_STATUS_BUSSTATE_Msk) >> SERCOM_I2CM_STATUS_BUSSTATE_Pos;
     e20:	8b63      	ldrh	r3, [r4, #26]
     e22:	091b      	lsrs	r3, r3, #4
	while (hri_sercomi2cm_read_STATUS_BUSSTATE_bf(hw) != I2C_IDLE) {
     e24:	4003      	ands	r3, r0
     e26:	2b01      	cmp	r3, #1
     e28:	d00a      	beq.n	e40 <_i2c_m_sync_enable+0x64>
     e2a:	3901      	subs	r1, #1
		if (timeout <= 0) {
     e2c:	2900      	cmp	r1, #0
     e2e:	d1f4      	bne.n	e1a <_i2c_m_sync_enable+0x3e>
     e30:	3d01      	subs	r5, #1
			if (--timeout_attempt)
     e32:	2d00      	cmp	r5, #0
     e34:	d006      	beq.n	e44 <_i2c_m_sync_enable+0x68>
	((Sercom *)hw)->I2CM.STATUS.reg = mask;
     e36:	8366      	strh	r6, [r4, #26]
	while (((Sercom *)hw)->I2CM.SYNCBUSY.reg & reg) {
     e38:	69e3      	ldr	r3, [r4, #28]
     e3a:	421a      	tst	r2, r3
     e3c:	d1fc      	bne.n	e38 <_i2c_m_sync_enable+0x5c>
     e3e:	e7eb      	b.n	e18 <_i2c_m_sync_enable+0x3c>
	return ERR_NONE;
     e40:	2000      	movs	r0, #0
}
     e42:	bd70      	pop	{r4, r5, r6, pc}
				return I2C_ERR_BUSY;
     e44:	2006      	movs	r0, #6
     e46:	4240      	negs	r0, r0
	return _i2c_m_enable_implementation(i2c_dev->hw);
     e48:	e7fb      	b.n	e42 <_i2c_m_sync_enable+0x66>
     e4a:	46c0      	nop			; (mov r8, r8)
     e4c:	0000882c 	.word	0x0000882c
     e50:	00000524 	.word	0x00000524
     e54:	00000ad9 	.word	0x00000ad9
     e58:	000005f4 	.word	0x000005f4
     e5c:	0000ffff 	.word	0x0000ffff

00000e60 <_i2c_m_sync_transfer>:
{
     e60:	b5f0      	push	{r4, r5, r6, r7, lr}
     e62:	46de      	mov	lr, fp
     e64:	4657      	mov	r7, sl
     e66:	464e      	mov	r6, r9
     e68:	4645      	mov	r5, r8
     e6a:	b5e0      	push	{r5, r6, r7, lr}
     e6c:	b083      	sub	sp, #12
     e6e:	0005      	movs	r5, r0
     e70:	4688      	mov	r8, r1
	void *   hw = i2c_dev->hw;
     e72:	6904      	ldr	r4, [r0, #16]
	ASSERT(i2c_dev);
     e74:	0006      	movs	r6, r0
     e76:	1e73      	subs	r3, r6, #1
     e78:	419e      	sbcs	r6, r3
     e7a:	b2f3      	uxtb	r3, r6
     e7c:	9301      	str	r3, [sp, #4]
     e7e:	4fb4      	ldr	r7, [pc, #720]	; (1150 <_i2c_m_sync_transfer+0x2f0>)
     e80:	4ab4      	ldr	r2, [pc, #720]	; (1154 <_i2c_m_sync_transfer+0x2f4>)
     e82:	0039      	movs	r1, r7
     e84:	0018      	movs	r0, r3
     e86:	4eb4      	ldr	r6, [pc, #720]	; (1158 <_i2c_m_sync_transfer+0x2f8>)
     e88:	47b0      	blx	r6
	ASSERT(i2c_dev->hw);
     e8a:	6928      	ldr	r0, [r5, #16]
     e8c:	1e43      	subs	r3, r0, #1
     e8e:	4198      	sbcs	r0, r3
     e90:	b2c0      	uxtb	r0, r0
     e92:	22b8      	movs	r2, #184	; 0xb8
     e94:	00d2      	lsls	r2, r2, #3
     e96:	0039      	movs	r1, r7
     e98:	47b0      	blx	r6
	ASSERT(msg);
     e9a:	4640      	mov	r0, r8
     e9c:	1e43      	subs	r3, r0, #1
     e9e:	4198      	sbcs	r0, r3
     ea0:	b2c0      	uxtb	r0, r0
     ea2:	4aae      	ldr	r2, [pc, #696]	; (115c <_i2c_m_sync_transfer+0x2fc>)
     ea4:	0039      	movs	r1, r7
     ea6:	47b0      	blx	r6
	if (i2c_dev->service.msg.flags & I2C_M_BUSY) {
     ea8:	886b      	ldrh	r3, [r5, #2]
     eaa:	05db      	lsls	r3, r3, #23
     eac:	d500      	bpl.n	eb0 <_i2c_m_sync_transfer+0x50>
     eae:	e224      	b.n	12fa <_i2c_m_sync_transfer+0x49a>
	msg->flags |= I2C_M_BUSY;
     eb0:	4643      	mov	r3, r8
     eb2:	885a      	ldrh	r2, [r3, #2]
     eb4:	2380      	movs	r3, #128	; 0x80
     eb6:	005b      	lsls	r3, r3, #1
     eb8:	431a      	orrs	r2, r3
     eba:	4641      	mov	r1, r8
     ebc:	804a      	strh	r2, [r1, #2]
	i2c_dev->service.msg = *msg;
     ebe:	002a      	movs	r2, r5
     ec0:	c9c1      	ldmia	r1!, {r0, r6, r7}
     ec2:	c2c1      	stmia	r2!, {r0, r6, r7}
	((Sercom *)hw)->I2CM.CTRLB.reg |= SERCOM_I2CM_CTRLB_SMEN;
     ec4:	6862      	ldr	r2, [r4, #4]
     ec6:	4313      	orrs	r3, r2
     ec8:	6063      	str	r3, [r4, #4]
	while (((Sercom *)hw)->I2CM.SYNCBUSY.reg & reg) {
     eca:	2204      	movs	r2, #4
     ecc:	69e3      	ldr	r3, [r4, #28]
     ece:	421a      	tst	r2, r3
     ed0:	d1fc      	bne.n	ecc <_i2c_m_sync_transfer+0x6c>
	void *             hw    = i2c_dev->hw;
     ed2:	692f      	ldr	r7, [r5, #16]
	tmp = ((Sercom *)hw)->I2CM.CTRLA.reg;
     ed4:	683b      	ldr	r3, [r7, #0]
     ed6:	4699      	mov	r9, r3
	ASSERT(i2c_dev);
     ed8:	4aa1      	ldr	r2, [pc, #644]	; (1160 <_i2c_m_sync_transfer+0x300>)
     eda:	499d      	ldr	r1, [pc, #628]	; (1150 <_i2c_m_sync_transfer+0x2f0>)
     edc:	9801      	ldr	r0, [sp, #4]
     ede:	4b9e      	ldr	r3, [pc, #632]	; (1158 <_i2c_m_sync_transfer+0x2f8>)
     ee0:	4798      	blx	r3
	if (msg->len == 1 && sclsm) {
     ee2:	686b      	ldr	r3, [r5, #4]
     ee4:	2b01      	cmp	r3, #1
     ee6:	d05a      	beq.n	f9e <_i2c_m_sync_transfer+0x13e>
	((Sercom *)hw)->I2CM.CTRLB.reg &= ~SERCOM_I2CM_CTRLB_ACKACT;
     ee8:	687b      	ldr	r3, [r7, #4]
     eea:	4a9e      	ldr	r2, [pc, #632]	; (1164 <_i2c_m_sync_transfer+0x304>)
     eec:	4013      	ands	r3, r2
     eee:	607b      	str	r3, [r7, #4]
	while (((Sercom *)hw)->I2CM.SYNCBUSY.reg & reg) {
     ef0:	2204      	movs	r2, #4
     ef2:	69fb      	ldr	r3, [r7, #28]
     ef4:	421a      	tst	r2, r3
     ef6:	d1fc      	bne.n	ef2 <_i2c_m_sync_transfer+0x92>
	if (msg->addr & I2C_M_TEN) {
     ef8:	882b      	ldrh	r3, [r5, #0]
     efa:	055a      	lsls	r2, r3, #21
     efc:	d55c      	bpl.n	fb8 <_i2c_m_sync_transfer+0x158>
		if (msg->flags & I2C_M_RD) {
     efe:	886a      	ldrh	r2, [r5, #2]
     f00:	07d2      	lsls	r2, r2, #31
     f02:	d504      	bpl.n	f0e <_i2c_m_sync_transfer+0xae>
			msg->flags |= I2C_M_TEN;
     f04:	886a      	ldrh	r2, [r5, #2]
     f06:	2180      	movs	r1, #128	; 0x80
     f08:	00c9      	lsls	r1, r1, #3
     f0a:	430a      	orrs	r2, r1
     f0c:	806a      	strh	r2, [r5, #2]
		                              ((msg->addr & TEN_ADDR_MASK) << 1) | SERCOM_I2CM_ADDR_TENBITEN
     f0e:	005b      	lsls	r3, r3, #1
		                                  | (hri_sercomi2cm_read_ADDR_reg(hw) & SERCOM_I2CM_ADDR_HS));
     f10:	4995      	ldr	r1, [pc, #596]	; (1168 <_i2c_m_sync_transfer+0x308>)
     f12:	4019      	ands	r1, r3
     f14:	2204      	movs	r2, #4
     f16:	69fb      	ldr	r3, [r7, #28]
     f18:	421a      	tst	r2, r3
     f1a:	d1fc      	bne.n	f16 <_i2c_m_sync_transfer+0xb6>
	return ((Sercom *)hw)->I2CM.ADDR.reg;
     f1c:	6a7b      	ldr	r3, [r7, #36]	; 0x24
     f1e:	2280      	movs	r2, #128	; 0x80
     f20:	01d2      	lsls	r2, r2, #7
     f22:	401a      	ands	r2, r3
		hri_sercomi2cm_write_ADDR_reg(hw,
     f24:	2380      	movs	r3, #128	; 0x80
     f26:	021b      	lsls	r3, r3, #8
     f28:	4313      	orrs	r3, r2
     f2a:	4319      	orrs	r1, r3
	((Sercom *)hw)->I2CM.ADDR.reg = data;
     f2c:	6279      	str	r1, [r7, #36]	; 0x24
	while (((Sercom *)hw)->I2CM.SYNCBUSY.reg & reg) {
     f2e:	2204      	movs	r2, #4
     f30:	69fb      	ldr	r3, [r7, #28]
     f32:	421a      	tst	r2, r3
     f34:	d1fc      	bne.n	f30 <_i2c_m_sync_transfer+0xd0>
	void *   hw      = i2c_dev->hw;
     f36:	6929      	ldr	r1, [r5, #16]
	return ((Sercom *)hw)->I2CM.INTFLAG.reg;
     f38:	7e0b      	ldrb	r3, [r1, #24]
     f3a:	b2db      	uxtb	r3, r3
     f3c:	4a8b      	ldr	r2, [pc, #556]	; (116c <_i2c_m_sync_transfer+0x30c>)
	} while (!(*flags & MB_FLAG) && !(*flags & SB_FLAG));
     f3e:	2003      	movs	r0, #3
     f40:	4218      	tst	r0, r3
     f42:	d104      	bne.n	f4e <_i2c_m_sync_transfer+0xee>
     f44:	7e0b      	ldrb	r3, [r1, #24]
     f46:	b2db      	uxtb	r3, r3
     f48:	3a01      	subs	r2, #1
		if (timeout-- == 0) {
     f4a:	2a00      	cmp	r2, #0
     f4c:	d1f8      	bne.n	f40 <_i2c_m_sync_transfer+0xe0>
	tmp = ((Sercom *)hw)->I2CM.CTRLA.reg;
     f4e:	683e      	ldr	r6, [r7, #0]
	while (((Sercom *)hw)->I2CM.SYNCBUSY.reg & reg) {
     f50:	2104      	movs	r1, #4
     f52:	69fa      	ldr	r2, [r7, #28]
     f54:	4211      	tst	r1, r2
     f56:	d1fc      	bne.n	f52 <_i2c_m_sync_transfer+0xf2>
	return ((Sercom *)hw)->I2CM.STATUS.reg;
     f58:	8b7a      	ldrh	r2, [r7, #26]
     f5a:	b292      	uxth	r2, r2
	if (flags & MB_FLAG) {
     f5c:	07d9      	lsls	r1, r3, #31
     f5e:	d400      	bmi.n	f62 <_i2c_m_sync_transfer+0x102>
     f60:	e0a0      	b.n	10a4 <_i2c_m_sync_transfer+0x244>
		if (status & SERCOM_I2CM_STATUS_ARBLOST) {
     f62:	0793      	lsls	r3, r2, #30
     f64:	d53e      	bpl.n	fe4 <_i2c_m_sync_transfer+0x184>
	((Sercom *)hw)->I2CM.INTFLAG.reg = SERCOM_I2CM_INTFLAG_MB;
     f66:	2301      	movs	r3, #1
     f68:	763b      	strb	r3, [r7, #24]
			msg->flags |= I2C_M_FAIL;
     f6a:	886b      	ldrh	r3, [r5, #2]
     f6c:	2180      	movs	r1, #128	; 0x80
     f6e:	0149      	lsls	r1, r1, #5
     f70:	430b      	orrs	r3, r1
     f72:	806b      	strh	r3, [r5, #2]
			msg->flags &= ~I2C_M_BUSY;
     f74:	886b      	ldrh	r3, [r5, #2]
     f76:	497e      	ldr	r1, [pc, #504]	; (1170 <_i2c_m_sync_transfer+0x310>)
     f78:	400b      	ands	r3, r1
     f7a:	806b      	strh	r3, [r5, #2]
			if (status & SERCOM_I2CM_STATUS_BUSERR) {
     f7c:	2001      	movs	r0, #1
     f7e:	0003      	movs	r3, r0
     f80:	4013      	ands	r3, r2
			return I2C_ERR_BAD_ADDRESS;
     f82:	4258      	negs	r0, r3
     f84:	4158      	adcs	r0, r3
     f86:	3805      	subs	r0, #5
		i2c_dev->service.msg.flags &= ~I2C_M_BUSY;
     f88:	886b      	ldrh	r3, [r5, #2]
     f8a:	4a79      	ldr	r2, [pc, #484]	; (1170 <_i2c_m_sync_transfer+0x310>)
     f8c:	4013      	ands	r3, r2
     f8e:	806b      	strh	r3, [r5, #2]
}
     f90:	b003      	add	sp, #12
     f92:	bc3c      	pop	{r2, r3, r4, r5}
     f94:	4690      	mov	r8, r2
     f96:	4699      	mov	r9, r3
     f98:	46a2      	mov	sl, r4
     f9a:	46ab      	mov	fp, r5
     f9c:	bdf0      	pop	{r4, r5, r6, r7, pc}
	if (msg->len == 1 && sclsm) {
     f9e:	464b      	mov	r3, r9
     fa0:	011b      	lsls	r3, r3, #4
     fa2:	d5a1      	bpl.n	ee8 <_i2c_m_sync_transfer+0x88>
	((Sercom *)hw)->I2CM.CTRLB.reg |= SERCOM_I2CM_CTRLB_ACKACT;
     fa4:	687a      	ldr	r2, [r7, #4]
     fa6:	2380      	movs	r3, #128	; 0x80
     fa8:	02db      	lsls	r3, r3, #11
     faa:	4313      	orrs	r3, r2
     fac:	607b      	str	r3, [r7, #4]
	while (((Sercom *)hw)->I2CM.SYNCBUSY.reg & reg) {
     fae:	2204      	movs	r2, #4
     fb0:	69fb      	ldr	r3, [r7, #28]
     fb2:	421a      	tst	r2, r3
     fb4:	d1fc      	bne.n	fb0 <_i2c_m_sync_transfer+0x150>
     fb6:	e79f      	b.n	ef8 <_i2c_m_sync_transfer+0x98>
		                              ((msg->addr & SEVEN_ADDR_MASK) << 1) | (msg->flags & I2C_M_RD ? I2C_M_RD : 0x0)
     fb8:	886a      	ldrh	r2, [r5, #2]
     fba:	005b      	lsls	r3, r3, #1
     fbc:	21ff      	movs	r1, #255	; 0xff
     fbe:	400b      	ands	r3, r1
     fc0:	39fe      	subs	r1, #254	; 0xfe
     fc2:	4011      	ands	r1, r2
     fc4:	4319      	orrs	r1, r3
     fc6:	2204      	movs	r2, #4
     fc8:	69fb      	ldr	r3, [r7, #28]
     fca:	421a      	tst	r2, r3
     fcc:	d1fc      	bne.n	fc8 <_i2c_m_sync_transfer+0x168>
	return ((Sercom *)hw)->I2CM.ADDR.reg;
     fce:	6a7b      	ldr	r3, [r7, #36]	; 0x24
		                                  | (hri_sercomi2cm_read_ADDR_reg(hw) & SERCOM_I2CM_ADDR_HS));
     fd0:	2280      	movs	r2, #128	; 0x80
     fd2:	01d2      	lsls	r2, r2, #7
     fd4:	4013      	ands	r3, r2
		hri_sercomi2cm_write_ADDR_reg(hw,
     fd6:	430b      	orrs	r3, r1
	((Sercom *)hw)->I2CM.ADDR.reg = data;
     fd8:	627b      	str	r3, [r7, #36]	; 0x24
	while (((Sercom *)hw)->I2CM.SYNCBUSY.reg & reg) {
     fda:	2204      	movs	r2, #4
     fdc:	69fb      	ldr	r3, [r7, #28]
     fde:	421a      	tst	r2, r3
     fe0:	d1fc      	bne.n	fdc <_i2c_m_sync_transfer+0x17c>
     fe2:	e7a8      	b.n	f36 <_i2c_m_sync_transfer+0xd6>
			if (status & SERCOM_I2CM_STATUS_RXNACK) {
     fe4:	0753      	lsls	r3, r2, #29
     fe6:	d41b      	bmi.n	1020 <_i2c_m_sync_transfer+0x1c0>
			if (msg->flags & I2C_M_TEN) {
     fe8:	886b      	ldrh	r3, [r5, #2]
     fea:	055b      	lsls	r3, r3, #21
     fec:	d535      	bpl.n	105a <_i2c_m_sync_transfer+0x1fa>
				                              ((((msg->addr & TEN_ADDR_MASK) >> 8) | TEN_ADDR_FRAME) << 1) | I2C_M_RD
     fee:	882b      	ldrh	r3, [r5, #0]
     ff0:	09db      	lsrs	r3, r3, #7
				                                  | (hri_sercomi2cm_read_ADDR_reg(hw) & SERCOM_I2CM_ADDR_HS));
     ff2:	2106      	movs	r1, #6
     ff4:	4019      	ands	r1, r3
     ff6:	2204      	movs	r2, #4
     ff8:	69fb      	ldr	r3, [r7, #28]
     ffa:	421a      	tst	r2, r3
     ffc:	d1fc      	bne.n	ff8 <_i2c_m_sync_transfer+0x198>
	return ((Sercom *)hw)->I2CM.ADDR.reg;
     ffe:	6a7b      	ldr	r3, [r7, #36]	; 0x24
    1000:	2280      	movs	r2, #128	; 0x80
    1002:	01d2      	lsls	r2, r2, #7
    1004:	4013      	ands	r3, r2
				hri_sercomi2cm_write_ADDR_reg(hw,
    1006:	22f1      	movs	r2, #241	; 0xf1
    1008:	4313      	orrs	r3, r2
    100a:	430b      	orrs	r3, r1
	((Sercom *)hw)->I2CM.ADDR.reg = data;
    100c:	627b      	str	r3, [r7, #36]	; 0x24
	while (((Sercom *)hw)->I2CM.SYNCBUSY.reg & reg) {
    100e:	3aed      	subs	r2, #237	; 0xed
    1010:	69fb      	ldr	r3, [r7, #28]
    1012:	421a      	tst	r2, r3
    1014:	d1fc      	bne.n	1010 <_i2c_m_sync_transfer+0x1b0>
				msg->flags &= ~I2C_M_TEN;
    1016:	886b      	ldrh	r3, [r5, #2]
    1018:	4a56      	ldr	r2, [pc, #344]	; (1174 <_i2c_m_sync_transfer+0x314>)
    101a:	4013      	ands	r3, r2
    101c:	806b      	strh	r3, [r5, #2]
    101e:	e066      	b.n	10ee <_i2c_m_sync_transfer+0x28e>
				if (msg->len > 0) {
    1020:	686b      	ldr	r3, [r5, #4]
    1022:	2b00      	cmp	r3, #0
    1024:	dd04      	ble.n	1030 <_i2c_m_sync_transfer+0x1d0>
					msg->flags |= I2C_M_FAIL;
    1026:	886b      	ldrh	r3, [r5, #2]
    1028:	2280      	movs	r2, #128	; 0x80
    102a:	0152      	lsls	r2, r2, #5
    102c:	4313      	orrs	r3, r2
    102e:	806b      	strh	r3, [r5, #2]
				if (msg->flags & I2C_M_STOP) {
    1030:	886b      	ldrh	r3, [r5, #2]
    1032:	b21b      	sxth	r3, r3
    1034:	2b00      	cmp	r3, #0
    1036:	db06      	blt.n	1046 <_i2c_m_sync_transfer+0x1e6>
				msg->flags &= ~I2C_M_BUSY;
    1038:	886b      	ldrh	r3, [r5, #2]
    103a:	4a4d      	ldr	r2, [pc, #308]	; (1170 <_i2c_m_sync_transfer+0x310>)
    103c:	4013      	ands	r3, r2
    103e:	806b      	strh	r3, [r5, #2]
				return I2C_NACK;
    1040:	2002      	movs	r0, #2
    1042:	4240      	negs	r0, r0
    1044:	e7a0      	b.n	f88 <_i2c_m_sync_transfer+0x128>
	((Sercom *)hw)->I2CM.CTRLB.reg |= SERCOM_I2CM_CTRLB_CMD(mask);
    1046:	687a      	ldr	r2, [r7, #4]
    1048:	23c0      	movs	r3, #192	; 0xc0
    104a:	029b      	lsls	r3, r3, #10
    104c:	4313      	orrs	r3, r2
    104e:	607b      	str	r3, [r7, #4]
	while (((Sercom *)hw)->I2CM.SYNCBUSY.reg & reg) {
    1050:	2304      	movs	r3, #4
    1052:	69fa      	ldr	r2, [r7, #28]
    1054:	4213      	tst	r3, r2
    1056:	d1fc      	bne.n	1052 <_i2c_m_sync_transfer+0x1f2>
    1058:	e7ee      	b.n	1038 <_i2c_m_sync_transfer+0x1d8>
			if (msg->len == 0) {
    105a:	686b      	ldr	r3, [r5, #4]
    105c:	2b00      	cmp	r3, #0
    105e:	d112      	bne.n	1086 <_i2c_m_sync_transfer+0x226>
				if (msg->flags & I2C_M_STOP) {
    1060:	886b      	ldrh	r3, [r5, #2]
    1062:	b21b      	sxth	r3, r3
    1064:	2b00      	cmp	r3, #0
    1066:	db04      	blt.n	1072 <_i2c_m_sync_transfer+0x212>
				msg->flags &= ~I2C_M_BUSY;
    1068:	886b      	ldrh	r3, [r5, #2]
    106a:	4a41      	ldr	r2, [pc, #260]	; (1170 <_i2c_m_sync_transfer+0x310>)
    106c:	4013      	ands	r3, r2
    106e:	806b      	strh	r3, [r5, #2]
    1070:	e03d      	b.n	10ee <_i2c_m_sync_transfer+0x28e>
	((Sercom *)hw)->I2CM.CTRLB.reg |= SERCOM_I2CM_CTRLB_CMD(mask);
    1072:	687a      	ldr	r2, [r7, #4]
    1074:	23c0      	movs	r3, #192	; 0xc0
    1076:	029b      	lsls	r3, r3, #10
    1078:	4313      	orrs	r3, r2
    107a:	607b      	str	r3, [r7, #4]
	while (((Sercom *)hw)->I2CM.SYNCBUSY.reg & reg) {
    107c:	2204      	movs	r2, #4
    107e:	69fb      	ldr	r3, [r7, #28]
    1080:	421a      	tst	r2, r3
    1082:	d1fc      	bne.n	107e <_i2c_m_sync_transfer+0x21e>
    1084:	e7f0      	b.n	1068 <_i2c_m_sync_transfer+0x208>
				hri_sercomi2cm_write_DATA_reg(hw, *msg->buffer);
    1086:	68ab      	ldr	r3, [r5, #8]
    1088:	781a      	ldrb	r2, [r3, #0]
	((Sercom *)hw)->I2CM.DATA.reg = data;
    108a:	2328      	movs	r3, #40	; 0x28
    108c:	54fa      	strb	r2, [r7, r3]
	while (((Sercom *)hw)->I2CM.SYNCBUSY.reg & reg) {
    108e:	2204      	movs	r2, #4
    1090:	69fb      	ldr	r3, [r7, #28]
    1092:	421a      	tst	r2, r3
    1094:	d1fc      	bne.n	1090 <_i2c_m_sync_transfer+0x230>
				msg->buffer++;
    1096:	68ab      	ldr	r3, [r5, #8]
    1098:	3301      	adds	r3, #1
    109a:	60ab      	str	r3, [r5, #8]
				msg->len--;
    109c:	686b      	ldr	r3, [r5, #4]
    109e:	3b01      	subs	r3, #1
    10a0:	606b      	str	r3, [r5, #4]
    10a2:	e024      	b.n	10ee <_i2c_m_sync_transfer+0x28e>
	} else if (flags & SB_FLAG) {
    10a4:	079b      	lsls	r3, r3, #30
    10a6:	d522      	bpl.n	10ee <_i2c_m_sync_transfer+0x28e>
		if ((msg->len) && !(status & SERCOM_I2CM_STATUS_RXNACK)) {
    10a8:	686b      	ldr	r3, [r5, #4]
    10aa:	2b00      	cmp	r3, #0
    10ac:	d040      	beq.n	1130 <_i2c_m_sync_transfer+0x2d0>
    10ae:	0752      	lsls	r2, r2, #29
    10b0:	d43e      	bmi.n	1130 <_i2c_m_sync_transfer+0x2d0>
	tmp = (tmp & SERCOM_I2CM_CTRLA_SCLSM) >> SERCOM_I2CM_CTRLA_SCLSM_Pos;
    10b2:	0136      	lsls	r6, r6, #4
    10b4:	0ff6      	lsrs	r6, r6, #31
			msg->len--;
    10b6:	3b01      	subs	r3, #1
    10b8:	606b      	str	r3, [r5, #4]
			if ((msg->len == 0 && !sclsm) || (msg->len == 1 && sclsm)) {
    10ba:	2b00      	cmp	r3, #0
    10bc:	d000      	beq.n	10c0 <_i2c_m_sync_transfer+0x260>
    10be:	e11f      	b.n	1300 <_i2c_m_sync_transfer+0x4a0>
    10c0:	2e00      	cmp	r6, #0
    10c2:	d100      	bne.n	10c6 <_i2c_m_sync_transfer+0x266>
    10c4:	e122      	b.n	130c <_i2c_m_sync_transfer+0x4ac>
				if (msg->flags & I2C_M_STOP) {
    10c6:	886b      	ldrh	r3, [r5, #2]
    10c8:	b21b      	sxth	r3, r3
    10ca:	2b00      	cmp	r3, #0
    10cc:	db1d      	blt.n	110a <_i2c_m_sync_transfer+0x2aa>
				msg->flags &= ~I2C_M_BUSY;
    10ce:	886b      	ldrh	r3, [r5, #2]
    10d0:	4a27      	ldr	r2, [pc, #156]	; (1170 <_i2c_m_sync_transfer+0x310>)
    10d2:	4013      	ands	r3, r2
    10d4:	806b      	strh	r3, [r5, #2]
			*msg->buffer++ = hri_sercomi2cm_read_DATA_reg(hw);
    10d6:	68a9      	ldr	r1, [r5, #8]
    10d8:	1c4b      	adds	r3, r1, #1
    10da:	60ab      	str	r3, [r5, #8]
	while (((Sercom *)hw)->I2CM.SYNCBUSY.reg & reg) {
    10dc:	2204      	movs	r2, #4
    10de:	69fb      	ldr	r3, [r7, #28]
    10e0:	421a      	tst	r2, r3
    10e2:	d1fc      	bne.n	10de <_i2c_m_sync_transfer+0x27e>
	return ((Sercom *)hw)->I2CM.DATA.reg;
    10e4:	2328      	movs	r3, #40	; 0x28
    10e6:	5cfb      	ldrb	r3, [r7, r3]
    10e8:	700b      	strb	r3, [r1, #0]
	((Sercom *)hw)->I2CM.INTFLAG.reg = SERCOM_I2CM_INTFLAG_SB;
    10ea:	2302      	movs	r3, #2
    10ec:	763b      	strb	r3, [r7, #24]
			return I2C_NACK;
    10ee:	2600      	movs	r6, #0
	while (i2c_dev->service.msg.flags & I2C_M_BUSY) {
    10f0:	2380      	movs	r3, #128	; 0x80
    10f2:	005b      	lsls	r3, r3, #1
    10f4:	469a      	mov	sl, r3
	} while (!(*flags & MB_FLAG) && !(*flags & SB_FLAG));
    10f6:	2103      	movs	r1, #3
	while (((Sercom *)hw)->I2CM.SYNCBUSY.reg & reg) {
    10f8:	2204      	movs	r2, #4
	if (flags & MB_FLAG) {
    10fa:	3bff      	subs	r3, #255	; 0xff
    10fc:	469c      	mov	ip, r3
	} else if (flags & SB_FLAG) {
    10fe:	3301      	adds	r3, #1
    1100:	4699      	mov	r9, r3
	return ((Sercom *)hw)->I2CM.DATA.reg;
    1102:	3326      	adds	r3, #38	; 0x26
    1104:	469b      	mov	fp, r3
    1106:	9601      	str	r6, [sp, #4]
    1108:	e0c2      	b.n	1290 <_i2c_m_sync_transfer+0x430>
	((Sercom *)hw)->I2CM.CTRLB.reg &= ~SERCOM_I2CM_CTRLB_SMEN;
    110a:	687b      	ldr	r3, [r7, #4]
    110c:	4a18      	ldr	r2, [pc, #96]	; (1170 <_i2c_m_sync_transfer+0x310>)
    110e:	4013      	ands	r3, r2
    1110:	607b      	str	r3, [r7, #4]
	while (((Sercom *)hw)->I2CM.SYNCBUSY.reg & reg) {
    1112:	3206      	adds	r2, #6
    1114:	32ff      	adds	r2, #255	; 0xff
    1116:	69fb      	ldr	r3, [r7, #28]
    1118:	421a      	tst	r2, r3
    111a:	d1fc      	bne.n	1116 <_i2c_m_sync_transfer+0x2b6>
	((Sercom *)hw)->I2CM.CTRLB.reg |= SERCOM_I2CM_CTRLB_CMD(mask);
    111c:	687a      	ldr	r2, [r7, #4]
    111e:	23c0      	movs	r3, #192	; 0xc0
    1120:	029b      	lsls	r3, r3, #10
    1122:	4313      	orrs	r3, r2
    1124:	607b      	str	r3, [r7, #4]
	while (((Sercom *)hw)->I2CM.SYNCBUSY.reg & reg) {
    1126:	2204      	movs	r2, #4
    1128:	69fb      	ldr	r3, [r7, #28]
    112a:	421a      	tst	r2, r3
    112c:	d1fc      	bne.n	1128 <_i2c_m_sync_transfer+0x2c8>
    112e:	e7ce      	b.n	10ce <_i2c_m_sync_transfer+0x26e>
	((Sercom *)hw)->I2CM.INTFLAG.reg = SERCOM_I2CM_INTFLAG_SB;
    1130:	2302      	movs	r3, #2
    1132:	763b      	strb	r3, [r7, #24]
			return I2C_NACK;
    1134:	2002      	movs	r0, #2
    1136:	4240      	negs	r0, r0
    1138:	e726      	b.n	f88 <_i2c_m_sync_transfer+0x128>
	((Sercom *)hw)->I2CM.CTRLB.reg |= SERCOM_I2CM_CTRLB_CMD(mask);
    113a:	6862      	ldr	r2, [r4, #4]
    113c:	23c0      	movs	r3, #192	; 0xc0
    113e:	029b      	lsls	r3, r3, #10
    1140:	4313      	orrs	r3, r2
    1142:	6063      	str	r3, [r4, #4]
	while (((Sercom *)hw)->I2CM.SYNCBUSY.reg & reg) {
    1144:	2204      	movs	r2, #4
    1146:	69e3      	ldr	r3, [r4, #28]
    1148:	421a      	tst	r2, r3
    114a:	d1fc      	bne.n	1146 <_i2c_m_sync_transfer+0x2e6>
    114c:	e0b5      	b.n	12ba <_i2c_m_sync_transfer+0x45a>
    114e:	46c0      	nop			; (mov r8, r8)
    1150:	0000882c 	.word	0x0000882c
    1154:	000005bf 	.word	0x000005bf
    1158:	00000ad9 	.word	0x00000ad9
    115c:	000005c1 	.word	0x000005c1
    1160:	00000594 	.word	0x00000594
    1164:	fffbffff 	.word	0xfffbffff
    1168:	000007fe 	.word	0x000007fe
    116c:	0000ffff 	.word	0x0000ffff
    1170:	fffffeff 	.word	0xfffffeff
    1174:	fffffbff 	.word	0xfffffbff
			if (status & SERCOM_I2CM_STATUS_RXNACK) {
    1178:	4202      	tst	r2, r0
    117a:	d11b      	bne.n	11b4 <_i2c_m_sync_transfer+0x354>
			if (msg->flags & I2C_M_TEN) {
    117c:	886b      	ldrh	r3, [r5, #2]
    117e:	055b      	lsls	r3, r3, #21
    1180:	d535      	bpl.n	11ee <_i2c_m_sync_transfer+0x38e>
				                              ((((msg->addr & TEN_ADDR_MASK) >> 8) | TEN_ADDR_FRAME) << 1) | I2C_M_RD
    1182:	882b      	ldrh	r3, [r5, #0]
    1184:	09db      	lsrs	r3, r3, #7
				                                  | (hri_sercomi2cm_read_ADDR_reg(hw) & SERCOM_I2CM_ADDR_HS));
    1186:	2006      	movs	r0, #6
    1188:	4018      	ands	r0, r3
    118a:	69e3      	ldr	r3, [r4, #28]
    118c:	421a      	tst	r2, r3
    118e:	d1fc      	bne.n	118a <_i2c_m_sync_transfer+0x32a>
	return ((Sercom *)hw)->I2CM.ADDR.reg;
    1190:	6a63      	ldr	r3, [r4, #36]	; 0x24
    1192:	2680      	movs	r6, #128	; 0x80
    1194:	01f6      	lsls	r6, r6, #7
    1196:	4033      	ands	r3, r6
				hri_sercomi2cm_write_ADDR_reg(hw,
    1198:	26f1      	movs	r6, #241	; 0xf1
    119a:	4333      	orrs	r3, r6
    119c:	4303      	orrs	r3, r0
	((Sercom *)hw)->I2CM.ADDR.reg = data;
    119e:	6263      	str	r3, [r4, #36]	; 0x24
	while (((Sercom *)hw)->I2CM.SYNCBUSY.reg & reg) {
    11a0:	69e3      	ldr	r3, [r4, #28]
    11a2:	421a      	tst	r2, r3
    11a4:	d1fc      	bne.n	11a0 <_i2c_m_sync_transfer+0x340>
				msg->flags &= ~I2C_M_TEN;
    11a6:	886b      	ldrh	r3, [r5, #2]
    11a8:	4878      	ldr	r0, [pc, #480]	; (138c <_i2c_m_sync_transfer+0x52c>)
    11aa:	4003      	ands	r3, r0
    11ac:	806b      	strh	r3, [r5, #2]
				return I2C_OK;
    11ae:	2300      	movs	r3, #0
    11b0:	9301      	str	r3, [sp, #4]
    11b2:	e06d      	b.n	1290 <_i2c_m_sync_transfer+0x430>
				if (msg->len > 0) {
    11b4:	686b      	ldr	r3, [r5, #4]
    11b6:	2b00      	cmp	r3, #0
    11b8:	dd04      	ble.n	11c4 <_i2c_m_sync_transfer+0x364>
					msg->flags |= I2C_M_FAIL;
    11ba:	886b      	ldrh	r3, [r5, #2]
    11bc:	2080      	movs	r0, #128	; 0x80
    11be:	0140      	lsls	r0, r0, #5
    11c0:	4303      	orrs	r3, r0
    11c2:	806b      	strh	r3, [r5, #2]
				if (msg->flags & I2C_M_STOP) {
    11c4:	886b      	ldrh	r3, [r5, #2]
    11c6:	b21b      	sxth	r3, r3
    11c8:	2b00      	cmp	r3, #0
    11ca:	db07      	blt.n	11dc <_i2c_m_sync_transfer+0x37c>
				msg->flags &= ~I2C_M_BUSY;
    11cc:	886b      	ldrh	r3, [r5, #2]
    11ce:	4870      	ldr	r0, [pc, #448]	; (1390 <_i2c_m_sync_transfer+0x530>)
    11d0:	4003      	ands	r3, r0
    11d2:	806b      	strh	r3, [r5, #2]
				return I2C_NACK;
    11d4:	2302      	movs	r3, #2
    11d6:	425b      	negs	r3, r3
    11d8:	9301      	str	r3, [sp, #4]
    11da:	e059      	b.n	1290 <_i2c_m_sync_transfer+0x430>
	((Sercom *)hw)->I2CM.CTRLB.reg |= SERCOM_I2CM_CTRLB_CMD(mask);
    11dc:	6860      	ldr	r0, [r4, #4]
    11de:	23c0      	movs	r3, #192	; 0xc0
    11e0:	029b      	lsls	r3, r3, #10
    11e2:	4303      	orrs	r3, r0
    11e4:	6063      	str	r3, [r4, #4]
	while (((Sercom *)hw)->I2CM.SYNCBUSY.reg & reg) {
    11e6:	69e3      	ldr	r3, [r4, #28]
    11e8:	421a      	tst	r2, r3
    11ea:	d1fc      	bne.n	11e6 <_i2c_m_sync_transfer+0x386>
    11ec:	e7ee      	b.n	11cc <_i2c_m_sync_transfer+0x36c>
			if (msg->len == 0) {
    11ee:	686b      	ldr	r3, [r5, #4]
    11f0:	2b00      	cmp	r3, #0
    11f2:	d113      	bne.n	121c <_i2c_m_sync_transfer+0x3bc>
				if (msg->flags & I2C_M_STOP) {
    11f4:	886b      	ldrh	r3, [r5, #2]
    11f6:	b21b      	sxth	r3, r3
    11f8:	2b00      	cmp	r3, #0
    11fa:	db06      	blt.n	120a <_i2c_m_sync_transfer+0x3aa>
				msg->flags &= ~I2C_M_BUSY;
    11fc:	886b      	ldrh	r3, [r5, #2]
    11fe:	4864      	ldr	r0, [pc, #400]	; (1390 <_i2c_m_sync_transfer+0x530>)
    1200:	4003      	ands	r3, r0
    1202:	806b      	strh	r3, [r5, #2]
			return I2C_OK;
    1204:	2300      	movs	r3, #0
    1206:	9301      	str	r3, [sp, #4]
    1208:	e042      	b.n	1290 <_i2c_m_sync_transfer+0x430>
	((Sercom *)hw)->I2CM.CTRLB.reg |= SERCOM_I2CM_CTRLB_CMD(mask);
    120a:	6860      	ldr	r0, [r4, #4]
    120c:	23c0      	movs	r3, #192	; 0xc0
    120e:	029b      	lsls	r3, r3, #10
    1210:	4303      	orrs	r3, r0
    1212:	6063      	str	r3, [r4, #4]
	while (((Sercom *)hw)->I2CM.SYNCBUSY.reg & reg) {
    1214:	69e3      	ldr	r3, [r4, #28]
    1216:	421a      	tst	r2, r3
    1218:	d1fc      	bne.n	1214 <_i2c_m_sync_transfer+0x3b4>
    121a:	e7ef      	b.n	11fc <_i2c_m_sync_transfer+0x39c>
				hri_sercomi2cm_write_DATA_reg(hw, *msg->buffer);
    121c:	68ab      	ldr	r3, [r5, #8]
    121e:	781b      	ldrb	r3, [r3, #0]
	((Sercom *)hw)->I2CM.DATA.reg = data;
    1220:	4658      	mov	r0, fp
    1222:	5423      	strb	r3, [r4, r0]
	while (((Sercom *)hw)->I2CM.SYNCBUSY.reg & reg) {
    1224:	69e3      	ldr	r3, [r4, #28]
    1226:	421a      	tst	r2, r3
    1228:	d1fc      	bne.n	1224 <_i2c_m_sync_transfer+0x3c4>
				msg->buffer++;
    122a:	68ab      	ldr	r3, [r5, #8]
    122c:	3301      	adds	r3, #1
    122e:	60ab      	str	r3, [r5, #8]
				msg->len--;
    1230:	686b      	ldr	r3, [r5, #4]
    1232:	3b01      	subs	r3, #1
    1234:	606b      	str	r3, [r5, #4]
			return I2C_OK;
    1236:	2300      	movs	r3, #0
    1238:	9301      	str	r3, [sp, #4]
    123a:	e029      	b.n	1290 <_i2c_m_sync_transfer+0x430>
	return I2C_OK;
    123c:	2600      	movs	r6, #0
    123e:	9601      	str	r6, [sp, #4]
	} else if (flags & SB_FLAG) {
    1240:	464e      	mov	r6, r9
    1242:	421e      	tst	r6, r3
    1244:	d024      	beq.n	1290 <_i2c_m_sync_transfer+0x430>
		if ((msg->len) && !(status & SERCOM_I2CM_STATUS_RXNACK)) {
    1246:	686b      	ldr	r3, [r5, #4]
    1248:	2b00      	cmp	r3, #0
    124a:	d04d      	beq.n	12e8 <_i2c_m_sync_transfer+0x488>
    124c:	4202      	tst	r2, r0
    124e:	d14b      	bne.n	12e8 <_i2c_m_sync_transfer+0x488>
	tmp = (tmp & SERCOM_I2CM_CTRLA_SCLSM) >> SERCOM_I2CM_CTRLA_SCLSM_Pos;
    1250:	0eff      	lsrs	r7, r7, #27
    1252:	4660      	mov	r0, ip
    1254:	4007      	ands	r7, r0
			msg->len--;
    1256:	3b01      	subs	r3, #1
    1258:	606b      	str	r3, [r5, #4]
			if ((msg->len == 0 && !sclsm) || (msg->len == 1 && sclsm)) {
    125a:	2b00      	cmp	r3, #0
    125c:	d000      	beq.n	1260 <_i2c_m_sync_transfer+0x400>
    125e:	e082      	b.n	1366 <_i2c_m_sync_transfer+0x506>
    1260:	2f00      	cmp	r7, #0
    1262:	d100      	bne.n	1266 <_i2c_m_sync_transfer+0x406>
    1264:	e085      	b.n	1372 <_i2c_m_sync_transfer+0x512>
				if (msg->flags & I2C_M_STOP) {
    1266:	886b      	ldrh	r3, [r5, #2]
    1268:	b21b      	sxth	r3, r3
    126a:	2b00      	cmp	r3, #0
    126c:	db2c      	blt.n	12c8 <_i2c_m_sync_transfer+0x468>
				msg->flags &= ~I2C_M_BUSY;
    126e:	886b      	ldrh	r3, [r5, #2]
    1270:	4847      	ldr	r0, [pc, #284]	; (1390 <_i2c_m_sync_transfer+0x530>)
    1272:	4003      	ands	r3, r0
    1274:	806b      	strh	r3, [r5, #2]
			*msg->buffer++ = hri_sercomi2cm_read_DATA_reg(hw);
    1276:	68a8      	ldr	r0, [r5, #8]
    1278:	1c43      	adds	r3, r0, #1
    127a:	60ab      	str	r3, [r5, #8]
	while (((Sercom *)hw)->I2CM.SYNCBUSY.reg & reg) {
    127c:	69e3      	ldr	r3, [r4, #28]
    127e:	421a      	tst	r2, r3
    1280:	d1fc      	bne.n	127c <_i2c_m_sync_transfer+0x41c>
	return ((Sercom *)hw)->I2CM.DATA.reg;
    1282:	465b      	mov	r3, fp
    1284:	5ce3      	ldrb	r3, [r4, r3]
    1286:	7003      	strb	r3, [r0, #0]
	((Sercom *)hw)->I2CM.INTFLAG.reg = SERCOM_I2CM_INTFLAG_SB;
    1288:	464b      	mov	r3, r9
    128a:	7623      	strb	r3, [r4, #24]
	return I2C_OK;
    128c:	2300      	movs	r3, #0
    128e:	9301      	str	r3, [sp, #4]
	while (i2c_dev->service.msg.flags & I2C_M_BUSY) {
    1290:	886b      	ldrh	r3, [r5, #2]
    1292:	4650      	mov	r0, sl
    1294:	4203      	tst	r3, r0
    1296:	d02d      	beq.n	12f4 <_i2c_m_sync_transfer+0x494>
	void *   hw      = i2c_dev->hw;
    1298:	692e      	ldr	r6, [r5, #16]
	return ((Sercom *)hw)->I2CM.INTFLAG.reg;
    129a:	7e33      	ldrb	r3, [r6, #24]
    129c:	b2db      	uxtb	r3, r3
    129e:	483d      	ldr	r0, [pc, #244]	; (1394 <_i2c_m_sync_transfer+0x534>)
	} while (!(*flags & MB_FLAG) && !(*flags & SB_FLAG));
    12a0:	4219      	tst	r1, r3
    12a2:	d141      	bne.n	1328 <_i2c_m_sync_transfer+0x4c8>
    12a4:	7e33      	ldrb	r3, [r6, #24]
    12a6:	b2db      	uxtb	r3, r3
    12a8:	3801      	subs	r0, #1
		if (timeout-- == 0) {
    12aa:	2800      	cmp	r0, #0
    12ac:	d1f8      	bne.n	12a0 <_i2c_m_sync_transfer+0x440>
			if (msg->flags & I2C_M_STOP) {
    12ae:	4643      	mov	r3, r8
    12b0:	885b      	ldrh	r3, [r3, #2]
    12b2:	b21b      	sxth	r3, r3
    12b4:	2b00      	cmp	r3, #0
    12b6:	da00      	bge.n	12ba <_i2c_m_sync_transfer+0x45a>
    12b8:	e73f      	b.n	113a <_i2c_m_sync_transfer+0x2da>
			i2c_dev->service.msg.flags &= ~I2C_M_BUSY;
    12ba:	886b      	ldrh	r3, [r5, #2]
    12bc:	4a34      	ldr	r2, [pc, #208]	; (1390 <_i2c_m_sync_transfer+0x530>)
    12be:	4013      	ands	r3, r2
    12c0:	806b      	strh	r3, [r5, #2]
			return I2C_ERR_BUS;
    12c2:	2005      	movs	r0, #5
    12c4:	4240      	negs	r0, r0
			return ret;
    12c6:	e663      	b.n	f90 <_i2c_m_sync_transfer+0x130>
	((Sercom *)hw)->I2CM.CTRLB.reg &= ~SERCOM_I2CM_CTRLB_SMEN;
    12c8:	6863      	ldr	r3, [r4, #4]
    12ca:	4831      	ldr	r0, [pc, #196]	; (1390 <_i2c_m_sync_transfer+0x530>)
    12cc:	4003      	ands	r3, r0
    12ce:	6063      	str	r3, [r4, #4]
	while (((Sercom *)hw)->I2CM.SYNCBUSY.reg & reg) {
    12d0:	69e3      	ldr	r3, [r4, #28]
    12d2:	421a      	tst	r2, r3
    12d4:	d1fc      	bne.n	12d0 <_i2c_m_sync_transfer+0x470>
	((Sercom *)hw)->I2CM.CTRLB.reg |= SERCOM_I2CM_CTRLB_CMD(mask);
    12d6:	6860      	ldr	r0, [r4, #4]
    12d8:	23c0      	movs	r3, #192	; 0xc0
    12da:	029b      	lsls	r3, r3, #10
    12dc:	4303      	orrs	r3, r0
    12de:	6063      	str	r3, [r4, #4]
	while (((Sercom *)hw)->I2CM.SYNCBUSY.reg & reg) {
    12e0:	69e3      	ldr	r3, [r4, #28]
    12e2:	421a      	tst	r2, r3
    12e4:	d1fc      	bne.n	12e0 <_i2c_m_sync_transfer+0x480>
    12e6:	e7c2      	b.n	126e <_i2c_m_sync_transfer+0x40e>
	((Sercom *)hw)->I2CM.INTFLAG.reg = SERCOM_I2CM_INTFLAG_SB;
    12e8:	464b      	mov	r3, r9
    12ea:	7623      	strb	r3, [r4, #24]
			return I2C_NACK;
    12ec:	2302      	movs	r3, #2
    12ee:	425b      	negs	r3, r3
    12f0:	9301      	str	r3, [sp, #4]
    12f2:	e7cd      	b.n	1290 <_i2c_m_sync_transfer+0x430>
    12f4:	9e01      	ldr	r6, [sp, #4]
    12f6:	0030      	movs	r0, r6
    12f8:	e64a      	b.n	f90 <_i2c_m_sync_transfer+0x130>
		return I2C_ERR_BUSY;
    12fa:	2006      	movs	r0, #6
    12fc:	4240      	negs	r0, r0
    12fe:	e647      	b.n	f90 <_i2c_m_sync_transfer+0x130>
			if ((msg->len == 0 && !sclsm) || (msg->len == 1 && sclsm)) {
    1300:	2b01      	cmp	r3, #1
    1302:	d000      	beq.n	1306 <_i2c_m_sync_transfer+0x4a6>
    1304:	e6e7      	b.n	10d6 <_i2c_m_sync_transfer+0x276>
    1306:	2e00      	cmp	r6, #0
    1308:	d100      	bne.n	130c <_i2c_m_sync_transfer+0x4ac>
    130a:	e6e4      	b.n	10d6 <_i2c_m_sync_transfer+0x276>
	((Sercom *)hw)->I2CM.CTRLB.reg |= SERCOM_I2CM_CTRLB_ACKACT;
    130c:	687a      	ldr	r2, [r7, #4]
    130e:	2380      	movs	r3, #128	; 0x80
    1310:	02db      	lsls	r3, r3, #11
    1312:	4313      	orrs	r3, r2
    1314:	607b      	str	r3, [r7, #4]
	while (((Sercom *)hw)->I2CM.SYNCBUSY.reg & reg) {
    1316:	2204      	movs	r2, #4
    1318:	69fb      	ldr	r3, [r7, #28]
    131a:	421a      	tst	r2, r3
    131c:	d1fc      	bne.n	1318 <_i2c_m_sync_transfer+0x4b8>
			if (msg->len == 0) {
    131e:	686b      	ldr	r3, [r5, #4]
    1320:	2b00      	cmp	r3, #0
    1322:	d100      	bne.n	1326 <_i2c_m_sync_transfer+0x4c6>
    1324:	e6cf      	b.n	10c6 <_i2c_m_sync_transfer+0x266>
    1326:	e6d6      	b.n	10d6 <_i2c_m_sync_transfer+0x276>
	tmp = ((Sercom *)hw)->I2CM.CTRLA.reg;
    1328:	6827      	ldr	r7, [r4, #0]
	while (((Sercom *)hw)->I2CM.SYNCBUSY.reg & reg) {
    132a:	69e0      	ldr	r0, [r4, #28]
    132c:	4202      	tst	r2, r0
    132e:	d1fc      	bne.n	132a <_i2c_m_sync_transfer+0x4ca>
	return ((Sercom *)hw)->I2CM.STATUS.reg;
    1330:	8b60      	ldrh	r0, [r4, #26]
    1332:	b280      	uxth	r0, r0
	if (flags & MB_FLAG) {
    1334:	4666      	mov	r6, ip
    1336:	421e      	tst	r6, r3
    1338:	d100      	bne.n	133c <_i2c_m_sync_transfer+0x4dc>
    133a:	e77f      	b.n	123c <_i2c_m_sync_transfer+0x3dc>
		if (status & SERCOM_I2CM_STATUS_ARBLOST) {
    133c:	464b      	mov	r3, r9
    133e:	4203      	tst	r3, r0
    1340:	d100      	bne.n	1344 <_i2c_m_sync_transfer+0x4e4>
    1342:	e719      	b.n	1178 <_i2c_m_sync_transfer+0x318>
	((Sercom *)hw)->I2CM.INTFLAG.reg = SERCOM_I2CM_INTFLAG_MB;
    1344:	7626      	strb	r6, [r4, #24]
			msg->flags |= I2C_M_FAIL;
    1346:	886b      	ldrh	r3, [r5, #2]
    1348:	2680      	movs	r6, #128	; 0x80
    134a:	0176      	lsls	r6, r6, #5
    134c:	4333      	orrs	r3, r6
    134e:	806b      	strh	r3, [r5, #2]
			msg->flags &= ~I2C_M_BUSY;
    1350:	886b      	ldrh	r3, [r5, #2]
    1352:	4e0f      	ldr	r6, [pc, #60]	; (1390 <_i2c_m_sync_transfer+0x530>)
    1354:	4033      	ands	r3, r6
    1356:	806b      	strh	r3, [r5, #2]
			if (status & SERCOM_I2CM_STATUS_BUSERR) {
    1358:	4663      	mov	r3, ip
    135a:	4018      	ands	r0, r3
			return I2C_ERR_BAD_ADDRESS;
    135c:	4246      	negs	r6, r0
    135e:	4146      	adcs	r6, r0
    1360:	1f73      	subs	r3, r6, #5
    1362:	9301      	str	r3, [sp, #4]
    1364:	e794      	b.n	1290 <_i2c_m_sync_transfer+0x430>
			if ((msg->len == 0 && !sclsm) || (msg->len == 1 && sclsm)) {
    1366:	2b01      	cmp	r3, #1
    1368:	d000      	beq.n	136c <_i2c_m_sync_transfer+0x50c>
    136a:	e784      	b.n	1276 <_i2c_m_sync_transfer+0x416>
    136c:	2f00      	cmp	r7, #0
    136e:	d100      	bne.n	1372 <_i2c_m_sync_transfer+0x512>
    1370:	e781      	b.n	1276 <_i2c_m_sync_transfer+0x416>
	((Sercom *)hw)->I2CM.CTRLB.reg |= SERCOM_I2CM_CTRLB_ACKACT;
    1372:	6860      	ldr	r0, [r4, #4]
    1374:	2380      	movs	r3, #128	; 0x80
    1376:	02db      	lsls	r3, r3, #11
    1378:	4303      	orrs	r3, r0
    137a:	6063      	str	r3, [r4, #4]
	while (((Sercom *)hw)->I2CM.SYNCBUSY.reg & reg) {
    137c:	69e3      	ldr	r3, [r4, #28]
    137e:	421a      	tst	r2, r3
    1380:	d1fc      	bne.n	137c <_i2c_m_sync_transfer+0x51c>
			if (msg->len == 0) {
    1382:	686b      	ldr	r3, [r5, #4]
    1384:	2b00      	cmp	r3, #0
    1386:	d100      	bne.n	138a <_i2c_m_sync_transfer+0x52a>
    1388:	e76d      	b.n	1266 <_i2c_m_sync_transfer+0x406>
    138a:	e774      	b.n	1276 <_i2c_m_sync_transfer+0x416>
    138c:	fffffbff 	.word	0xfffffbff
    1390:	fffffeff 	.word	0xfffffeff
    1394:	0000ffff 	.word	0x0000ffff

00001398 <_sysctrl_init_sources>:
}

static inline hri_sysctrl_osc8m_reg_t hri_sysctrl_read_OSC8M_CALIB_bf(const void *const hw)
{
	uint32_t tmp;
	tmp = ((Sysctrl *)hw)->OSC8M.reg;
    1398:	4b0e      	ldr	r3, [pc, #56]	; (13d4 <_sysctrl_init_sources+0x3c>)
    139a:	6a19      	ldr	r1, [r3, #32]
}

static inline hri_sysctrl_osc8m_reg_t hri_sysctrl_read_OSC8M_FRANGE_bf(const void *const hw)
{
	uint32_t tmp;
	tmp = ((Sysctrl *)hw)->OSC8M.reg;
    139c:	6a1a      	ldr	r2, [r3, #32]
	hri_sysctrl_write_OSC8M_reg(hw,
	                            SYSCTRL_OSC8M_FRANGE(hri_sysctrl_read_OSC8M_FRANGE_bf(hw)) |
#if CONF_OSC8M_OVERWRITE_CALIBRATION == 1
	                                SYSCTRL_OSC8M_CALIB(CONF_OSC8M_CALIB) |
#else
	                                SYSCTRL_OSC8M_CALIB(calib) |
    139e:	480e      	ldr	r0, [pc, #56]	; (13d8 <_sysctrl_init_sources+0x40>)
    13a0:	4001      	ands	r1, r0
	                            SYSCTRL_OSC8M_FRANGE(hri_sysctrl_read_OSC8M_FRANGE_bf(hw)) |
    13a2:	0f92      	lsrs	r2, r2, #30
    13a4:	0792      	lsls	r2, r2, #30
	hri_sysctrl_write_OSC8M_reg(hw,
    13a6:	2002      	movs	r0, #2
    13a8:	4302      	orrs	r2, r0
    13aa:	430a      	orrs	r2, r1
}

static inline void hri_sysctrl_write_OSC8M_reg(const void *const hw, hri_sysctrl_osc8m_reg_t data)
{
	SYSCTRL_CRITICAL_SECTION_ENTER();
	((Sysctrl *)hw)->OSC8M.reg = data;
    13ac:	621a      	str	r2, [r3, #32]
	((Sysctrl *)hw)->OSC32K.reg |= SYSCTRL_OSC32K_ENABLE;
    13ae:	699a      	ldr	r2, [r3, #24]
    13b0:	4302      	orrs	r2, r0
    13b2:	619a      	str	r2, [r3, #24]
	tmp = ((Sysctrl *)hw)->OSCULP32K.reg;
    13b4:	7f1a      	ldrb	r2, [r3, #28]
	tmp = (tmp & SYSCTRL_OSCULP32K_CALIB_Msk) >> SYSCTRL_OSCULP32K_CALIB_Pos;
    13b6:	211f      	movs	r1, #31
    13b8:	400a      	ands	r2, r1
	((Sysctrl *)hw)->OSCULP32K.reg = data;
    13ba:	771a      	strb	r2, [r3, #28]
	return (((Sysctrl *)hw)->PCLKSR.reg & SYSCTRL_PCLKSR_OSC8MRDY) >> SYSCTRL_PCLKSR_OSC8MRDY_Pos;
    13bc:	0019      	movs	r1, r3
#endif
#endif

#if CONF_OSC8M_CONFIG == 1
#if CONF_OSC8M_ENABLE == 1
	while (!hri_sysctrl_get_PCLKSR_OSC8MRDY_bit(hw))
    13be:	2208      	movs	r2, #8
    13c0:	68cb      	ldr	r3, [r1, #12]
    13c2:	421a      	tst	r2, r3
    13c4:	d0fc      	beq.n	13c0 <_sysctrl_init_sources+0x28>
	((Sysctrl *)hw)->OSC8M.reg |= SYSCTRL_OSC8M_ONDEMAND;
    13c6:	4a03      	ldr	r2, [pc, #12]	; (13d4 <_sysctrl_init_sources+0x3c>)
    13c8:	6a13      	ldr	r3, [r2, #32]
    13ca:	2180      	movs	r1, #128	; 0x80
    13cc:	430b      	orrs	r3, r1
    13ce:	6213      	str	r3, [r2, #32]
	hri_sysctrl_set_OSC8M_ONDEMAND_bit(hw);
#endif
#endif

	(void)calib, (void)hw;
}
    13d0:	4770      	bx	lr
    13d2:	46c0      	nop			; (mov r8, r8)
    13d4:	40000800 	.word	0x40000800
    13d8:	0fff0000 	.word	0x0fff0000

000013dc <_sysctrl_init_referenced_generators>:
	((Sysctrl *)hw)->OSC32K.reg &= ~SYSCTRL_OSC32K_ENABLE;
    13dc:	4a02      	ldr	r2, [pc, #8]	; (13e8 <_sysctrl_init_referenced_generators+0xc>)
    13de:	6993      	ldr	r3, [r2, #24]
    13e0:	2102      	movs	r1, #2
    13e2:	438b      	bics	r3, r1
    13e4:	6193      	str	r3, [r2, #24]
	/* Disable after all possible configurations needs sync written. */
	hri_sysctrl_clear_OSC32K_ENABLE_bit(hw);
#endif

	(void)hw;
}
    13e6:	4770      	bx	lr
    13e8:	40000800 	.word	0x40000800

000013ec <_delay_init>:
 * \brief Initialize system time module
 */
void _system_time_init(void *const hw)
{
	(void)hw;
	SysTick->LOAD = (0xFFFFFF << SysTick_LOAD_RELOAD_Pos);
    13ec:	4b02      	ldr	r3, [pc, #8]	; (13f8 <_delay_init+0xc>)
    13ee:	4a03      	ldr	r2, [pc, #12]	; (13fc <_delay_init+0x10>)
    13f0:	605a      	str	r2, [r3, #4]
	SysTick->CTRL = (1 << SysTick_CTRL_ENABLE_Pos) | (CONF_SYSTICK_TICKINT << SysTick_CTRL_TICKINT_Pos)
    13f2:	2205      	movs	r2, #5
    13f4:	601a      	str	r2, [r3, #0]
 * \brief Initialize delay functionality
 */
void _delay_init(void *const hw)
{
	_system_time_init(hw);
}
    13f6:	4770      	bx	lr
    13f8:	e000e010 	.word	0xe000e010
    13fc:	00ffffff 	.word	0x00ffffff

00001400 <_delay_cycles>:
}
/**
 * \brief Delay loop to delay n number of cycles
 */
void _delay_cycles(void *const hw, uint32_t cycles)
{
    1400:	b570      	push	{r4, r5, r6, lr}
	(void)hw;
	uint8_t  n   = cycles >> 24;
    1402:	0e0b      	lsrs	r3, r1, #24
	uint32_t buf = cycles;

	while (n--) {
    1404:	1e5e      	subs	r6, r3, #1
    1406:	b2f6      	uxtb	r6, r6
    1408:	2b00      	cmp	r3, #0
    140a:	d013      	beq.n	1434 <_delay_cycles+0x34>
    140c:	0034      	movs	r4, r6
		SysTick->LOAD = 0xFFFFFF;
    140e:	4a0e      	ldr	r2, [pc, #56]	; (1448 <_delay_cycles+0x48>)
    1410:	4d0e      	ldr	r5, [pc, #56]	; (144c <_delay_cycles+0x4c>)
		SysTick->VAL  = 0xFFFFFF;
		while (!(SysTick->CTRL & SysTick_CTRL_COUNTFLAG_Msk))
    1412:	2080      	movs	r0, #128	; 0x80
    1414:	0240      	lsls	r0, r0, #9
		SysTick->LOAD = 0xFFFFFF;
    1416:	6055      	str	r5, [r2, #4]
		SysTick->VAL  = 0xFFFFFF;
    1418:	6095      	str	r5, [r2, #8]
		while (!(SysTick->CTRL & SysTick_CTRL_COUNTFLAG_Msk))
    141a:	6813      	ldr	r3, [r2, #0]
    141c:	4203      	tst	r3, r0
    141e:	d0fc      	beq.n	141a <_delay_cycles+0x1a>
	while (n--) {
    1420:	3c01      	subs	r4, #1
    1422:	b2e4      	uxtb	r4, r4
    1424:	2cff      	cmp	r4, #255	; 0xff
    1426:	d1f6      	bne.n	1416 <_delay_cycles+0x16>
    1428:	0633      	lsls	r3, r6, #24
    142a:	1af6      	subs	r6, r6, r3
    142c:	4b08      	ldr	r3, [pc, #32]	; (1450 <_delay_cycles+0x50>)
    142e:	469c      	mov	ip, r3
    1430:	4461      	add	r1, ip
    1432:	1871      	adds	r1, r6, r1
			;
		buf -= 0xFFFFFF;
	}

	SysTick->LOAD = buf;
    1434:	4b04      	ldr	r3, [pc, #16]	; (1448 <_delay_cycles+0x48>)
    1436:	6059      	str	r1, [r3, #4]
	SysTick->VAL  = buf;
    1438:	6099      	str	r1, [r3, #8]
	while (!(SysTick->CTRL & SysTick_CTRL_COUNTFLAG_Msk))
    143a:	0019      	movs	r1, r3
    143c:	2280      	movs	r2, #128	; 0x80
    143e:	0252      	lsls	r2, r2, #9
    1440:	680b      	ldr	r3, [r1, #0]
    1442:	4213      	tst	r3, r2
    1444:	d0fc      	beq.n	1440 <_delay_cycles+0x40>
		;
}
    1446:	bd70      	pop	{r4, r5, r6, pc}
    1448:	e000e010 	.word	0xe000e010
    144c:	00ffffff 	.word	0x00ffffff
    1450:	ff000001 	.word	0xff000001

00001454 <main>:
	adxl34x_set_mapInterrupt(&adxl345,ADXL34x_IRQ2,irq_map_single_tap);
	delay_ms(100);
	printf("irq map %d\r\n",adxl34x_get_mapInterrupt(&adxl345));
}
int main(void)
{
    1454:	b5f0      	push	{r4, r5, r6, r7, lr}
    1456:	46c6      	mov	lr, r8
    1458:	b500      	push	{lr}
    145a:	b086      	sub	sp, #24
	atmel_start_init();
    145c:	4b38      	ldr	r3, [pc, #224]	; (1540 <main+0xec>)
    145e:	4798      	blx	r3
	i2c_m_sync_set_slaveaddr(&I2C_ADXL345, ADXL34x_ADDRESS, I2C_M_SEVEN);
    1460:	4c38      	ldr	r4, [pc, #224]	; (1544 <main+0xf0>)
    1462:	2280      	movs	r2, #128	; 0x80
    1464:	0112      	lsls	r2, r2, #4
    1466:	2153      	movs	r1, #83	; 0x53
    1468:	0020      	movs	r0, r4
    146a:	4b37      	ldr	r3, [pc, #220]	; (1548 <main+0xf4>)
    146c:	4798      	blx	r3
	i2c_m_sync_enable(&I2C_ADXL345);
    146e:	0020      	movs	r0, r4
    1470:	4b36      	ldr	r3, [pc, #216]	; (154c <main+0xf8>)
    1472:	4798      	blx	r3
	printf("\r\nStart ADXL345 Test\r\n");
    1474:	4836      	ldr	r0, [pc, #216]	; (1550 <main+0xfc>)
    1476:	4b37      	ldr	r3, [pc, #220]	; (1554 <main+0x100>)
    1478:	4798      	blx	r3
	uint8_t checkinit= adxl34x_init(&adxl345);
    147a:	4837      	ldr	r0, [pc, #220]	; (1558 <main+0x104>)
    147c:	4b37      	ldr	r3, [pc, #220]	; (155c <main+0x108>)
    147e:	4798      	blx	r3
	if (checkinit != adxl_error_non)
    1480:	2800      	cmp	r0, #0
    1482:	d159      	bne.n	1538 <main+0xe4>
		printf("*** error initi ! ****\r\n");
	}
	/*enable this line if you want to enable IRQ functionality*/
	// config_adxl_IRQ();
	/*set the data range and  data rate adxl34x_set_Range*/
	adxl34x_set_DataRate(&adxl345,ADXL34x_DATARATE_100_HZ);
    1484:	4c34      	ldr	r4, [pc, #208]	; (1558 <main+0x104>)
    1486:	210a      	movs	r1, #10
    1488:	0020      	movs	r0, r4
    148a:	4b35      	ldr	r3, [pc, #212]	; (1560 <main+0x10c>)
    148c:	4798      	blx	r3
	delay_ms(10);
    148e:	200a      	movs	r0, #10
    1490:	4d34      	ldr	r5, [pc, #208]	; (1564 <main+0x110>)
    1492:	47a8      	blx	r5
	adxl34x_set_Range(&adxl345,ADXL343_RANGE_16_G);
    1494:	2103      	movs	r1, #3
    1496:	0020      	movs	r0, r4
    1498:	4b33      	ldr	r3, [pc, #204]	; (1568 <main+0x114>)
    149a:	4798      	blx	r3
	delay_ms(100);
    149c:	2064      	movs	r0, #100	; 0x64
    149e:	47a8      	blx	r5
	uint8_t getRange=adxl34x_get_Range(&adxl345);
    14a0:	0020      	movs	r0, r4
    14a2:	4b32      	ldr	r3, [pc, #200]	; (156c <main+0x118>)
    14a4:	4798      	blx	r3
    14a6:	0006      	movs	r6, r0
	delay_ms(10);
    14a8:	200a      	movs	r0, #10
    14aa:	47a8      	blx	r5
	uint8_t dataRate=adxl34x_get_DataRate(&adxl345);	
    14ac:	0020      	movs	r0, r4
    14ae:	4b30      	ldr	r3, [pc, #192]	; (1570 <main+0x11c>)
    14b0:	4798      	blx	r3
    14b2:	0002      	movs	r2, r0
	printf("range: 0x%02X    Rate: 0x%0X \r\n",getRange,dataRate);
    14b4:	0031      	movs	r1, r6
    14b6:	482f      	ldr	r0, [pc, #188]	; (1574 <main+0x120>)
    14b8:	4b2f      	ldr	r3, [pc, #188]	; (1578 <main+0x124>)
    14ba:	4798      	blx	r3
	//adxl34x_set_axisOffset(&adxl345,-5,-2,3);
	printf("Run zero offset test ... please wait\r\n");
    14bc:	482f      	ldr	r0, [pc, #188]	; (157c <main+0x128>)
    14be:	4b25      	ldr	r3, [pc, #148]	; (1554 <main+0x100>)
    14c0:	4798      	blx	r3
	adxl34x_set_zeroOffset(&adxl345);
    14c2:	0020      	movs	r0, r4
    14c4:	4b2e      	ldr	r3, [pc, #184]	; (1580 <main+0x12c>)
    14c6:	4798      	blx	r3
	delay_ms(2000);
    14c8:	20fa      	movs	r0, #250	; 0xfa
    14ca:	00c0      	lsls	r0, r0, #3
    14cc:	47a8      	blx	r5
	//adxl34x_set_axisOffset(&adxl345,-1,0,0);
	while (true) 
	{
		adxl34x_refresh_xyz(&adxl345);
    14ce:	4c22      	ldr	r4, [pc, #136]	; (1558 <main+0x104>)
    14d0:	4f2c      	ldr	r7, [pc, #176]	; (1584 <main+0x130>)
		adxl34x_get_axisOffset(&adxl345);
    14d2:	4b2d      	ldr	r3, [pc, #180]	; (1588 <main+0x134>)
    14d4:	4698      	mov	r8, r3
		adxl34x_refresh_xyz(&adxl345);
    14d6:	0020      	movs	r0, r4
    14d8:	47b8      	blx	r7
		adxl34x_get_axisOffset(&adxl345);
    14da:	0020      	movs	r0, r4
    14dc:	47c0      	blx	r8
		printf("raw_x= %03d		raw_y= %03d		raw_z= %03d\r\n",adxl345.raw_x,adxl345.raw_y,adxl345.raw_z);
    14de:	2210      	movs	r2, #16
    14e0:	5ea3      	ldrsh	r3, [r4, r2]
    14e2:	210e      	movs	r1, #14
    14e4:	5e62      	ldrsh	r2, [r4, r1]
    14e6:	200c      	movs	r0, #12
    14e8:	5e21      	ldrsh	r1, [r4, r0]
    14ea:	4828      	ldr	r0, [pc, #160]	; (158c <main+0x138>)
    14ec:	4d22      	ldr	r5, [pc, #136]	; (1578 <main+0x124>)
    14ee:	47a8      	blx	r5
		printf("x: %2.4f		y: %2.4f		z: %2.4f \r\n",adxl345.x_axis,adxl345.y_axis,adxl345.z_axis);
    14f0:	4e27      	ldr	r6, [pc, #156]	; (1590 <main+0x13c>)
    14f2:	6820      	ldr	r0, [r4, #0]
    14f4:	47b0      	blx	r6
    14f6:	9004      	str	r0, [sp, #16]
    14f8:	9105      	str	r1, [sp, #20]
    14fa:	68a0      	ldr	r0, [r4, #8]
    14fc:	47b0      	blx	r6
    14fe:	9002      	str	r0, [sp, #8]
    1500:	9103      	str	r1, [sp, #12]
    1502:	6860      	ldr	r0, [r4, #4]
    1504:	47b0      	blx	r6
    1506:	9000      	str	r0, [sp, #0]
    1508:	9101      	str	r1, [sp, #4]
    150a:	9a04      	ldr	r2, [sp, #16]
    150c:	9b05      	ldr	r3, [sp, #20]
    150e:	4821      	ldr	r0, [pc, #132]	; (1594 <main+0x140>)
    1510:	47a8      	blx	r5
		printf("offset x=%d		offset_y=%d			 offset_z=%d\r\n",adxl345.offset_x_axis,adxl345.offset_y_axis,adxl345.offset_z_axis);
    1512:	221c      	movs	r2, #28
    1514:	5ea3      	ldrsh	r3, [r4, r2]
    1516:	211a      	movs	r1, #26
    1518:	5e62      	ldrsh	r2, [r4, r1]
    151a:	2018      	movs	r0, #24
    151c:	5e21      	ldrsh	r1, [r4, r0]
    151e:	481e      	ldr	r0, [pc, #120]	; (1598 <main+0x144>)
    1520:	47a8      	blx	r5
		delay_ms(500);
    1522:	20fa      	movs	r0, #250	; 0xfa
    1524:	0040      	lsls	r0, r0, #1
    1526:	4b0f      	ldr	r3, [pc, #60]	; (1564 <main+0x110>)
    1528:	4798      	blx	r3
	((Port *)hw)->Group[submodule_index].OUTTGL.reg = mask;
    152a:	2180      	movs	r1, #128	; 0x80
    152c:	05c9      	lsls	r1, r1, #23
    152e:	239c      	movs	r3, #156	; 0x9c
    1530:	22c0      	movs	r2, #192	; 0xc0
    1532:	05d2      	lsls	r2, r2, #23
    1534:	50d1      	str	r1, [r2, r3]
    1536:	e7ce      	b.n	14d6 <main+0x82>
		printf("*** error initi ! ****\r\n");
    1538:	4818      	ldr	r0, [pc, #96]	; (159c <main+0x148>)
    153a:	4b06      	ldr	r3, [pc, #24]	; (1554 <main+0x100>)
    153c:	4798      	blx	r3
    153e:	e7a1      	b.n	1484 <main+0x30>
    1540:	00000541 	.word	0x00000541
    1544:	20000a2c 	.word	0x20000a2c
    1548:	000008ad 	.word	0x000008ad
    154c:	000008a1 	.word	0x000008a1
    1550:	00008858 	.word	0x00008858
    1554:	00003449 	.word	0x00003449
    1558:	20000a4c 	.word	0x20000a4c
    155c:	00000115 	.word	0x00000115
    1560:	000001c9 	.word	0x000001c9
    1564:	000007e1 	.word	0x000007e1
    1568:	00000161 	.word	0x00000161
    156c:	000001b5 	.word	0x000001b5
    1570:	000001dd 	.word	0x000001dd
    1574:	00008888 	.word	0x00008888
    1578:	00003385 	.word	0x00003385
    157c:	000088a8 	.word	0x000088a8
    1580:	000002c5 	.word	0x000002c5
    1584:	000001f1 	.word	0x000001f1
    1588:	00000285 	.word	0x00000285
    158c:	000088d0 	.word	0x000088d0
    1590:	00002e21 	.word	0x00002e21
    1594:	000088f8 	.word	0x000088f8
    1598:	00008918 	.word	0x00008918
    159c:	00008870 	.word	0x00008870

000015a0 <_read>:
#include <stdio.h>

int __attribute__((weak)) _read(int file, char *ptr, int len); /* Remove GCC compiler warning */

int __attribute__((weak)) _read(int file, char *ptr, int len)
{
    15a0:	b510      	push	{r4, lr}
    15a2:	000b      	movs	r3, r1
	int n = 0;

	if (file != 0) {
    15a4:	2800      	cmp	r0, #0
    15a6:	d109      	bne.n	15bc <_read+0x1c>
		return -1;
	}

	n = stdio_io_read((uint8_t *)ptr, len);
    15a8:	0011      	movs	r1, r2
    15aa:	0018      	movs	r0, r3
    15ac:	4b05      	ldr	r3, [pc, #20]	; (15c4 <_read+0x24>)
    15ae:	4798      	blx	r3
    15b0:	2800      	cmp	r0, #0
    15b2:	db00      	blt.n	15b6 <_read+0x16>
	if (n < 0) {
		return -1;
	}

	return n;
}
    15b4:	bd10      	pop	{r4, pc}
    15b6:	2001      	movs	r0, #1
    15b8:	4240      	negs	r0, r0
    15ba:	e7fb      	b.n	15b4 <_read+0x14>
		return -1;
    15bc:	2001      	movs	r0, #1
    15be:	4240      	negs	r0, r0
    15c0:	e7f8      	b.n	15b4 <_read+0x14>
    15c2:	46c0      	nop			; (mov r8, r8)
    15c4:	0000161d 	.word	0x0000161d

000015c8 <_write>:
#include <stdio.h>

int __attribute__((weak)) _write(int file, char *ptr, int len); /* Remove GCC compiler warning */

int __attribute__((weak)) _write(int file, char *ptr, int len)
{
    15c8:	b510      	push	{r4, lr}
    15ca:	000b      	movs	r3, r1
	int n = 0;

	if ((file != 1) && (file != 2) && (file != 3)) {
    15cc:	3801      	subs	r0, #1
    15ce:	2802      	cmp	r0, #2
    15d0:	d809      	bhi.n	15e6 <_write+0x1e>
		return -1;
	}

	n = stdio_io_write((const uint8_t *)ptr, len);
    15d2:	0011      	movs	r1, r2
    15d4:	0018      	movs	r0, r3
    15d6:	4b05      	ldr	r3, [pc, #20]	; (15ec <_write+0x24>)
    15d8:	4798      	blx	r3
    15da:	2800      	cmp	r0, #0
    15dc:	db00      	blt.n	15e0 <_write+0x18>
	if (n < 0) {
		return -1;
	}

	return n;
}
    15de:	bd10      	pop	{r4, pc}
    15e0:	2001      	movs	r0, #1
    15e2:	4240      	negs	r0, r0
    15e4:	e7fb      	b.n	15de <_write+0x16>
		return -1;
    15e6:	2001      	movs	r0, #1
    15e8:	4240      	negs	r0, r0
    15ea:	e7f8      	b.n	15de <_write+0x16>
    15ec:	00001641 	.word	0x00001641

000015f0 <stdio_io_init>:

/** IO descriptor for STDIO access. */
static struct io_descriptor *stdio_io = NULL;

void stdio_io_init(struct io_descriptor *io)
{
    15f0:	b570      	push	{r4, r5, r6, lr}
    15f2:	0006      	movs	r6, r0
#if defined(__GNUC__)
	/* Specify that stdout and stdin should not be buffered. */
	setbuf(stdout, NULL);
    15f4:	4d06      	ldr	r5, [pc, #24]	; (1610 <stdio_io_init+0x20>)
    15f6:	682b      	ldr	r3, [r5, #0]
    15f8:	6898      	ldr	r0, [r3, #8]
    15fa:	2100      	movs	r1, #0
    15fc:	4c05      	ldr	r4, [pc, #20]	; (1614 <stdio_io_init+0x24>)
    15fe:	47a0      	blx	r4
	setbuf(stdin, NULL);
    1600:	682b      	ldr	r3, [r5, #0]
    1602:	6858      	ldr	r0, [r3, #4]
    1604:	2100      	movs	r1, #0
    1606:	47a0      	blx	r4
	 * and AVR GCC library:
	 * - printf() emits one character at a time.
	 * - getchar() requests only 1 byte to exit.
	 */
#endif
	stdio_io = io;
    1608:	4b03      	ldr	r3, [pc, #12]	; (1618 <stdio_io_init+0x28>)
    160a:	601e      	str	r6, [r3, #0]
}
    160c:	bd70      	pop	{r4, r5, r6, pc}
    160e:	46c0      	nop			; (mov r8, r8)
    1610:	20000000 	.word	0x20000000
    1614:	0000345d 	.word	0x0000345d
    1618:	200009dc 	.word	0x200009dc

0000161c <stdio_io_read>:
{
	stdio_io = io;
}

int32_t stdio_io_read(uint8_t *buf, const int32_t len)
{
    161c:	b510      	push	{r4, lr}
    161e:	0004      	movs	r4, r0
	if (stdio_io == NULL) {
    1620:	4b05      	ldr	r3, [pc, #20]	; (1638 <stdio_io_read+0x1c>)
    1622:	6818      	ldr	r0, [r3, #0]
    1624:	2800      	cmp	r0, #0
    1626:	d004      	beq.n	1632 <stdio_io_read+0x16>
		return 0;
	}
	return io_read(stdio_io, buf, len);
    1628:	b28a      	uxth	r2, r1
    162a:	0021      	movs	r1, r4
    162c:	4b03      	ldr	r3, [pc, #12]	; (163c <stdio_io_read+0x20>)
    162e:	4798      	blx	r3
}
    1630:	bd10      	pop	{r4, pc}
		return 0;
    1632:	2000      	movs	r0, #0
    1634:	e7fc      	b.n	1630 <stdio_io_read+0x14>
    1636:	46c0      	nop			; (mov r8, r8)
    1638:	200009dc 	.word	0x200009dc
    163c:	00000949 	.word	0x00000949

00001640 <stdio_io_write>:

int32_t stdio_io_write(const uint8_t *buf, const int32_t len)
{
    1640:	b510      	push	{r4, lr}
    1642:	0004      	movs	r4, r0
	if (stdio_io == NULL) {
    1644:	4b05      	ldr	r3, [pc, #20]	; (165c <stdio_io_write+0x1c>)
    1646:	6818      	ldr	r0, [r3, #0]
    1648:	2800      	cmp	r0, #0
    164a:	d004      	beq.n	1656 <stdio_io_write+0x16>
		return 0;
	}
	return io_write(stdio_io, buf, len);
    164c:	b28a      	uxth	r2, r1
    164e:	0021      	movs	r1, r4
    1650:	4b03      	ldr	r3, [pc, #12]	; (1660 <stdio_io_write+0x20>)
    1652:	4798      	blx	r3
}
    1654:	bd10      	pop	{r4, pc}
		return 0;
    1656:	2000      	movs	r0, #0
    1658:	e7fc      	b.n	1654 <stdio_io_write+0x14>
    165a:	46c0      	nop			; (mov r8, r8)
    165c:	200009dc 	.word	0x200009dc
    1660:	00000915 	.word	0x00000915

00001664 <stdio_redirect_init>:
	/* Print welcome message */
	printf("\r\nHello ATMEL World!\r\n");
}

void stdio_redirect_init(void)
{
    1664:	b510      	push	{r4, lr}

	usart_sync_enable(&TARGET_IO);
    1666:	4c04      	ldr	r4, [pc, #16]	; (1678 <stdio_redirect_init+0x14>)
    1668:	0020      	movs	r0, r4
    166a:	4b04      	ldr	r3, [pc, #16]	; (167c <stdio_redirect_init+0x18>)
    166c:	4798      	blx	r3
	stdio_io_init(&TARGET_IO.io);
    166e:	0020      	movs	r0, r4
    1670:	4b03      	ldr	r3, [pc, #12]	; (1680 <stdio_redirect_init+0x1c>)
    1672:	4798      	blx	r3
}
    1674:	bd10      	pop	{r4, pc}
    1676:	46c0      	nop			; (mov r8, r8)
    1678:	20000a20 	.word	0x20000a20
    167c:	00000aad 	.word	0x00000aad
    1680:	000015f1 	.word	0x000015f1

00001684 <__udivsi3>:
    1684:	2200      	movs	r2, #0
    1686:	0843      	lsrs	r3, r0, #1
    1688:	428b      	cmp	r3, r1
    168a:	d374      	bcc.n	1776 <__udivsi3+0xf2>
    168c:	0903      	lsrs	r3, r0, #4
    168e:	428b      	cmp	r3, r1
    1690:	d35f      	bcc.n	1752 <__udivsi3+0xce>
    1692:	0a03      	lsrs	r3, r0, #8
    1694:	428b      	cmp	r3, r1
    1696:	d344      	bcc.n	1722 <__udivsi3+0x9e>
    1698:	0b03      	lsrs	r3, r0, #12
    169a:	428b      	cmp	r3, r1
    169c:	d328      	bcc.n	16f0 <__udivsi3+0x6c>
    169e:	0c03      	lsrs	r3, r0, #16
    16a0:	428b      	cmp	r3, r1
    16a2:	d30d      	bcc.n	16c0 <__udivsi3+0x3c>
    16a4:	22ff      	movs	r2, #255	; 0xff
    16a6:	0209      	lsls	r1, r1, #8
    16a8:	ba12      	rev	r2, r2
    16aa:	0c03      	lsrs	r3, r0, #16
    16ac:	428b      	cmp	r3, r1
    16ae:	d302      	bcc.n	16b6 <__udivsi3+0x32>
    16b0:	1212      	asrs	r2, r2, #8
    16b2:	0209      	lsls	r1, r1, #8
    16b4:	d065      	beq.n	1782 <__udivsi3+0xfe>
    16b6:	0b03      	lsrs	r3, r0, #12
    16b8:	428b      	cmp	r3, r1
    16ba:	d319      	bcc.n	16f0 <__udivsi3+0x6c>
    16bc:	e000      	b.n	16c0 <__udivsi3+0x3c>
    16be:	0a09      	lsrs	r1, r1, #8
    16c0:	0bc3      	lsrs	r3, r0, #15
    16c2:	428b      	cmp	r3, r1
    16c4:	d301      	bcc.n	16ca <__udivsi3+0x46>
    16c6:	03cb      	lsls	r3, r1, #15
    16c8:	1ac0      	subs	r0, r0, r3
    16ca:	4152      	adcs	r2, r2
    16cc:	0b83      	lsrs	r3, r0, #14
    16ce:	428b      	cmp	r3, r1
    16d0:	d301      	bcc.n	16d6 <__udivsi3+0x52>
    16d2:	038b      	lsls	r3, r1, #14
    16d4:	1ac0      	subs	r0, r0, r3
    16d6:	4152      	adcs	r2, r2
    16d8:	0b43      	lsrs	r3, r0, #13
    16da:	428b      	cmp	r3, r1
    16dc:	d301      	bcc.n	16e2 <__udivsi3+0x5e>
    16de:	034b      	lsls	r3, r1, #13
    16e0:	1ac0      	subs	r0, r0, r3
    16e2:	4152      	adcs	r2, r2
    16e4:	0b03      	lsrs	r3, r0, #12
    16e6:	428b      	cmp	r3, r1
    16e8:	d301      	bcc.n	16ee <__udivsi3+0x6a>
    16ea:	030b      	lsls	r3, r1, #12
    16ec:	1ac0      	subs	r0, r0, r3
    16ee:	4152      	adcs	r2, r2
    16f0:	0ac3      	lsrs	r3, r0, #11
    16f2:	428b      	cmp	r3, r1
    16f4:	d301      	bcc.n	16fa <__udivsi3+0x76>
    16f6:	02cb      	lsls	r3, r1, #11
    16f8:	1ac0      	subs	r0, r0, r3
    16fa:	4152      	adcs	r2, r2
    16fc:	0a83      	lsrs	r3, r0, #10
    16fe:	428b      	cmp	r3, r1
    1700:	d301      	bcc.n	1706 <__udivsi3+0x82>
    1702:	028b      	lsls	r3, r1, #10
    1704:	1ac0      	subs	r0, r0, r3
    1706:	4152      	adcs	r2, r2
    1708:	0a43      	lsrs	r3, r0, #9
    170a:	428b      	cmp	r3, r1
    170c:	d301      	bcc.n	1712 <__udivsi3+0x8e>
    170e:	024b      	lsls	r3, r1, #9
    1710:	1ac0      	subs	r0, r0, r3
    1712:	4152      	adcs	r2, r2
    1714:	0a03      	lsrs	r3, r0, #8
    1716:	428b      	cmp	r3, r1
    1718:	d301      	bcc.n	171e <__udivsi3+0x9a>
    171a:	020b      	lsls	r3, r1, #8
    171c:	1ac0      	subs	r0, r0, r3
    171e:	4152      	adcs	r2, r2
    1720:	d2cd      	bcs.n	16be <__udivsi3+0x3a>
    1722:	09c3      	lsrs	r3, r0, #7
    1724:	428b      	cmp	r3, r1
    1726:	d301      	bcc.n	172c <__udivsi3+0xa8>
    1728:	01cb      	lsls	r3, r1, #7
    172a:	1ac0      	subs	r0, r0, r3
    172c:	4152      	adcs	r2, r2
    172e:	0983      	lsrs	r3, r0, #6
    1730:	428b      	cmp	r3, r1
    1732:	d301      	bcc.n	1738 <__udivsi3+0xb4>
    1734:	018b      	lsls	r3, r1, #6
    1736:	1ac0      	subs	r0, r0, r3
    1738:	4152      	adcs	r2, r2
    173a:	0943      	lsrs	r3, r0, #5
    173c:	428b      	cmp	r3, r1
    173e:	d301      	bcc.n	1744 <__udivsi3+0xc0>
    1740:	014b      	lsls	r3, r1, #5
    1742:	1ac0      	subs	r0, r0, r3
    1744:	4152      	adcs	r2, r2
    1746:	0903      	lsrs	r3, r0, #4
    1748:	428b      	cmp	r3, r1
    174a:	d301      	bcc.n	1750 <__udivsi3+0xcc>
    174c:	010b      	lsls	r3, r1, #4
    174e:	1ac0      	subs	r0, r0, r3
    1750:	4152      	adcs	r2, r2
    1752:	08c3      	lsrs	r3, r0, #3
    1754:	428b      	cmp	r3, r1
    1756:	d301      	bcc.n	175c <__udivsi3+0xd8>
    1758:	00cb      	lsls	r3, r1, #3
    175a:	1ac0      	subs	r0, r0, r3
    175c:	4152      	adcs	r2, r2
    175e:	0883      	lsrs	r3, r0, #2
    1760:	428b      	cmp	r3, r1
    1762:	d301      	bcc.n	1768 <__udivsi3+0xe4>
    1764:	008b      	lsls	r3, r1, #2
    1766:	1ac0      	subs	r0, r0, r3
    1768:	4152      	adcs	r2, r2
    176a:	0843      	lsrs	r3, r0, #1
    176c:	428b      	cmp	r3, r1
    176e:	d301      	bcc.n	1774 <__udivsi3+0xf0>
    1770:	004b      	lsls	r3, r1, #1
    1772:	1ac0      	subs	r0, r0, r3
    1774:	4152      	adcs	r2, r2
    1776:	1a41      	subs	r1, r0, r1
    1778:	d200      	bcs.n	177c <__udivsi3+0xf8>
    177a:	4601      	mov	r1, r0
    177c:	4152      	adcs	r2, r2
    177e:	4610      	mov	r0, r2
    1780:	4770      	bx	lr
    1782:	e7ff      	b.n	1784 <__udivsi3+0x100>
    1784:	b501      	push	{r0, lr}
    1786:	2000      	movs	r0, #0
    1788:	f000 f8f0 	bl	196c <__aeabi_idiv0>
    178c:	bd02      	pop	{r1, pc}
    178e:	46c0      	nop			; (mov r8, r8)

00001790 <__aeabi_uidivmod>:
    1790:	2900      	cmp	r1, #0
    1792:	d0f7      	beq.n	1784 <__udivsi3+0x100>
    1794:	e776      	b.n	1684 <__udivsi3>
    1796:	4770      	bx	lr

00001798 <__divsi3>:
    1798:	4603      	mov	r3, r0
    179a:	430b      	orrs	r3, r1
    179c:	d47f      	bmi.n	189e <__divsi3+0x106>
    179e:	2200      	movs	r2, #0
    17a0:	0843      	lsrs	r3, r0, #1
    17a2:	428b      	cmp	r3, r1
    17a4:	d374      	bcc.n	1890 <__divsi3+0xf8>
    17a6:	0903      	lsrs	r3, r0, #4
    17a8:	428b      	cmp	r3, r1
    17aa:	d35f      	bcc.n	186c <__divsi3+0xd4>
    17ac:	0a03      	lsrs	r3, r0, #8
    17ae:	428b      	cmp	r3, r1
    17b0:	d344      	bcc.n	183c <__divsi3+0xa4>
    17b2:	0b03      	lsrs	r3, r0, #12
    17b4:	428b      	cmp	r3, r1
    17b6:	d328      	bcc.n	180a <__divsi3+0x72>
    17b8:	0c03      	lsrs	r3, r0, #16
    17ba:	428b      	cmp	r3, r1
    17bc:	d30d      	bcc.n	17da <__divsi3+0x42>
    17be:	22ff      	movs	r2, #255	; 0xff
    17c0:	0209      	lsls	r1, r1, #8
    17c2:	ba12      	rev	r2, r2
    17c4:	0c03      	lsrs	r3, r0, #16
    17c6:	428b      	cmp	r3, r1
    17c8:	d302      	bcc.n	17d0 <__divsi3+0x38>
    17ca:	1212      	asrs	r2, r2, #8
    17cc:	0209      	lsls	r1, r1, #8
    17ce:	d065      	beq.n	189c <__divsi3+0x104>
    17d0:	0b03      	lsrs	r3, r0, #12
    17d2:	428b      	cmp	r3, r1
    17d4:	d319      	bcc.n	180a <__divsi3+0x72>
    17d6:	e000      	b.n	17da <__divsi3+0x42>
    17d8:	0a09      	lsrs	r1, r1, #8
    17da:	0bc3      	lsrs	r3, r0, #15
    17dc:	428b      	cmp	r3, r1
    17de:	d301      	bcc.n	17e4 <__divsi3+0x4c>
    17e0:	03cb      	lsls	r3, r1, #15
    17e2:	1ac0      	subs	r0, r0, r3
    17e4:	4152      	adcs	r2, r2
    17e6:	0b83      	lsrs	r3, r0, #14
    17e8:	428b      	cmp	r3, r1
    17ea:	d301      	bcc.n	17f0 <__divsi3+0x58>
    17ec:	038b      	lsls	r3, r1, #14
    17ee:	1ac0      	subs	r0, r0, r3
    17f0:	4152      	adcs	r2, r2
    17f2:	0b43      	lsrs	r3, r0, #13
    17f4:	428b      	cmp	r3, r1
    17f6:	d301      	bcc.n	17fc <__divsi3+0x64>
    17f8:	034b      	lsls	r3, r1, #13
    17fa:	1ac0      	subs	r0, r0, r3
    17fc:	4152      	adcs	r2, r2
    17fe:	0b03      	lsrs	r3, r0, #12
    1800:	428b      	cmp	r3, r1
    1802:	d301      	bcc.n	1808 <__divsi3+0x70>
    1804:	030b      	lsls	r3, r1, #12
    1806:	1ac0      	subs	r0, r0, r3
    1808:	4152      	adcs	r2, r2
    180a:	0ac3      	lsrs	r3, r0, #11
    180c:	428b      	cmp	r3, r1
    180e:	d301      	bcc.n	1814 <__divsi3+0x7c>
    1810:	02cb      	lsls	r3, r1, #11
    1812:	1ac0      	subs	r0, r0, r3
    1814:	4152      	adcs	r2, r2
    1816:	0a83      	lsrs	r3, r0, #10
    1818:	428b      	cmp	r3, r1
    181a:	d301      	bcc.n	1820 <__divsi3+0x88>
    181c:	028b      	lsls	r3, r1, #10
    181e:	1ac0      	subs	r0, r0, r3
    1820:	4152      	adcs	r2, r2
    1822:	0a43      	lsrs	r3, r0, #9
    1824:	428b      	cmp	r3, r1
    1826:	d301      	bcc.n	182c <__divsi3+0x94>
    1828:	024b      	lsls	r3, r1, #9
    182a:	1ac0      	subs	r0, r0, r3
    182c:	4152      	adcs	r2, r2
    182e:	0a03      	lsrs	r3, r0, #8
    1830:	428b      	cmp	r3, r1
    1832:	d301      	bcc.n	1838 <__divsi3+0xa0>
    1834:	020b      	lsls	r3, r1, #8
    1836:	1ac0      	subs	r0, r0, r3
    1838:	4152      	adcs	r2, r2
    183a:	d2cd      	bcs.n	17d8 <__divsi3+0x40>
    183c:	09c3      	lsrs	r3, r0, #7
    183e:	428b      	cmp	r3, r1
    1840:	d301      	bcc.n	1846 <__divsi3+0xae>
    1842:	01cb      	lsls	r3, r1, #7
    1844:	1ac0      	subs	r0, r0, r3
    1846:	4152      	adcs	r2, r2
    1848:	0983      	lsrs	r3, r0, #6
    184a:	428b      	cmp	r3, r1
    184c:	d301      	bcc.n	1852 <__divsi3+0xba>
    184e:	018b      	lsls	r3, r1, #6
    1850:	1ac0      	subs	r0, r0, r3
    1852:	4152      	adcs	r2, r2
    1854:	0943      	lsrs	r3, r0, #5
    1856:	428b      	cmp	r3, r1
    1858:	d301      	bcc.n	185e <__divsi3+0xc6>
    185a:	014b      	lsls	r3, r1, #5
    185c:	1ac0      	subs	r0, r0, r3
    185e:	4152      	adcs	r2, r2
    1860:	0903      	lsrs	r3, r0, #4
    1862:	428b      	cmp	r3, r1
    1864:	d301      	bcc.n	186a <__divsi3+0xd2>
    1866:	010b      	lsls	r3, r1, #4
    1868:	1ac0      	subs	r0, r0, r3
    186a:	4152      	adcs	r2, r2
    186c:	08c3      	lsrs	r3, r0, #3
    186e:	428b      	cmp	r3, r1
    1870:	d301      	bcc.n	1876 <__divsi3+0xde>
    1872:	00cb      	lsls	r3, r1, #3
    1874:	1ac0      	subs	r0, r0, r3
    1876:	4152      	adcs	r2, r2
    1878:	0883      	lsrs	r3, r0, #2
    187a:	428b      	cmp	r3, r1
    187c:	d301      	bcc.n	1882 <__divsi3+0xea>
    187e:	008b      	lsls	r3, r1, #2
    1880:	1ac0      	subs	r0, r0, r3
    1882:	4152      	adcs	r2, r2
    1884:	0843      	lsrs	r3, r0, #1
    1886:	428b      	cmp	r3, r1
    1888:	d301      	bcc.n	188e <__divsi3+0xf6>
    188a:	004b      	lsls	r3, r1, #1
    188c:	1ac0      	subs	r0, r0, r3
    188e:	4152      	adcs	r2, r2
    1890:	1a41      	subs	r1, r0, r1
    1892:	d200      	bcs.n	1896 <__divsi3+0xfe>
    1894:	4601      	mov	r1, r0
    1896:	4152      	adcs	r2, r2
    1898:	4610      	mov	r0, r2
    189a:	4770      	bx	lr
    189c:	e05d      	b.n	195a <__divsi3+0x1c2>
    189e:	0fca      	lsrs	r2, r1, #31
    18a0:	d000      	beq.n	18a4 <__divsi3+0x10c>
    18a2:	4249      	negs	r1, r1
    18a4:	1003      	asrs	r3, r0, #32
    18a6:	d300      	bcc.n	18aa <__divsi3+0x112>
    18a8:	4240      	negs	r0, r0
    18aa:	4053      	eors	r3, r2
    18ac:	2200      	movs	r2, #0
    18ae:	469c      	mov	ip, r3
    18b0:	0903      	lsrs	r3, r0, #4
    18b2:	428b      	cmp	r3, r1
    18b4:	d32d      	bcc.n	1912 <__divsi3+0x17a>
    18b6:	0a03      	lsrs	r3, r0, #8
    18b8:	428b      	cmp	r3, r1
    18ba:	d312      	bcc.n	18e2 <__divsi3+0x14a>
    18bc:	22fc      	movs	r2, #252	; 0xfc
    18be:	0189      	lsls	r1, r1, #6
    18c0:	ba12      	rev	r2, r2
    18c2:	0a03      	lsrs	r3, r0, #8
    18c4:	428b      	cmp	r3, r1
    18c6:	d30c      	bcc.n	18e2 <__divsi3+0x14a>
    18c8:	0189      	lsls	r1, r1, #6
    18ca:	1192      	asrs	r2, r2, #6
    18cc:	428b      	cmp	r3, r1
    18ce:	d308      	bcc.n	18e2 <__divsi3+0x14a>
    18d0:	0189      	lsls	r1, r1, #6
    18d2:	1192      	asrs	r2, r2, #6
    18d4:	428b      	cmp	r3, r1
    18d6:	d304      	bcc.n	18e2 <__divsi3+0x14a>
    18d8:	0189      	lsls	r1, r1, #6
    18da:	d03a      	beq.n	1952 <__divsi3+0x1ba>
    18dc:	1192      	asrs	r2, r2, #6
    18de:	e000      	b.n	18e2 <__divsi3+0x14a>
    18e0:	0989      	lsrs	r1, r1, #6
    18e2:	09c3      	lsrs	r3, r0, #7
    18e4:	428b      	cmp	r3, r1
    18e6:	d301      	bcc.n	18ec <__divsi3+0x154>
    18e8:	01cb      	lsls	r3, r1, #7
    18ea:	1ac0      	subs	r0, r0, r3
    18ec:	4152      	adcs	r2, r2
    18ee:	0983      	lsrs	r3, r0, #6
    18f0:	428b      	cmp	r3, r1
    18f2:	d301      	bcc.n	18f8 <__divsi3+0x160>
    18f4:	018b      	lsls	r3, r1, #6
    18f6:	1ac0      	subs	r0, r0, r3
    18f8:	4152      	adcs	r2, r2
    18fa:	0943      	lsrs	r3, r0, #5
    18fc:	428b      	cmp	r3, r1
    18fe:	d301      	bcc.n	1904 <__divsi3+0x16c>
    1900:	014b      	lsls	r3, r1, #5
    1902:	1ac0      	subs	r0, r0, r3
    1904:	4152      	adcs	r2, r2
    1906:	0903      	lsrs	r3, r0, #4
    1908:	428b      	cmp	r3, r1
    190a:	d301      	bcc.n	1910 <__divsi3+0x178>
    190c:	010b      	lsls	r3, r1, #4
    190e:	1ac0      	subs	r0, r0, r3
    1910:	4152      	adcs	r2, r2
    1912:	08c3      	lsrs	r3, r0, #3
    1914:	428b      	cmp	r3, r1
    1916:	d301      	bcc.n	191c <__divsi3+0x184>
    1918:	00cb      	lsls	r3, r1, #3
    191a:	1ac0      	subs	r0, r0, r3
    191c:	4152      	adcs	r2, r2
    191e:	0883      	lsrs	r3, r0, #2
    1920:	428b      	cmp	r3, r1
    1922:	d301      	bcc.n	1928 <__divsi3+0x190>
    1924:	008b      	lsls	r3, r1, #2
    1926:	1ac0      	subs	r0, r0, r3
    1928:	4152      	adcs	r2, r2
    192a:	d2d9      	bcs.n	18e0 <__divsi3+0x148>
    192c:	0843      	lsrs	r3, r0, #1
    192e:	428b      	cmp	r3, r1
    1930:	d301      	bcc.n	1936 <__divsi3+0x19e>
    1932:	004b      	lsls	r3, r1, #1
    1934:	1ac0      	subs	r0, r0, r3
    1936:	4152      	adcs	r2, r2
    1938:	1a41      	subs	r1, r0, r1
    193a:	d200      	bcs.n	193e <__divsi3+0x1a6>
    193c:	4601      	mov	r1, r0
    193e:	4663      	mov	r3, ip
    1940:	4152      	adcs	r2, r2
    1942:	105b      	asrs	r3, r3, #1
    1944:	4610      	mov	r0, r2
    1946:	d301      	bcc.n	194c <__divsi3+0x1b4>
    1948:	4240      	negs	r0, r0
    194a:	2b00      	cmp	r3, #0
    194c:	d500      	bpl.n	1950 <__divsi3+0x1b8>
    194e:	4249      	negs	r1, r1
    1950:	4770      	bx	lr
    1952:	4663      	mov	r3, ip
    1954:	105b      	asrs	r3, r3, #1
    1956:	d300      	bcc.n	195a <__divsi3+0x1c2>
    1958:	4240      	negs	r0, r0
    195a:	b501      	push	{r0, lr}
    195c:	2000      	movs	r0, #0
    195e:	f000 f805 	bl	196c <__aeabi_idiv0>
    1962:	bd02      	pop	{r1, pc}

00001964 <__aeabi_idivmod>:
    1964:	2900      	cmp	r1, #0
    1966:	d0f8      	beq.n	195a <__divsi3+0x1c2>
    1968:	e716      	b.n	1798 <__divsi3>
    196a:	4770      	bx	lr

0000196c <__aeabi_idiv0>:
    196c:	4770      	bx	lr
    196e:	46c0      	nop			; (mov r8, r8)

00001970 <__aeabi_uldivmod>:
    1970:	2b00      	cmp	r3, #0
    1972:	d111      	bne.n	1998 <__aeabi_uldivmod+0x28>
    1974:	2a00      	cmp	r2, #0
    1976:	d10f      	bne.n	1998 <__aeabi_uldivmod+0x28>
    1978:	2900      	cmp	r1, #0
    197a:	d100      	bne.n	197e <__aeabi_uldivmod+0xe>
    197c:	2800      	cmp	r0, #0
    197e:	d002      	beq.n	1986 <__aeabi_uldivmod+0x16>
    1980:	2100      	movs	r1, #0
    1982:	43c9      	mvns	r1, r1
    1984:	1c08      	adds	r0, r1, #0
    1986:	b407      	push	{r0, r1, r2}
    1988:	4802      	ldr	r0, [pc, #8]	; (1994 <__aeabi_uldivmod+0x24>)
    198a:	a102      	add	r1, pc, #8	; (adr r1, 1994 <__aeabi_uldivmod+0x24>)
    198c:	1840      	adds	r0, r0, r1
    198e:	9002      	str	r0, [sp, #8]
    1990:	bd03      	pop	{r0, r1, pc}
    1992:	46c0      	nop			; (mov r8, r8)
    1994:	ffffffd9 	.word	0xffffffd9
    1998:	b403      	push	{r0, r1}
    199a:	4668      	mov	r0, sp
    199c:	b501      	push	{r0, lr}
    199e:	9802      	ldr	r0, [sp, #8]
    19a0:	f000 f806 	bl	19b0 <__udivmoddi4>
    19a4:	9b01      	ldr	r3, [sp, #4]
    19a6:	469e      	mov	lr, r3
    19a8:	b002      	add	sp, #8
    19aa:	bc0c      	pop	{r2, r3}
    19ac:	4770      	bx	lr
    19ae:	46c0      	nop			; (mov r8, r8)

000019b0 <__udivmoddi4>:
    19b0:	b5f0      	push	{r4, r5, r6, r7, lr}
    19b2:	4657      	mov	r7, sl
    19b4:	464e      	mov	r6, r9
    19b6:	4645      	mov	r5, r8
    19b8:	46de      	mov	lr, fp
    19ba:	b5e0      	push	{r5, r6, r7, lr}
    19bc:	0004      	movs	r4, r0
    19be:	b083      	sub	sp, #12
    19c0:	000d      	movs	r5, r1
    19c2:	4692      	mov	sl, r2
    19c4:	4699      	mov	r9, r3
    19c6:	428b      	cmp	r3, r1
    19c8:	d82f      	bhi.n	1a2a <__udivmoddi4+0x7a>
    19ca:	d02c      	beq.n	1a26 <__udivmoddi4+0x76>
    19cc:	4649      	mov	r1, r9
    19ce:	4650      	mov	r0, sl
    19d0:	f001 fb5e 	bl	3090 <__clzdi2>
    19d4:	0029      	movs	r1, r5
    19d6:	0006      	movs	r6, r0
    19d8:	0020      	movs	r0, r4
    19da:	f001 fb59 	bl	3090 <__clzdi2>
    19de:	1a33      	subs	r3, r6, r0
    19e0:	4698      	mov	r8, r3
    19e2:	3b20      	subs	r3, #32
    19e4:	469b      	mov	fp, r3
    19e6:	d500      	bpl.n	19ea <__udivmoddi4+0x3a>
    19e8:	e074      	b.n	1ad4 <__udivmoddi4+0x124>
    19ea:	4653      	mov	r3, sl
    19ec:	465a      	mov	r2, fp
    19ee:	4093      	lsls	r3, r2
    19f0:	001f      	movs	r7, r3
    19f2:	4653      	mov	r3, sl
    19f4:	4642      	mov	r2, r8
    19f6:	4093      	lsls	r3, r2
    19f8:	001e      	movs	r6, r3
    19fa:	42af      	cmp	r7, r5
    19fc:	d829      	bhi.n	1a52 <__udivmoddi4+0xa2>
    19fe:	d026      	beq.n	1a4e <__udivmoddi4+0x9e>
    1a00:	465b      	mov	r3, fp
    1a02:	1ba4      	subs	r4, r4, r6
    1a04:	41bd      	sbcs	r5, r7
    1a06:	2b00      	cmp	r3, #0
    1a08:	da00      	bge.n	1a0c <__udivmoddi4+0x5c>
    1a0a:	e079      	b.n	1b00 <__udivmoddi4+0x150>
    1a0c:	2200      	movs	r2, #0
    1a0e:	2300      	movs	r3, #0
    1a10:	9200      	str	r2, [sp, #0]
    1a12:	9301      	str	r3, [sp, #4]
    1a14:	2301      	movs	r3, #1
    1a16:	465a      	mov	r2, fp
    1a18:	4093      	lsls	r3, r2
    1a1a:	9301      	str	r3, [sp, #4]
    1a1c:	2301      	movs	r3, #1
    1a1e:	4642      	mov	r2, r8
    1a20:	4093      	lsls	r3, r2
    1a22:	9300      	str	r3, [sp, #0]
    1a24:	e019      	b.n	1a5a <__udivmoddi4+0xaa>
    1a26:	4282      	cmp	r2, r0
    1a28:	d9d0      	bls.n	19cc <__udivmoddi4+0x1c>
    1a2a:	2200      	movs	r2, #0
    1a2c:	2300      	movs	r3, #0
    1a2e:	9200      	str	r2, [sp, #0]
    1a30:	9301      	str	r3, [sp, #4]
    1a32:	9b0c      	ldr	r3, [sp, #48]	; 0x30
    1a34:	2b00      	cmp	r3, #0
    1a36:	d001      	beq.n	1a3c <__udivmoddi4+0x8c>
    1a38:	601c      	str	r4, [r3, #0]
    1a3a:	605d      	str	r5, [r3, #4]
    1a3c:	9800      	ldr	r0, [sp, #0]
    1a3e:	9901      	ldr	r1, [sp, #4]
    1a40:	b003      	add	sp, #12
    1a42:	bc3c      	pop	{r2, r3, r4, r5}
    1a44:	4690      	mov	r8, r2
    1a46:	4699      	mov	r9, r3
    1a48:	46a2      	mov	sl, r4
    1a4a:	46ab      	mov	fp, r5
    1a4c:	bdf0      	pop	{r4, r5, r6, r7, pc}
    1a4e:	42a3      	cmp	r3, r4
    1a50:	d9d6      	bls.n	1a00 <__udivmoddi4+0x50>
    1a52:	2200      	movs	r2, #0
    1a54:	2300      	movs	r3, #0
    1a56:	9200      	str	r2, [sp, #0]
    1a58:	9301      	str	r3, [sp, #4]
    1a5a:	4643      	mov	r3, r8
    1a5c:	2b00      	cmp	r3, #0
    1a5e:	d0e8      	beq.n	1a32 <__udivmoddi4+0x82>
    1a60:	07fb      	lsls	r3, r7, #31
    1a62:	0872      	lsrs	r2, r6, #1
    1a64:	431a      	orrs	r2, r3
    1a66:	4646      	mov	r6, r8
    1a68:	087b      	lsrs	r3, r7, #1
    1a6a:	e00e      	b.n	1a8a <__udivmoddi4+0xda>
    1a6c:	42ab      	cmp	r3, r5
    1a6e:	d101      	bne.n	1a74 <__udivmoddi4+0xc4>
    1a70:	42a2      	cmp	r2, r4
    1a72:	d80c      	bhi.n	1a8e <__udivmoddi4+0xde>
    1a74:	1aa4      	subs	r4, r4, r2
    1a76:	419d      	sbcs	r5, r3
    1a78:	2001      	movs	r0, #1
    1a7a:	1924      	adds	r4, r4, r4
    1a7c:	416d      	adcs	r5, r5
    1a7e:	2100      	movs	r1, #0
    1a80:	3e01      	subs	r6, #1
    1a82:	1824      	adds	r4, r4, r0
    1a84:	414d      	adcs	r5, r1
    1a86:	2e00      	cmp	r6, #0
    1a88:	d006      	beq.n	1a98 <__udivmoddi4+0xe8>
    1a8a:	42ab      	cmp	r3, r5
    1a8c:	d9ee      	bls.n	1a6c <__udivmoddi4+0xbc>
    1a8e:	3e01      	subs	r6, #1
    1a90:	1924      	adds	r4, r4, r4
    1a92:	416d      	adcs	r5, r5
    1a94:	2e00      	cmp	r6, #0
    1a96:	d1f8      	bne.n	1a8a <__udivmoddi4+0xda>
    1a98:	465b      	mov	r3, fp
    1a9a:	9800      	ldr	r0, [sp, #0]
    1a9c:	9901      	ldr	r1, [sp, #4]
    1a9e:	1900      	adds	r0, r0, r4
    1aa0:	4169      	adcs	r1, r5
    1aa2:	2b00      	cmp	r3, #0
    1aa4:	db22      	blt.n	1aec <__udivmoddi4+0x13c>
    1aa6:	002b      	movs	r3, r5
    1aa8:	465a      	mov	r2, fp
    1aaa:	40d3      	lsrs	r3, r2
    1aac:	002a      	movs	r2, r5
    1aae:	4644      	mov	r4, r8
    1ab0:	40e2      	lsrs	r2, r4
    1ab2:	001c      	movs	r4, r3
    1ab4:	465b      	mov	r3, fp
    1ab6:	0015      	movs	r5, r2
    1ab8:	2b00      	cmp	r3, #0
    1aba:	db2c      	blt.n	1b16 <__udivmoddi4+0x166>
    1abc:	0026      	movs	r6, r4
    1abe:	409e      	lsls	r6, r3
    1ac0:	0033      	movs	r3, r6
    1ac2:	0026      	movs	r6, r4
    1ac4:	4647      	mov	r7, r8
    1ac6:	40be      	lsls	r6, r7
    1ac8:	0032      	movs	r2, r6
    1aca:	1a80      	subs	r0, r0, r2
    1acc:	4199      	sbcs	r1, r3
    1ace:	9000      	str	r0, [sp, #0]
    1ad0:	9101      	str	r1, [sp, #4]
    1ad2:	e7ae      	b.n	1a32 <__udivmoddi4+0x82>
    1ad4:	4642      	mov	r2, r8
    1ad6:	2320      	movs	r3, #32
    1ad8:	1a9b      	subs	r3, r3, r2
    1ada:	4652      	mov	r2, sl
    1adc:	40da      	lsrs	r2, r3
    1ade:	4641      	mov	r1, r8
    1ae0:	0013      	movs	r3, r2
    1ae2:	464a      	mov	r2, r9
    1ae4:	408a      	lsls	r2, r1
    1ae6:	0017      	movs	r7, r2
    1ae8:	431f      	orrs	r7, r3
    1aea:	e782      	b.n	19f2 <__udivmoddi4+0x42>
    1aec:	4642      	mov	r2, r8
    1aee:	2320      	movs	r3, #32
    1af0:	1a9b      	subs	r3, r3, r2
    1af2:	002a      	movs	r2, r5
    1af4:	4646      	mov	r6, r8
    1af6:	409a      	lsls	r2, r3
    1af8:	0023      	movs	r3, r4
    1afa:	40f3      	lsrs	r3, r6
    1afc:	4313      	orrs	r3, r2
    1afe:	e7d5      	b.n	1aac <__udivmoddi4+0xfc>
    1b00:	4642      	mov	r2, r8
    1b02:	2320      	movs	r3, #32
    1b04:	2100      	movs	r1, #0
    1b06:	1a9b      	subs	r3, r3, r2
    1b08:	2200      	movs	r2, #0
    1b0a:	9100      	str	r1, [sp, #0]
    1b0c:	9201      	str	r2, [sp, #4]
    1b0e:	2201      	movs	r2, #1
    1b10:	40da      	lsrs	r2, r3
    1b12:	9201      	str	r2, [sp, #4]
    1b14:	e782      	b.n	1a1c <__udivmoddi4+0x6c>
    1b16:	4642      	mov	r2, r8
    1b18:	2320      	movs	r3, #32
    1b1a:	0026      	movs	r6, r4
    1b1c:	1a9b      	subs	r3, r3, r2
    1b1e:	40de      	lsrs	r6, r3
    1b20:	002f      	movs	r7, r5
    1b22:	46b4      	mov	ip, r6
    1b24:	4097      	lsls	r7, r2
    1b26:	4666      	mov	r6, ip
    1b28:	003b      	movs	r3, r7
    1b2a:	4333      	orrs	r3, r6
    1b2c:	e7c9      	b.n	1ac2 <__udivmoddi4+0x112>
    1b2e:	46c0      	nop			; (mov r8, r8)

00001b30 <__aeabi_ddiv>:
    1b30:	b5f0      	push	{r4, r5, r6, r7, lr}
    1b32:	4657      	mov	r7, sl
    1b34:	4645      	mov	r5, r8
    1b36:	46de      	mov	lr, fp
    1b38:	464e      	mov	r6, r9
    1b3a:	b5e0      	push	{r5, r6, r7, lr}
    1b3c:	004c      	lsls	r4, r1, #1
    1b3e:	030e      	lsls	r6, r1, #12
    1b40:	b087      	sub	sp, #28
    1b42:	4683      	mov	fp, r0
    1b44:	4692      	mov	sl, r2
    1b46:	001d      	movs	r5, r3
    1b48:	4680      	mov	r8, r0
    1b4a:	0b36      	lsrs	r6, r6, #12
    1b4c:	0d64      	lsrs	r4, r4, #21
    1b4e:	0fcf      	lsrs	r7, r1, #31
    1b50:	2c00      	cmp	r4, #0
    1b52:	d04f      	beq.n	1bf4 <__aeabi_ddiv+0xc4>
    1b54:	4b6f      	ldr	r3, [pc, #444]	; (1d14 <__aeabi_ddiv+0x1e4>)
    1b56:	429c      	cmp	r4, r3
    1b58:	d035      	beq.n	1bc6 <__aeabi_ddiv+0x96>
    1b5a:	2380      	movs	r3, #128	; 0x80
    1b5c:	0f42      	lsrs	r2, r0, #29
    1b5e:	041b      	lsls	r3, r3, #16
    1b60:	00f6      	lsls	r6, r6, #3
    1b62:	4313      	orrs	r3, r2
    1b64:	4333      	orrs	r3, r6
    1b66:	4699      	mov	r9, r3
    1b68:	00c3      	lsls	r3, r0, #3
    1b6a:	4698      	mov	r8, r3
    1b6c:	4b6a      	ldr	r3, [pc, #424]	; (1d18 <__aeabi_ddiv+0x1e8>)
    1b6e:	2600      	movs	r6, #0
    1b70:	469c      	mov	ip, r3
    1b72:	2300      	movs	r3, #0
    1b74:	4464      	add	r4, ip
    1b76:	9303      	str	r3, [sp, #12]
    1b78:	032b      	lsls	r3, r5, #12
    1b7a:	0b1b      	lsrs	r3, r3, #12
    1b7c:	469b      	mov	fp, r3
    1b7e:	006b      	lsls	r3, r5, #1
    1b80:	0fed      	lsrs	r5, r5, #31
    1b82:	4650      	mov	r0, sl
    1b84:	0d5b      	lsrs	r3, r3, #21
    1b86:	9501      	str	r5, [sp, #4]
    1b88:	d05e      	beq.n	1c48 <__aeabi_ddiv+0x118>
    1b8a:	4a62      	ldr	r2, [pc, #392]	; (1d14 <__aeabi_ddiv+0x1e4>)
    1b8c:	4293      	cmp	r3, r2
    1b8e:	d053      	beq.n	1c38 <__aeabi_ddiv+0x108>
    1b90:	465a      	mov	r2, fp
    1b92:	00d1      	lsls	r1, r2, #3
    1b94:	2280      	movs	r2, #128	; 0x80
    1b96:	0f40      	lsrs	r0, r0, #29
    1b98:	0412      	lsls	r2, r2, #16
    1b9a:	4302      	orrs	r2, r0
    1b9c:	430a      	orrs	r2, r1
    1b9e:	4693      	mov	fp, r2
    1ba0:	4652      	mov	r2, sl
    1ba2:	00d1      	lsls	r1, r2, #3
    1ba4:	4a5c      	ldr	r2, [pc, #368]	; (1d18 <__aeabi_ddiv+0x1e8>)
    1ba6:	4694      	mov	ip, r2
    1ba8:	2200      	movs	r2, #0
    1baa:	4463      	add	r3, ip
    1bac:	0038      	movs	r0, r7
    1bae:	4068      	eors	r0, r5
    1bb0:	4684      	mov	ip, r0
    1bb2:	9002      	str	r0, [sp, #8]
    1bb4:	1ae4      	subs	r4, r4, r3
    1bb6:	4316      	orrs	r6, r2
    1bb8:	2e0f      	cmp	r6, #15
    1bba:	d900      	bls.n	1bbe <__aeabi_ddiv+0x8e>
    1bbc:	e0b4      	b.n	1d28 <__aeabi_ddiv+0x1f8>
    1bbe:	4b57      	ldr	r3, [pc, #348]	; (1d1c <__aeabi_ddiv+0x1ec>)
    1bc0:	00b6      	lsls	r6, r6, #2
    1bc2:	599b      	ldr	r3, [r3, r6]
    1bc4:	469f      	mov	pc, r3
    1bc6:	0003      	movs	r3, r0
    1bc8:	4333      	orrs	r3, r6
    1bca:	4699      	mov	r9, r3
    1bcc:	d16c      	bne.n	1ca8 <__aeabi_ddiv+0x178>
    1bce:	2300      	movs	r3, #0
    1bd0:	4698      	mov	r8, r3
    1bd2:	3302      	adds	r3, #2
    1bd4:	2608      	movs	r6, #8
    1bd6:	9303      	str	r3, [sp, #12]
    1bd8:	e7ce      	b.n	1b78 <__aeabi_ddiv+0x48>
    1bda:	46cb      	mov	fp, r9
    1bdc:	4641      	mov	r1, r8
    1bde:	9a03      	ldr	r2, [sp, #12]
    1be0:	9701      	str	r7, [sp, #4]
    1be2:	2a02      	cmp	r2, #2
    1be4:	d165      	bne.n	1cb2 <__aeabi_ddiv+0x182>
    1be6:	9b01      	ldr	r3, [sp, #4]
    1be8:	4c4a      	ldr	r4, [pc, #296]	; (1d14 <__aeabi_ddiv+0x1e4>)
    1bea:	469c      	mov	ip, r3
    1bec:	2300      	movs	r3, #0
    1bee:	2200      	movs	r2, #0
    1bf0:	4698      	mov	r8, r3
    1bf2:	e06b      	b.n	1ccc <__aeabi_ddiv+0x19c>
    1bf4:	0003      	movs	r3, r0
    1bf6:	4333      	orrs	r3, r6
    1bf8:	4699      	mov	r9, r3
    1bfa:	d04e      	beq.n	1c9a <__aeabi_ddiv+0x16a>
    1bfc:	2e00      	cmp	r6, #0
    1bfe:	d100      	bne.n	1c02 <__aeabi_ddiv+0xd2>
    1c00:	e1bc      	b.n	1f7c <__aeabi_ddiv+0x44c>
    1c02:	0030      	movs	r0, r6
    1c04:	f001 fa26 	bl	3054 <__clzsi2>
    1c08:	0003      	movs	r3, r0
    1c0a:	3b0b      	subs	r3, #11
    1c0c:	2b1c      	cmp	r3, #28
    1c0e:	dd00      	ble.n	1c12 <__aeabi_ddiv+0xe2>
    1c10:	e1ac      	b.n	1f6c <__aeabi_ddiv+0x43c>
    1c12:	221d      	movs	r2, #29
    1c14:	1ad3      	subs	r3, r2, r3
    1c16:	465a      	mov	r2, fp
    1c18:	0001      	movs	r1, r0
    1c1a:	40da      	lsrs	r2, r3
    1c1c:	3908      	subs	r1, #8
    1c1e:	408e      	lsls	r6, r1
    1c20:	0013      	movs	r3, r2
    1c22:	4333      	orrs	r3, r6
    1c24:	4699      	mov	r9, r3
    1c26:	465b      	mov	r3, fp
    1c28:	408b      	lsls	r3, r1
    1c2a:	4698      	mov	r8, r3
    1c2c:	2300      	movs	r3, #0
    1c2e:	4c3c      	ldr	r4, [pc, #240]	; (1d20 <__aeabi_ddiv+0x1f0>)
    1c30:	2600      	movs	r6, #0
    1c32:	1a24      	subs	r4, r4, r0
    1c34:	9303      	str	r3, [sp, #12]
    1c36:	e79f      	b.n	1b78 <__aeabi_ddiv+0x48>
    1c38:	4651      	mov	r1, sl
    1c3a:	465a      	mov	r2, fp
    1c3c:	4311      	orrs	r1, r2
    1c3e:	d129      	bne.n	1c94 <__aeabi_ddiv+0x164>
    1c40:	2200      	movs	r2, #0
    1c42:	4693      	mov	fp, r2
    1c44:	3202      	adds	r2, #2
    1c46:	e7b1      	b.n	1bac <__aeabi_ddiv+0x7c>
    1c48:	4659      	mov	r1, fp
    1c4a:	4301      	orrs	r1, r0
    1c4c:	d01e      	beq.n	1c8c <__aeabi_ddiv+0x15c>
    1c4e:	465b      	mov	r3, fp
    1c50:	2b00      	cmp	r3, #0
    1c52:	d100      	bne.n	1c56 <__aeabi_ddiv+0x126>
    1c54:	e19e      	b.n	1f94 <__aeabi_ddiv+0x464>
    1c56:	4658      	mov	r0, fp
    1c58:	f001 f9fc 	bl	3054 <__clzsi2>
    1c5c:	0003      	movs	r3, r0
    1c5e:	3b0b      	subs	r3, #11
    1c60:	2b1c      	cmp	r3, #28
    1c62:	dd00      	ble.n	1c66 <__aeabi_ddiv+0x136>
    1c64:	e18f      	b.n	1f86 <__aeabi_ddiv+0x456>
    1c66:	0002      	movs	r2, r0
    1c68:	4659      	mov	r1, fp
    1c6a:	3a08      	subs	r2, #8
    1c6c:	4091      	lsls	r1, r2
    1c6e:	468b      	mov	fp, r1
    1c70:	211d      	movs	r1, #29
    1c72:	1acb      	subs	r3, r1, r3
    1c74:	4651      	mov	r1, sl
    1c76:	40d9      	lsrs	r1, r3
    1c78:	000b      	movs	r3, r1
    1c7a:	4659      	mov	r1, fp
    1c7c:	430b      	orrs	r3, r1
    1c7e:	4651      	mov	r1, sl
    1c80:	469b      	mov	fp, r3
    1c82:	4091      	lsls	r1, r2
    1c84:	4b26      	ldr	r3, [pc, #152]	; (1d20 <__aeabi_ddiv+0x1f0>)
    1c86:	2200      	movs	r2, #0
    1c88:	1a1b      	subs	r3, r3, r0
    1c8a:	e78f      	b.n	1bac <__aeabi_ddiv+0x7c>
    1c8c:	2300      	movs	r3, #0
    1c8e:	2201      	movs	r2, #1
    1c90:	469b      	mov	fp, r3
    1c92:	e78b      	b.n	1bac <__aeabi_ddiv+0x7c>
    1c94:	4651      	mov	r1, sl
    1c96:	2203      	movs	r2, #3
    1c98:	e788      	b.n	1bac <__aeabi_ddiv+0x7c>
    1c9a:	2300      	movs	r3, #0
    1c9c:	4698      	mov	r8, r3
    1c9e:	3301      	adds	r3, #1
    1ca0:	2604      	movs	r6, #4
    1ca2:	2400      	movs	r4, #0
    1ca4:	9303      	str	r3, [sp, #12]
    1ca6:	e767      	b.n	1b78 <__aeabi_ddiv+0x48>
    1ca8:	2303      	movs	r3, #3
    1caa:	46b1      	mov	r9, r6
    1cac:	9303      	str	r3, [sp, #12]
    1cae:	260c      	movs	r6, #12
    1cb0:	e762      	b.n	1b78 <__aeabi_ddiv+0x48>
    1cb2:	2a03      	cmp	r2, #3
    1cb4:	d100      	bne.n	1cb8 <__aeabi_ddiv+0x188>
    1cb6:	e25c      	b.n	2172 <STACK_SIZE+0x172>
    1cb8:	9b01      	ldr	r3, [sp, #4]
    1cba:	2a01      	cmp	r2, #1
    1cbc:	d000      	beq.n	1cc0 <__aeabi_ddiv+0x190>
    1cbe:	e1e4      	b.n	208a <STACK_SIZE+0x8a>
    1cc0:	4013      	ands	r3, r2
    1cc2:	469c      	mov	ip, r3
    1cc4:	2300      	movs	r3, #0
    1cc6:	2400      	movs	r4, #0
    1cc8:	2200      	movs	r2, #0
    1cca:	4698      	mov	r8, r3
    1ccc:	2100      	movs	r1, #0
    1cce:	0312      	lsls	r2, r2, #12
    1cd0:	0b13      	lsrs	r3, r2, #12
    1cd2:	0d0a      	lsrs	r2, r1, #20
    1cd4:	0512      	lsls	r2, r2, #20
    1cd6:	431a      	orrs	r2, r3
    1cd8:	0523      	lsls	r3, r4, #20
    1cda:	4c12      	ldr	r4, [pc, #72]	; (1d24 <__aeabi_ddiv+0x1f4>)
    1cdc:	4640      	mov	r0, r8
    1cde:	4022      	ands	r2, r4
    1ce0:	4313      	orrs	r3, r2
    1ce2:	4662      	mov	r2, ip
    1ce4:	005b      	lsls	r3, r3, #1
    1ce6:	07d2      	lsls	r2, r2, #31
    1ce8:	085b      	lsrs	r3, r3, #1
    1cea:	4313      	orrs	r3, r2
    1cec:	0019      	movs	r1, r3
    1cee:	b007      	add	sp, #28
    1cf0:	bc3c      	pop	{r2, r3, r4, r5}
    1cf2:	4690      	mov	r8, r2
    1cf4:	4699      	mov	r9, r3
    1cf6:	46a2      	mov	sl, r4
    1cf8:	46ab      	mov	fp, r5
    1cfa:	bdf0      	pop	{r4, r5, r6, r7, pc}
    1cfc:	2300      	movs	r3, #0
    1cfe:	2280      	movs	r2, #128	; 0x80
    1d00:	469c      	mov	ip, r3
    1d02:	0312      	lsls	r2, r2, #12
    1d04:	4698      	mov	r8, r3
    1d06:	4c03      	ldr	r4, [pc, #12]	; (1d14 <__aeabi_ddiv+0x1e4>)
    1d08:	e7e0      	b.n	1ccc <__aeabi_ddiv+0x19c>
    1d0a:	2300      	movs	r3, #0
    1d0c:	4c01      	ldr	r4, [pc, #4]	; (1d14 <__aeabi_ddiv+0x1e4>)
    1d0e:	2200      	movs	r2, #0
    1d10:	4698      	mov	r8, r3
    1d12:	e7db      	b.n	1ccc <__aeabi_ddiv+0x19c>
    1d14:	000007ff 	.word	0x000007ff
    1d18:	fffffc01 	.word	0xfffffc01
    1d1c:	00008944 	.word	0x00008944
    1d20:	fffffc0d 	.word	0xfffffc0d
    1d24:	800fffff 	.word	0x800fffff
    1d28:	45d9      	cmp	r9, fp
    1d2a:	d900      	bls.n	1d2e <__aeabi_ddiv+0x1fe>
    1d2c:	e139      	b.n	1fa2 <__aeabi_ddiv+0x472>
    1d2e:	d100      	bne.n	1d32 <__aeabi_ddiv+0x202>
    1d30:	e134      	b.n	1f9c <__aeabi_ddiv+0x46c>
    1d32:	2300      	movs	r3, #0
    1d34:	4646      	mov	r6, r8
    1d36:	464d      	mov	r5, r9
    1d38:	469a      	mov	sl, r3
    1d3a:	3c01      	subs	r4, #1
    1d3c:	465b      	mov	r3, fp
    1d3e:	0e0a      	lsrs	r2, r1, #24
    1d40:	021b      	lsls	r3, r3, #8
    1d42:	431a      	orrs	r2, r3
    1d44:	020b      	lsls	r3, r1, #8
    1d46:	0c17      	lsrs	r7, r2, #16
    1d48:	9303      	str	r3, [sp, #12]
    1d4a:	0413      	lsls	r3, r2, #16
    1d4c:	0c1b      	lsrs	r3, r3, #16
    1d4e:	0039      	movs	r1, r7
    1d50:	0028      	movs	r0, r5
    1d52:	4690      	mov	r8, r2
    1d54:	9301      	str	r3, [sp, #4]
    1d56:	f7ff fc95 	bl	1684 <__udivsi3>
    1d5a:	0002      	movs	r2, r0
    1d5c:	9b01      	ldr	r3, [sp, #4]
    1d5e:	4683      	mov	fp, r0
    1d60:	435a      	muls	r2, r3
    1d62:	0028      	movs	r0, r5
    1d64:	0039      	movs	r1, r7
    1d66:	4691      	mov	r9, r2
    1d68:	f7ff fd12 	bl	1790 <__aeabi_uidivmod>
    1d6c:	0c35      	lsrs	r5, r6, #16
    1d6e:	0409      	lsls	r1, r1, #16
    1d70:	430d      	orrs	r5, r1
    1d72:	45a9      	cmp	r9, r5
    1d74:	d90d      	bls.n	1d92 <__aeabi_ddiv+0x262>
    1d76:	465b      	mov	r3, fp
    1d78:	4445      	add	r5, r8
    1d7a:	3b01      	subs	r3, #1
    1d7c:	45a8      	cmp	r8, r5
    1d7e:	d900      	bls.n	1d82 <__aeabi_ddiv+0x252>
    1d80:	e13a      	b.n	1ff8 <__aeabi_ddiv+0x4c8>
    1d82:	45a9      	cmp	r9, r5
    1d84:	d800      	bhi.n	1d88 <__aeabi_ddiv+0x258>
    1d86:	e137      	b.n	1ff8 <__aeabi_ddiv+0x4c8>
    1d88:	2302      	movs	r3, #2
    1d8a:	425b      	negs	r3, r3
    1d8c:	469c      	mov	ip, r3
    1d8e:	4445      	add	r5, r8
    1d90:	44e3      	add	fp, ip
    1d92:	464b      	mov	r3, r9
    1d94:	1aeb      	subs	r3, r5, r3
    1d96:	0039      	movs	r1, r7
    1d98:	0018      	movs	r0, r3
    1d9a:	9304      	str	r3, [sp, #16]
    1d9c:	f7ff fc72 	bl	1684 <__udivsi3>
    1da0:	9b01      	ldr	r3, [sp, #4]
    1da2:	0005      	movs	r5, r0
    1da4:	4343      	muls	r3, r0
    1da6:	0039      	movs	r1, r7
    1da8:	9804      	ldr	r0, [sp, #16]
    1daa:	4699      	mov	r9, r3
    1dac:	f7ff fcf0 	bl	1790 <__aeabi_uidivmod>
    1db0:	0433      	lsls	r3, r6, #16
    1db2:	0409      	lsls	r1, r1, #16
    1db4:	0c1b      	lsrs	r3, r3, #16
    1db6:	430b      	orrs	r3, r1
    1db8:	4599      	cmp	r9, r3
    1dba:	d909      	bls.n	1dd0 <__aeabi_ddiv+0x2a0>
    1dbc:	4443      	add	r3, r8
    1dbe:	1e6a      	subs	r2, r5, #1
    1dc0:	4598      	cmp	r8, r3
    1dc2:	d900      	bls.n	1dc6 <__aeabi_ddiv+0x296>
    1dc4:	e11a      	b.n	1ffc <__aeabi_ddiv+0x4cc>
    1dc6:	4599      	cmp	r9, r3
    1dc8:	d800      	bhi.n	1dcc <__aeabi_ddiv+0x29c>
    1dca:	e117      	b.n	1ffc <__aeabi_ddiv+0x4cc>
    1dcc:	3d02      	subs	r5, #2
    1dce:	4443      	add	r3, r8
    1dd0:	464a      	mov	r2, r9
    1dd2:	1a9b      	subs	r3, r3, r2
    1dd4:	465a      	mov	r2, fp
    1dd6:	0412      	lsls	r2, r2, #16
    1dd8:	432a      	orrs	r2, r5
    1dda:	9903      	ldr	r1, [sp, #12]
    1ddc:	4693      	mov	fp, r2
    1dde:	0c10      	lsrs	r0, r2, #16
    1de0:	0c0a      	lsrs	r2, r1, #16
    1de2:	4691      	mov	r9, r2
    1de4:	0409      	lsls	r1, r1, #16
    1de6:	465a      	mov	r2, fp
    1de8:	0c09      	lsrs	r1, r1, #16
    1dea:	464e      	mov	r6, r9
    1dec:	000d      	movs	r5, r1
    1dee:	0412      	lsls	r2, r2, #16
    1df0:	0c12      	lsrs	r2, r2, #16
    1df2:	4345      	muls	r5, r0
    1df4:	9105      	str	r1, [sp, #20]
    1df6:	4351      	muls	r1, r2
    1df8:	4372      	muls	r2, r6
    1dfa:	4370      	muls	r0, r6
    1dfc:	1952      	adds	r2, r2, r5
    1dfe:	0c0e      	lsrs	r6, r1, #16
    1e00:	18b2      	adds	r2, r6, r2
    1e02:	4295      	cmp	r5, r2
    1e04:	d903      	bls.n	1e0e <__aeabi_ddiv+0x2de>
    1e06:	2580      	movs	r5, #128	; 0x80
    1e08:	026d      	lsls	r5, r5, #9
    1e0a:	46ac      	mov	ip, r5
    1e0c:	4460      	add	r0, ip
    1e0e:	0c15      	lsrs	r5, r2, #16
    1e10:	0409      	lsls	r1, r1, #16
    1e12:	0412      	lsls	r2, r2, #16
    1e14:	0c09      	lsrs	r1, r1, #16
    1e16:	1828      	adds	r0, r5, r0
    1e18:	1852      	adds	r2, r2, r1
    1e1a:	4283      	cmp	r3, r0
    1e1c:	d200      	bcs.n	1e20 <__aeabi_ddiv+0x2f0>
    1e1e:	e0ce      	b.n	1fbe <__aeabi_ddiv+0x48e>
    1e20:	d100      	bne.n	1e24 <__aeabi_ddiv+0x2f4>
    1e22:	e0c8      	b.n	1fb6 <__aeabi_ddiv+0x486>
    1e24:	1a1d      	subs	r5, r3, r0
    1e26:	4653      	mov	r3, sl
    1e28:	1a9e      	subs	r6, r3, r2
    1e2a:	45b2      	cmp	sl, r6
    1e2c:	4192      	sbcs	r2, r2
    1e2e:	4252      	negs	r2, r2
    1e30:	1aab      	subs	r3, r5, r2
    1e32:	469a      	mov	sl, r3
    1e34:	4598      	cmp	r8, r3
    1e36:	d100      	bne.n	1e3a <__aeabi_ddiv+0x30a>
    1e38:	e117      	b.n	206a <STACK_SIZE+0x6a>
    1e3a:	0039      	movs	r1, r7
    1e3c:	0018      	movs	r0, r3
    1e3e:	f7ff fc21 	bl	1684 <__udivsi3>
    1e42:	9b01      	ldr	r3, [sp, #4]
    1e44:	0005      	movs	r5, r0
    1e46:	4343      	muls	r3, r0
    1e48:	0039      	movs	r1, r7
    1e4a:	4650      	mov	r0, sl
    1e4c:	9304      	str	r3, [sp, #16]
    1e4e:	f7ff fc9f 	bl	1790 <__aeabi_uidivmod>
    1e52:	9804      	ldr	r0, [sp, #16]
    1e54:	040b      	lsls	r3, r1, #16
    1e56:	0c31      	lsrs	r1, r6, #16
    1e58:	4319      	orrs	r1, r3
    1e5a:	4288      	cmp	r0, r1
    1e5c:	d909      	bls.n	1e72 <__aeabi_ddiv+0x342>
    1e5e:	4441      	add	r1, r8
    1e60:	1e6b      	subs	r3, r5, #1
    1e62:	4588      	cmp	r8, r1
    1e64:	d900      	bls.n	1e68 <__aeabi_ddiv+0x338>
    1e66:	e107      	b.n	2078 <STACK_SIZE+0x78>
    1e68:	4288      	cmp	r0, r1
    1e6a:	d800      	bhi.n	1e6e <__aeabi_ddiv+0x33e>
    1e6c:	e104      	b.n	2078 <STACK_SIZE+0x78>
    1e6e:	3d02      	subs	r5, #2
    1e70:	4441      	add	r1, r8
    1e72:	9b04      	ldr	r3, [sp, #16]
    1e74:	1acb      	subs	r3, r1, r3
    1e76:	0018      	movs	r0, r3
    1e78:	0039      	movs	r1, r7
    1e7a:	9304      	str	r3, [sp, #16]
    1e7c:	f7ff fc02 	bl	1684 <__udivsi3>
    1e80:	9b01      	ldr	r3, [sp, #4]
    1e82:	4682      	mov	sl, r0
    1e84:	4343      	muls	r3, r0
    1e86:	0039      	movs	r1, r7
    1e88:	9804      	ldr	r0, [sp, #16]
    1e8a:	9301      	str	r3, [sp, #4]
    1e8c:	f7ff fc80 	bl	1790 <__aeabi_uidivmod>
    1e90:	9801      	ldr	r0, [sp, #4]
    1e92:	040b      	lsls	r3, r1, #16
    1e94:	0431      	lsls	r1, r6, #16
    1e96:	0c09      	lsrs	r1, r1, #16
    1e98:	4319      	orrs	r1, r3
    1e9a:	4288      	cmp	r0, r1
    1e9c:	d90d      	bls.n	1eba <__aeabi_ddiv+0x38a>
    1e9e:	4653      	mov	r3, sl
    1ea0:	4441      	add	r1, r8
    1ea2:	3b01      	subs	r3, #1
    1ea4:	4588      	cmp	r8, r1
    1ea6:	d900      	bls.n	1eaa <__aeabi_ddiv+0x37a>
    1ea8:	e0e8      	b.n	207c <STACK_SIZE+0x7c>
    1eaa:	4288      	cmp	r0, r1
    1eac:	d800      	bhi.n	1eb0 <__aeabi_ddiv+0x380>
    1eae:	e0e5      	b.n	207c <STACK_SIZE+0x7c>
    1eb0:	2302      	movs	r3, #2
    1eb2:	425b      	negs	r3, r3
    1eb4:	469c      	mov	ip, r3
    1eb6:	4441      	add	r1, r8
    1eb8:	44e2      	add	sl, ip
    1eba:	9b01      	ldr	r3, [sp, #4]
    1ebc:	042d      	lsls	r5, r5, #16
    1ebe:	1ace      	subs	r6, r1, r3
    1ec0:	4651      	mov	r1, sl
    1ec2:	4329      	orrs	r1, r5
    1ec4:	9d05      	ldr	r5, [sp, #20]
    1ec6:	464f      	mov	r7, r9
    1ec8:	002a      	movs	r2, r5
    1eca:	040b      	lsls	r3, r1, #16
    1ecc:	0c08      	lsrs	r0, r1, #16
    1ece:	0c1b      	lsrs	r3, r3, #16
    1ed0:	435a      	muls	r2, r3
    1ed2:	4345      	muls	r5, r0
    1ed4:	437b      	muls	r3, r7
    1ed6:	4378      	muls	r0, r7
    1ed8:	195b      	adds	r3, r3, r5
    1eda:	0c17      	lsrs	r7, r2, #16
    1edc:	18fb      	adds	r3, r7, r3
    1ede:	429d      	cmp	r5, r3
    1ee0:	d903      	bls.n	1eea <__aeabi_ddiv+0x3ba>
    1ee2:	2580      	movs	r5, #128	; 0x80
    1ee4:	026d      	lsls	r5, r5, #9
    1ee6:	46ac      	mov	ip, r5
    1ee8:	4460      	add	r0, ip
    1eea:	0c1d      	lsrs	r5, r3, #16
    1eec:	0412      	lsls	r2, r2, #16
    1eee:	041b      	lsls	r3, r3, #16
    1ef0:	0c12      	lsrs	r2, r2, #16
    1ef2:	1828      	adds	r0, r5, r0
    1ef4:	189b      	adds	r3, r3, r2
    1ef6:	4286      	cmp	r6, r0
    1ef8:	d200      	bcs.n	1efc <__aeabi_ddiv+0x3cc>
    1efa:	e093      	b.n	2024 <STACK_SIZE+0x24>
    1efc:	d100      	bne.n	1f00 <__aeabi_ddiv+0x3d0>
    1efe:	e08e      	b.n	201e <STACK_SIZE+0x1e>
    1f00:	2301      	movs	r3, #1
    1f02:	4319      	orrs	r1, r3
    1f04:	4ba0      	ldr	r3, [pc, #640]	; (2188 <STACK_SIZE+0x188>)
    1f06:	18e3      	adds	r3, r4, r3
    1f08:	2b00      	cmp	r3, #0
    1f0a:	dc00      	bgt.n	1f0e <__aeabi_ddiv+0x3de>
    1f0c:	e099      	b.n	2042 <STACK_SIZE+0x42>
    1f0e:	074a      	lsls	r2, r1, #29
    1f10:	d000      	beq.n	1f14 <__aeabi_ddiv+0x3e4>
    1f12:	e09e      	b.n	2052 <STACK_SIZE+0x52>
    1f14:	465a      	mov	r2, fp
    1f16:	01d2      	lsls	r2, r2, #7
    1f18:	d506      	bpl.n	1f28 <__aeabi_ddiv+0x3f8>
    1f1a:	465a      	mov	r2, fp
    1f1c:	4b9b      	ldr	r3, [pc, #620]	; (218c <STACK_SIZE+0x18c>)
    1f1e:	401a      	ands	r2, r3
    1f20:	2380      	movs	r3, #128	; 0x80
    1f22:	4693      	mov	fp, r2
    1f24:	00db      	lsls	r3, r3, #3
    1f26:	18e3      	adds	r3, r4, r3
    1f28:	4a99      	ldr	r2, [pc, #612]	; (2190 <STACK_SIZE+0x190>)
    1f2a:	4293      	cmp	r3, r2
    1f2c:	dd68      	ble.n	2000 <STACK_SIZE>
    1f2e:	2301      	movs	r3, #1
    1f30:	9a02      	ldr	r2, [sp, #8]
    1f32:	4c98      	ldr	r4, [pc, #608]	; (2194 <STACK_SIZE+0x194>)
    1f34:	401a      	ands	r2, r3
    1f36:	2300      	movs	r3, #0
    1f38:	4694      	mov	ip, r2
    1f3a:	4698      	mov	r8, r3
    1f3c:	2200      	movs	r2, #0
    1f3e:	e6c5      	b.n	1ccc <__aeabi_ddiv+0x19c>
    1f40:	2280      	movs	r2, #128	; 0x80
    1f42:	464b      	mov	r3, r9
    1f44:	0312      	lsls	r2, r2, #12
    1f46:	4213      	tst	r3, r2
    1f48:	d00a      	beq.n	1f60 <__aeabi_ddiv+0x430>
    1f4a:	465b      	mov	r3, fp
    1f4c:	4213      	tst	r3, r2
    1f4e:	d106      	bne.n	1f5e <__aeabi_ddiv+0x42e>
    1f50:	431a      	orrs	r2, r3
    1f52:	0312      	lsls	r2, r2, #12
    1f54:	0b12      	lsrs	r2, r2, #12
    1f56:	46ac      	mov	ip, r5
    1f58:	4688      	mov	r8, r1
    1f5a:	4c8e      	ldr	r4, [pc, #568]	; (2194 <STACK_SIZE+0x194>)
    1f5c:	e6b6      	b.n	1ccc <__aeabi_ddiv+0x19c>
    1f5e:	464b      	mov	r3, r9
    1f60:	431a      	orrs	r2, r3
    1f62:	0312      	lsls	r2, r2, #12
    1f64:	0b12      	lsrs	r2, r2, #12
    1f66:	46bc      	mov	ip, r7
    1f68:	4c8a      	ldr	r4, [pc, #552]	; (2194 <STACK_SIZE+0x194>)
    1f6a:	e6af      	b.n	1ccc <__aeabi_ddiv+0x19c>
    1f6c:	0003      	movs	r3, r0
    1f6e:	465a      	mov	r2, fp
    1f70:	3b28      	subs	r3, #40	; 0x28
    1f72:	409a      	lsls	r2, r3
    1f74:	2300      	movs	r3, #0
    1f76:	4691      	mov	r9, r2
    1f78:	4698      	mov	r8, r3
    1f7a:	e657      	b.n	1c2c <__aeabi_ddiv+0xfc>
    1f7c:	4658      	mov	r0, fp
    1f7e:	f001 f869 	bl	3054 <__clzsi2>
    1f82:	3020      	adds	r0, #32
    1f84:	e640      	b.n	1c08 <__aeabi_ddiv+0xd8>
    1f86:	0003      	movs	r3, r0
    1f88:	4652      	mov	r2, sl
    1f8a:	3b28      	subs	r3, #40	; 0x28
    1f8c:	409a      	lsls	r2, r3
    1f8e:	2100      	movs	r1, #0
    1f90:	4693      	mov	fp, r2
    1f92:	e677      	b.n	1c84 <__aeabi_ddiv+0x154>
    1f94:	f001 f85e 	bl	3054 <__clzsi2>
    1f98:	3020      	adds	r0, #32
    1f9a:	e65f      	b.n	1c5c <__aeabi_ddiv+0x12c>
    1f9c:	4588      	cmp	r8, r1
    1f9e:	d200      	bcs.n	1fa2 <__aeabi_ddiv+0x472>
    1fa0:	e6c7      	b.n	1d32 <__aeabi_ddiv+0x202>
    1fa2:	464b      	mov	r3, r9
    1fa4:	07de      	lsls	r6, r3, #31
    1fa6:	085d      	lsrs	r5, r3, #1
    1fa8:	4643      	mov	r3, r8
    1faa:	085b      	lsrs	r3, r3, #1
    1fac:	431e      	orrs	r6, r3
    1fae:	4643      	mov	r3, r8
    1fb0:	07db      	lsls	r3, r3, #31
    1fb2:	469a      	mov	sl, r3
    1fb4:	e6c2      	b.n	1d3c <__aeabi_ddiv+0x20c>
    1fb6:	2500      	movs	r5, #0
    1fb8:	4592      	cmp	sl, r2
    1fba:	d300      	bcc.n	1fbe <__aeabi_ddiv+0x48e>
    1fbc:	e733      	b.n	1e26 <__aeabi_ddiv+0x2f6>
    1fbe:	9e03      	ldr	r6, [sp, #12]
    1fc0:	4659      	mov	r1, fp
    1fc2:	46b4      	mov	ip, r6
    1fc4:	44e2      	add	sl, ip
    1fc6:	45b2      	cmp	sl, r6
    1fc8:	41ad      	sbcs	r5, r5
    1fca:	426d      	negs	r5, r5
    1fcc:	4445      	add	r5, r8
    1fce:	18eb      	adds	r3, r5, r3
    1fd0:	3901      	subs	r1, #1
    1fd2:	4598      	cmp	r8, r3
    1fd4:	d207      	bcs.n	1fe6 <__aeabi_ddiv+0x4b6>
    1fd6:	4298      	cmp	r0, r3
    1fd8:	d900      	bls.n	1fdc <__aeabi_ddiv+0x4ac>
    1fda:	e07f      	b.n	20dc <STACK_SIZE+0xdc>
    1fdc:	d100      	bne.n	1fe0 <__aeabi_ddiv+0x4b0>
    1fde:	e0bc      	b.n	215a <STACK_SIZE+0x15a>
    1fe0:	1a1d      	subs	r5, r3, r0
    1fe2:	468b      	mov	fp, r1
    1fe4:	e71f      	b.n	1e26 <__aeabi_ddiv+0x2f6>
    1fe6:	4598      	cmp	r8, r3
    1fe8:	d1fa      	bne.n	1fe0 <__aeabi_ddiv+0x4b0>
    1fea:	9d03      	ldr	r5, [sp, #12]
    1fec:	4555      	cmp	r5, sl
    1fee:	d9f2      	bls.n	1fd6 <__aeabi_ddiv+0x4a6>
    1ff0:	4643      	mov	r3, r8
    1ff2:	468b      	mov	fp, r1
    1ff4:	1a1d      	subs	r5, r3, r0
    1ff6:	e716      	b.n	1e26 <__aeabi_ddiv+0x2f6>
    1ff8:	469b      	mov	fp, r3
    1ffa:	e6ca      	b.n	1d92 <__aeabi_ddiv+0x262>
    1ffc:	0015      	movs	r5, r2
    1ffe:	e6e7      	b.n	1dd0 <__aeabi_ddiv+0x2a0>
    2000:	465a      	mov	r2, fp
    2002:	08c9      	lsrs	r1, r1, #3
    2004:	0752      	lsls	r2, r2, #29
    2006:	430a      	orrs	r2, r1
    2008:	055b      	lsls	r3, r3, #21
    200a:	4690      	mov	r8, r2
    200c:	0d5c      	lsrs	r4, r3, #21
    200e:	465a      	mov	r2, fp
    2010:	2301      	movs	r3, #1
    2012:	9902      	ldr	r1, [sp, #8]
    2014:	0252      	lsls	r2, r2, #9
    2016:	4019      	ands	r1, r3
    2018:	0b12      	lsrs	r2, r2, #12
    201a:	468c      	mov	ip, r1
    201c:	e656      	b.n	1ccc <__aeabi_ddiv+0x19c>
    201e:	2b00      	cmp	r3, #0
    2020:	d100      	bne.n	2024 <STACK_SIZE+0x24>
    2022:	e76f      	b.n	1f04 <__aeabi_ddiv+0x3d4>
    2024:	4446      	add	r6, r8
    2026:	1e4a      	subs	r2, r1, #1
    2028:	45b0      	cmp	r8, r6
    202a:	d929      	bls.n	2080 <STACK_SIZE+0x80>
    202c:	0011      	movs	r1, r2
    202e:	4286      	cmp	r6, r0
    2030:	d000      	beq.n	2034 <STACK_SIZE+0x34>
    2032:	e765      	b.n	1f00 <__aeabi_ddiv+0x3d0>
    2034:	9a03      	ldr	r2, [sp, #12]
    2036:	4293      	cmp	r3, r2
    2038:	d000      	beq.n	203c <STACK_SIZE+0x3c>
    203a:	e761      	b.n	1f00 <__aeabi_ddiv+0x3d0>
    203c:	e762      	b.n	1f04 <__aeabi_ddiv+0x3d4>
    203e:	2101      	movs	r1, #1
    2040:	4249      	negs	r1, r1
    2042:	2001      	movs	r0, #1
    2044:	1ac2      	subs	r2, r0, r3
    2046:	2a38      	cmp	r2, #56	; 0x38
    2048:	dd21      	ble.n	208e <STACK_SIZE+0x8e>
    204a:	9b02      	ldr	r3, [sp, #8]
    204c:	4003      	ands	r3, r0
    204e:	469c      	mov	ip, r3
    2050:	e638      	b.n	1cc4 <__aeabi_ddiv+0x194>
    2052:	220f      	movs	r2, #15
    2054:	400a      	ands	r2, r1
    2056:	2a04      	cmp	r2, #4
    2058:	d100      	bne.n	205c <STACK_SIZE+0x5c>
    205a:	e75b      	b.n	1f14 <__aeabi_ddiv+0x3e4>
    205c:	000a      	movs	r2, r1
    205e:	1d11      	adds	r1, r2, #4
    2060:	4291      	cmp	r1, r2
    2062:	4192      	sbcs	r2, r2
    2064:	4252      	negs	r2, r2
    2066:	4493      	add	fp, r2
    2068:	e754      	b.n	1f14 <__aeabi_ddiv+0x3e4>
    206a:	4b47      	ldr	r3, [pc, #284]	; (2188 <STACK_SIZE+0x188>)
    206c:	18e3      	adds	r3, r4, r3
    206e:	2b00      	cmp	r3, #0
    2070:	dde5      	ble.n	203e <STACK_SIZE+0x3e>
    2072:	2201      	movs	r2, #1
    2074:	4252      	negs	r2, r2
    2076:	e7f2      	b.n	205e <STACK_SIZE+0x5e>
    2078:	001d      	movs	r5, r3
    207a:	e6fa      	b.n	1e72 <__aeabi_ddiv+0x342>
    207c:	469a      	mov	sl, r3
    207e:	e71c      	b.n	1eba <__aeabi_ddiv+0x38a>
    2080:	42b0      	cmp	r0, r6
    2082:	d839      	bhi.n	20f8 <STACK_SIZE+0xf8>
    2084:	d06e      	beq.n	2164 <STACK_SIZE+0x164>
    2086:	0011      	movs	r1, r2
    2088:	e73a      	b.n	1f00 <__aeabi_ddiv+0x3d0>
    208a:	9302      	str	r3, [sp, #8]
    208c:	e73a      	b.n	1f04 <__aeabi_ddiv+0x3d4>
    208e:	2a1f      	cmp	r2, #31
    2090:	dc3c      	bgt.n	210c <STACK_SIZE+0x10c>
    2092:	2320      	movs	r3, #32
    2094:	1a9b      	subs	r3, r3, r2
    2096:	000c      	movs	r4, r1
    2098:	4658      	mov	r0, fp
    209a:	4099      	lsls	r1, r3
    209c:	4098      	lsls	r0, r3
    209e:	1e4b      	subs	r3, r1, #1
    20a0:	4199      	sbcs	r1, r3
    20a2:	465b      	mov	r3, fp
    20a4:	40d4      	lsrs	r4, r2
    20a6:	40d3      	lsrs	r3, r2
    20a8:	4320      	orrs	r0, r4
    20aa:	4308      	orrs	r0, r1
    20ac:	001a      	movs	r2, r3
    20ae:	0743      	lsls	r3, r0, #29
    20b0:	d009      	beq.n	20c6 <STACK_SIZE+0xc6>
    20b2:	230f      	movs	r3, #15
    20b4:	4003      	ands	r3, r0
    20b6:	2b04      	cmp	r3, #4
    20b8:	d005      	beq.n	20c6 <STACK_SIZE+0xc6>
    20ba:	0001      	movs	r1, r0
    20bc:	1d08      	adds	r0, r1, #4
    20be:	4288      	cmp	r0, r1
    20c0:	419b      	sbcs	r3, r3
    20c2:	425b      	negs	r3, r3
    20c4:	18d2      	adds	r2, r2, r3
    20c6:	0213      	lsls	r3, r2, #8
    20c8:	d53a      	bpl.n	2140 <STACK_SIZE+0x140>
    20ca:	2301      	movs	r3, #1
    20cc:	9a02      	ldr	r2, [sp, #8]
    20ce:	2401      	movs	r4, #1
    20d0:	401a      	ands	r2, r3
    20d2:	2300      	movs	r3, #0
    20d4:	4694      	mov	ip, r2
    20d6:	4698      	mov	r8, r3
    20d8:	2200      	movs	r2, #0
    20da:	e5f7      	b.n	1ccc <__aeabi_ddiv+0x19c>
    20dc:	2102      	movs	r1, #2
    20de:	4249      	negs	r1, r1
    20e0:	468c      	mov	ip, r1
    20e2:	9d03      	ldr	r5, [sp, #12]
    20e4:	44e3      	add	fp, ip
    20e6:	46ac      	mov	ip, r5
    20e8:	44e2      	add	sl, ip
    20ea:	45aa      	cmp	sl, r5
    20ec:	41ad      	sbcs	r5, r5
    20ee:	426d      	negs	r5, r5
    20f0:	4445      	add	r5, r8
    20f2:	18ed      	adds	r5, r5, r3
    20f4:	1a2d      	subs	r5, r5, r0
    20f6:	e696      	b.n	1e26 <__aeabi_ddiv+0x2f6>
    20f8:	1e8a      	subs	r2, r1, #2
    20fa:	9903      	ldr	r1, [sp, #12]
    20fc:	004d      	lsls	r5, r1, #1
    20fe:	428d      	cmp	r5, r1
    2100:	4189      	sbcs	r1, r1
    2102:	4249      	negs	r1, r1
    2104:	4441      	add	r1, r8
    2106:	1876      	adds	r6, r6, r1
    2108:	9503      	str	r5, [sp, #12]
    210a:	e78f      	b.n	202c <STACK_SIZE+0x2c>
    210c:	201f      	movs	r0, #31
    210e:	4240      	negs	r0, r0
    2110:	1ac3      	subs	r3, r0, r3
    2112:	4658      	mov	r0, fp
    2114:	40d8      	lsrs	r0, r3
    2116:	0003      	movs	r3, r0
    2118:	2a20      	cmp	r2, #32
    211a:	d028      	beq.n	216e <STACK_SIZE+0x16e>
    211c:	2040      	movs	r0, #64	; 0x40
    211e:	465d      	mov	r5, fp
    2120:	1a82      	subs	r2, r0, r2
    2122:	4095      	lsls	r5, r2
    2124:	4329      	orrs	r1, r5
    2126:	1e4a      	subs	r2, r1, #1
    2128:	4191      	sbcs	r1, r2
    212a:	4319      	orrs	r1, r3
    212c:	2307      	movs	r3, #7
    212e:	2200      	movs	r2, #0
    2130:	400b      	ands	r3, r1
    2132:	d009      	beq.n	2148 <STACK_SIZE+0x148>
    2134:	230f      	movs	r3, #15
    2136:	2200      	movs	r2, #0
    2138:	400b      	ands	r3, r1
    213a:	0008      	movs	r0, r1
    213c:	2b04      	cmp	r3, #4
    213e:	d1bd      	bne.n	20bc <STACK_SIZE+0xbc>
    2140:	0001      	movs	r1, r0
    2142:	0753      	lsls	r3, r2, #29
    2144:	0252      	lsls	r2, r2, #9
    2146:	0b12      	lsrs	r2, r2, #12
    2148:	08c9      	lsrs	r1, r1, #3
    214a:	4319      	orrs	r1, r3
    214c:	2301      	movs	r3, #1
    214e:	4688      	mov	r8, r1
    2150:	9902      	ldr	r1, [sp, #8]
    2152:	2400      	movs	r4, #0
    2154:	4019      	ands	r1, r3
    2156:	468c      	mov	ip, r1
    2158:	e5b8      	b.n	1ccc <__aeabi_ddiv+0x19c>
    215a:	4552      	cmp	r2, sl
    215c:	d8be      	bhi.n	20dc <STACK_SIZE+0xdc>
    215e:	468b      	mov	fp, r1
    2160:	2500      	movs	r5, #0
    2162:	e660      	b.n	1e26 <__aeabi_ddiv+0x2f6>
    2164:	9d03      	ldr	r5, [sp, #12]
    2166:	429d      	cmp	r5, r3
    2168:	d3c6      	bcc.n	20f8 <STACK_SIZE+0xf8>
    216a:	0011      	movs	r1, r2
    216c:	e762      	b.n	2034 <STACK_SIZE+0x34>
    216e:	2500      	movs	r5, #0
    2170:	e7d8      	b.n	2124 <STACK_SIZE+0x124>
    2172:	2280      	movs	r2, #128	; 0x80
    2174:	465b      	mov	r3, fp
    2176:	0312      	lsls	r2, r2, #12
    2178:	431a      	orrs	r2, r3
    217a:	9b01      	ldr	r3, [sp, #4]
    217c:	0312      	lsls	r2, r2, #12
    217e:	0b12      	lsrs	r2, r2, #12
    2180:	469c      	mov	ip, r3
    2182:	4688      	mov	r8, r1
    2184:	4c03      	ldr	r4, [pc, #12]	; (2194 <STACK_SIZE+0x194>)
    2186:	e5a1      	b.n	1ccc <__aeabi_ddiv+0x19c>
    2188:	000003ff 	.word	0x000003ff
    218c:	feffffff 	.word	0xfeffffff
    2190:	000007fe 	.word	0x000007fe
    2194:	000007ff 	.word	0x000007ff

00002198 <__aeabi_dmul>:
    2198:	b5f0      	push	{r4, r5, r6, r7, lr}
    219a:	4657      	mov	r7, sl
    219c:	4645      	mov	r5, r8
    219e:	46de      	mov	lr, fp
    21a0:	464e      	mov	r6, r9
    21a2:	b5e0      	push	{r5, r6, r7, lr}
    21a4:	030c      	lsls	r4, r1, #12
    21a6:	4698      	mov	r8, r3
    21a8:	004e      	lsls	r6, r1, #1
    21aa:	0b23      	lsrs	r3, r4, #12
    21ac:	b087      	sub	sp, #28
    21ae:	0007      	movs	r7, r0
    21b0:	4692      	mov	sl, r2
    21b2:	469b      	mov	fp, r3
    21b4:	0d76      	lsrs	r6, r6, #21
    21b6:	0fcd      	lsrs	r5, r1, #31
    21b8:	2e00      	cmp	r6, #0
    21ba:	d06b      	beq.n	2294 <__aeabi_dmul+0xfc>
    21bc:	4b6d      	ldr	r3, [pc, #436]	; (2374 <__aeabi_dmul+0x1dc>)
    21be:	429e      	cmp	r6, r3
    21c0:	d035      	beq.n	222e <__aeabi_dmul+0x96>
    21c2:	2480      	movs	r4, #128	; 0x80
    21c4:	465b      	mov	r3, fp
    21c6:	0f42      	lsrs	r2, r0, #29
    21c8:	0424      	lsls	r4, r4, #16
    21ca:	00db      	lsls	r3, r3, #3
    21cc:	4314      	orrs	r4, r2
    21ce:	431c      	orrs	r4, r3
    21d0:	00c3      	lsls	r3, r0, #3
    21d2:	4699      	mov	r9, r3
    21d4:	4b68      	ldr	r3, [pc, #416]	; (2378 <__aeabi_dmul+0x1e0>)
    21d6:	46a3      	mov	fp, r4
    21d8:	469c      	mov	ip, r3
    21da:	2300      	movs	r3, #0
    21dc:	2700      	movs	r7, #0
    21de:	4466      	add	r6, ip
    21e0:	9302      	str	r3, [sp, #8]
    21e2:	4643      	mov	r3, r8
    21e4:	031c      	lsls	r4, r3, #12
    21e6:	005a      	lsls	r2, r3, #1
    21e8:	0fdb      	lsrs	r3, r3, #31
    21ea:	4650      	mov	r0, sl
    21ec:	0b24      	lsrs	r4, r4, #12
    21ee:	0d52      	lsrs	r2, r2, #21
    21f0:	4698      	mov	r8, r3
    21f2:	d100      	bne.n	21f6 <__aeabi_dmul+0x5e>
    21f4:	e076      	b.n	22e4 <__aeabi_dmul+0x14c>
    21f6:	4b5f      	ldr	r3, [pc, #380]	; (2374 <__aeabi_dmul+0x1dc>)
    21f8:	429a      	cmp	r2, r3
    21fa:	d06d      	beq.n	22d8 <__aeabi_dmul+0x140>
    21fc:	2380      	movs	r3, #128	; 0x80
    21fe:	0f41      	lsrs	r1, r0, #29
    2200:	041b      	lsls	r3, r3, #16
    2202:	430b      	orrs	r3, r1
    2204:	495c      	ldr	r1, [pc, #368]	; (2378 <__aeabi_dmul+0x1e0>)
    2206:	00e4      	lsls	r4, r4, #3
    2208:	468c      	mov	ip, r1
    220a:	431c      	orrs	r4, r3
    220c:	00c3      	lsls	r3, r0, #3
    220e:	2000      	movs	r0, #0
    2210:	4462      	add	r2, ip
    2212:	4641      	mov	r1, r8
    2214:	18b6      	adds	r6, r6, r2
    2216:	4069      	eors	r1, r5
    2218:	1c72      	adds	r2, r6, #1
    221a:	9101      	str	r1, [sp, #4]
    221c:	4694      	mov	ip, r2
    221e:	4307      	orrs	r7, r0
    2220:	2f0f      	cmp	r7, #15
    2222:	d900      	bls.n	2226 <__aeabi_dmul+0x8e>
    2224:	e0b0      	b.n	2388 <__aeabi_dmul+0x1f0>
    2226:	4a55      	ldr	r2, [pc, #340]	; (237c <__aeabi_dmul+0x1e4>)
    2228:	00bf      	lsls	r7, r7, #2
    222a:	59d2      	ldr	r2, [r2, r7]
    222c:	4697      	mov	pc, r2
    222e:	465b      	mov	r3, fp
    2230:	4303      	orrs	r3, r0
    2232:	4699      	mov	r9, r3
    2234:	d000      	beq.n	2238 <__aeabi_dmul+0xa0>
    2236:	e087      	b.n	2348 <__aeabi_dmul+0x1b0>
    2238:	2300      	movs	r3, #0
    223a:	469b      	mov	fp, r3
    223c:	3302      	adds	r3, #2
    223e:	2708      	movs	r7, #8
    2240:	9302      	str	r3, [sp, #8]
    2242:	e7ce      	b.n	21e2 <__aeabi_dmul+0x4a>
    2244:	4642      	mov	r2, r8
    2246:	9201      	str	r2, [sp, #4]
    2248:	2802      	cmp	r0, #2
    224a:	d067      	beq.n	231c <__aeabi_dmul+0x184>
    224c:	2803      	cmp	r0, #3
    224e:	d100      	bne.n	2252 <__aeabi_dmul+0xba>
    2250:	e20e      	b.n	2670 <__aeabi_dmul+0x4d8>
    2252:	2801      	cmp	r0, #1
    2254:	d000      	beq.n	2258 <__aeabi_dmul+0xc0>
    2256:	e162      	b.n	251e <__aeabi_dmul+0x386>
    2258:	2300      	movs	r3, #0
    225a:	2400      	movs	r4, #0
    225c:	2200      	movs	r2, #0
    225e:	4699      	mov	r9, r3
    2260:	9901      	ldr	r1, [sp, #4]
    2262:	4001      	ands	r1, r0
    2264:	b2cd      	uxtb	r5, r1
    2266:	2100      	movs	r1, #0
    2268:	0312      	lsls	r2, r2, #12
    226a:	0d0b      	lsrs	r3, r1, #20
    226c:	0b12      	lsrs	r2, r2, #12
    226e:	051b      	lsls	r3, r3, #20
    2270:	4313      	orrs	r3, r2
    2272:	4a43      	ldr	r2, [pc, #268]	; (2380 <__aeabi_dmul+0x1e8>)
    2274:	0524      	lsls	r4, r4, #20
    2276:	4013      	ands	r3, r2
    2278:	431c      	orrs	r4, r3
    227a:	0064      	lsls	r4, r4, #1
    227c:	07ed      	lsls	r5, r5, #31
    227e:	0864      	lsrs	r4, r4, #1
    2280:	432c      	orrs	r4, r5
    2282:	4648      	mov	r0, r9
    2284:	0021      	movs	r1, r4
    2286:	b007      	add	sp, #28
    2288:	bc3c      	pop	{r2, r3, r4, r5}
    228a:	4690      	mov	r8, r2
    228c:	4699      	mov	r9, r3
    228e:	46a2      	mov	sl, r4
    2290:	46ab      	mov	fp, r5
    2292:	bdf0      	pop	{r4, r5, r6, r7, pc}
    2294:	4303      	orrs	r3, r0
    2296:	4699      	mov	r9, r3
    2298:	d04f      	beq.n	233a <__aeabi_dmul+0x1a2>
    229a:	465b      	mov	r3, fp
    229c:	2b00      	cmp	r3, #0
    229e:	d100      	bne.n	22a2 <__aeabi_dmul+0x10a>
    22a0:	e189      	b.n	25b6 <__aeabi_dmul+0x41e>
    22a2:	4658      	mov	r0, fp
    22a4:	f000 fed6 	bl	3054 <__clzsi2>
    22a8:	0003      	movs	r3, r0
    22aa:	3b0b      	subs	r3, #11
    22ac:	2b1c      	cmp	r3, #28
    22ae:	dd00      	ble.n	22b2 <__aeabi_dmul+0x11a>
    22b0:	e17a      	b.n	25a8 <__aeabi_dmul+0x410>
    22b2:	221d      	movs	r2, #29
    22b4:	1ad3      	subs	r3, r2, r3
    22b6:	003a      	movs	r2, r7
    22b8:	0001      	movs	r1, r0
    22ba:	465c      	mov	r4, fp
    22bc:	40da      	lsrs	r2, r3
    22be:	3908      	subs	r1, #8
    22c0:	408c      	lsls	r4, r1
    22c2:	0013      	movs	r3, r2
    22c4:	408f      	lsls	r7, r1
    22c6:	4323      	orrs	r3, r4
    22c8:	469b      	mov	fp, r3
    22ca:	46b9      	mov	r9, r7
    22cc:	2300      	movs	r3, #0
    22ce:	4e2d      	ldr	r6, [pc, #180]	; (2384 <__aeabi_dmul+0x1ec>)
    22d0:	2700      	movs	r7, #0
    22d2:	1a36      	subs	r6, r6, r0
    22d4:	9302      	str	r3, [sp, #8]
    22d6:	e784      	b.n	21e2 <__aeabi_dmul+0x4a>
    22d8:	4653      	mov	r3, sl
    22da:	4323      	orrs	r3, r4
    22dc:	d12a      	bne.n	2334 <__aeabi_dmul+0x19c>
    22de:	2400      	movs	r4, #0
    22e0:	2002      	movs	r0, #2
    22e2:	e796      	b.n	2212 <__aeabi_dmul+0x7a>
    22e4:	4653      	mov	r3, sl
    22e6:	4323      	orrs	r3, r4
    22e8:	d020      	beq.n	232c <__aeabi_dmul+0x194>
    22ea:	2c00      	cmp	r4, #0
    22ec:	d100      	bne.n	22f0 <__aeabi_dmul+0x158>
    22ee:	e157      	b.n	25a0 <__aeabi_dmul+0x408>
    22f0:	0020      	movs	r0, r4
    22f2:	f000 feaf 	bl	3054 <__clzsi2>
    22f6:	0003      	movs	r3, r0
    22f8:	3b0b      	subs	r3, #11
    22fa:	2b1c      	cmp	r3, #28
    22fc:	dd00      	ble.n	2300 <__aeabi_dmul+0x168>
    22fe:	e149      	b.n	2594 <__aeabi_dmul+0x3fc>
    2300:	211d      	movs	r1, #29
    2302:	1acb      	subs	r3, r1, r3
    2304:	4651      	mov	r1, sl
    2306:	0002      	movs	r2, r0
    2308:	40d9      	lsrs	r1, r3
    230a:	4653      	mov	r3, sl
    230c:	3a08      	subs	r2, #8
    230e:	4094      	lsls	r4, r2
    2310:	4093      	lsls	r3, r2
    2312:	430c      	orrs	r4, r1
    2314:	4a1b      	ldr	r2, [pc, #108]	; (2384 <__aeabi_dmul+0x1ec>)
    2316:	1a12      	subs	r2, r2, r0
    2318:	2000      	movs	r0, #0
    231a:	e77a      	b.n	2212 <__aeabi_dmul+0x7a>
    231c:	2501      	movs	r5, #1
    231e:	9b01      	ldr	r3, [sp, #4]
    2320:	4c14      	ldr	r4, [pc, #80]	; (2374 <__aeabi_dmul+0x1dc>)
    2322:	401d      	ands	r5, r3
    2324:	2300      	movs	r3, #0
    2326:	2200      	movs	r2, #0
    2328:	4699      	mov	r9, r3
    232a:	e79c      	b.n	2266 <__aeabi_dmul+0xce>
    232c:	2400      	movs	r4, #0
    232e:	2200      	movs	r2, #0
    2330:	2001      	movs	r0, #1
    2332:	e76e      	b.n	2212 <__aeabi_dmul+0x7a>
    2334:	4653      	mov	r3, sl
    2336:	2003      	movs	r0, #3
    2338:	e76b      	b.n	2212 <__aeabi_dmul+0x7a>
    233a:	2300      	movs	r3, #0
    233c:	469b      	mov	fp, r3
    233e:	3301      	adds	r3, #1
    2340:	2704      	movs	r7, #4
    2342:	2600      	movs	r6, #0
    2344:	9302      	str	r3, [sp, #8]
    2346:	e74c      	b.n	21e2 <__aeabi_dmul+0x4a>
    2348:	2303      	movs	r3, #3
    234a:	4681      	mov	r9, r0
    234c:	270c      	movs	r7, #12
    234e:	9302      	str	r3, [sp, #8]
    2350:	e747      	b.n	21e2 <__aeabi_dmul+0x4a>
    2352:	2280      	movs	r2, #128	; 0x80
    2354:	2300      	movs	r3, #0
    2356:	2500      	movs	r5, #0
    2358:	0312      	lsls	r2, r2, #12
    235a:	4699      	mov	r9, r3
    235c:	4c05      	ldr	r4, [pc, #20]	; (2374 <__aeabi_dmul+0x1dc>)
    235e:	e782      	b.n	2266 <__aeabi_dmul+0xce>
    2360:	465c      	mov	r4, fp
    2362:	464b      	mov	r3, r9
    2364:	9802      	ldr	r0, [sp, #8]
    2366:	e76f      	b.n	2248 <__aeabi_dmul+0xb0>
    2368:	465c      	mov	r4, fp
    236a:	464b      	mov	r3, r9
    236c:	9501      	str	r5, [sp, #4]
    236e:	9802      	ldr	r0, [sp, #8]
    2370:	e76a      	b.n	2248 <__aeabi_dmul+0xb0>
    2372:	46c0      	nop			; (mov r8, r8)
    2374:	000007ff 	.word	0x000007ff
    2378:	fffffc01 	.word	0xfffffc01
    237c:	00008984 	.word	0x00008984
    2380:	800fffff 	.word	0x800fffff
    2384:	fffffc0d 	.word	0xfffffc0d
    2388:	464a      	mov	r2, r9
    238a:	4649      	mov	r1, r9
    238c:	0c17      	lsrs	r7, r2, #16
    238e:	0c1a      	lsrs	r2, r3, #16
    2390:	041b      	lsls	r3, r3, #16
    2392:	0c1b      	lsrs	r3, r3, #16
    2394:	0408      	lsls	r0, r1, #16
    2396:	0019      	movs	r1, r3
    2398:	0c00      	lsrs	r0, r0, #16
    239a:	4341      	muls	r1, r0
    239c:	0015      	movs	r5, r2
    239e:	4688      	mov	r8, r1
    23a0:	0019      	movs	r1, r3
    23a2:	437d      	muls	r5, r7
    23a4:	4379      	muls	r1, r7
    23a6:	9503      	str	r5, [sp, #12]
    23a8:	4689      	mov	r9, r1
    23aa:	0029      	movs	r1, r5
    23ac:	0015      	movs	r5, r2
    23ae:	4345      	muls	r5, r0
    23b0:	444d      	add	r5, r9
    23b2:	9502      	str	r5, [sp, #8]
    23b4:	4645      	mov	r5, r8
    23b6:	0c2d      	lsrs	r5, r5, #16
    23b8:	46aa      	mov	sl, r5
    23ba:	9d02      	ldr	r5, [sp, #8]
    23bc:	4455      	add	r5, sl
    23be:	45a9      	cmp	r9, r5
    23c0:	d906      	bls.n	23d0 <__aeabi_dmul+0x238>
    23c2:	468a      	mov	sl, r1
    23c4:	2180      	movs	r1, #128	; 0x80
    23c6:	0249      	lsls	r1, r1, #9
    23c8:	4689      	mov	r9, r1
    23ca:	44ca      	add	sl, r9
    23cc:	4651      	mov	r1, sl
    23ce:	9103      	str	r1, [sp, #12]
    23d0:	0c29      	lsrs	r1, r5, #16
    23d2:	9104      	str	r1, [sp, #16]
    23d4:	4641      	mov	r1, r8
    23d6:	0409      	lsls	r1, r1, #16
    23d8:	042d      	lsls	r5, r5, #16
    23da:	0c09      	lsrs	r1, r1, #16
    23dc:	4688      	mov	r8, r1
    23de:	0029      	movs	r1, r5
    23e0:	0c25      	lsrs	r5, r4, #16
    23e2:	0424      	lsls	r4, r4, #16
    23e4:	4441      	add	r1, r8
    23e6:	0c24      	lsrs	r4, r4, #16
    23e8:	9105      	str	r1, [sp, #20]
    23ea:	0021      	movs	r1, r4
    23ec:	4341      	muls	r1, r0
    23ee:	4688      	mov	r8, r1
    23f0:	0021      	movs	r1, r4
    23f2:	4379      	muls	r1, r7
    23f4:	468a      	mov	sl, r1
    23f6:	4368      	muls	r0, r5
    23f8:	4641      	mov	r1, r8
    23fa:	4450      	add	r0, sl
    23fc:	4681      	mov	r9, r0
    23fe:	0c08      	lsrs	r0, r1, #16
    2400:	4448      	add	r0, r9
    2402:	436f      	muls	r7, r5
    2404:	4582      	cmp	sl, r0
    2406:	d903      	bls.n	2410 <__aeabi_dmul+0x278>
    2408:	2180      	movs	r1, #128	; 0x80
    240a:	0249      	lsls	r1, r1, #9
    240c:	4689      	mov	r9, r1
    240e:	444f      	add	r7, r9
    2410:	0c01      	lsrs	r1, r0, #16
    2412:	4689      	mov	r9, r1
    2414:	0039      	movs	r1, r7
    2416:	4449      	add	r1, r9
    2418:	9102      	str	r1, [sp, #8]
    241a:	4641      	mov	r1, r8
    241c:	040f      	lsls	r7, r1, #16
    241e:	9904      	ldr	r1, [sp, #16]
    2420:	0c3f      	lsrs	r7, r7, #16
    2422:	4688      	mov	r8, r1
    2424:	0400      	lsls	r0, r0, #16
    2426:	19c0      	adds	r0, r0, r7
    2428:	4480      	add	r8, r0
    242a:	4641      	mov	r1, r8
    242c:	9104      	str	r1, [sp, #16]
    242e:	4659      	mov	r1, fp
    2430:	0c0f      	lsrs	r7, r1, #16
    2432:	0409      	lsls	r1, r1, #16
    2434:	0c09      	lsrs	r1, r1, #16
    2436:	4688      	mov	r8, r1
    2438:	4359      	muls	r1, r3
    243a:	468a      	mov	sl, r1
    243c:	0039      	movs	r1, r7
    243e:	4351      	muls	r1, r2
    2440:	4689      	mov	r9, r1
    2442:	4641      	mov	r1, r8
    2444:	434a      	muls	r2, r1
    2446:	4651      	mov	r1, sl
    2448:	0c09      	lsrs	r1, r1, #16
    244a:	468b      	mov	fp, r1
    244c:	437b      	muls	r3, r7
    244e:	18d2      	adds	r2, r2, r3
    2450:	445a      	add	r2, fp
    2452:	4293      	cmp	r3, r2
    2454:	d903      	bls.n	245e <__aeabi_dmul+0x2c6>
    2456:	2380      	movs	r3, #128	; 0x80
    2458:	025b      	lsls	r3, r3, #9
    245a:	469b      	mov	fp, r3
    245c:	44d9      	add	r9, fp
    245e:	4651      	mov	r1, sl
    2460:	0409      	lsls	r1, r1, #16
    2462:	0c09      	lsrs	r1, r1, #16
    2464:	468a      	mov	sl, r1
    2466:	4641      	mov	r1, r8
    2468:	4361      	muls	r1, r4
    246a:	437c      	muls	r4, r7
    246c:	0c13      	lsrs	r3, r2, #16
    246e:	0412      	lsls	r2, r2, #16
    2470:	444b      	add	r3, r9
    2472:	4452      	add	r2, sl
    2474:	46a1      	mov	r9, r4
    2476:	468a      	mov	sl, r1
    2478:	003c      	movs	r4, r7
    247a:	4641      	mov	r1, r8
    247c:	436c      	muls	r4, r5
    247e:	434d      	muls	r5, r1
    2480:	4651      	mov	r1, sl
    2482:	444d      	add	r5, r9
    2484:	0c0f      	lsrs	r7, r1, #16
    2486:	197d      	adds	r5, r7, r5
    2488:	45a9      	cmp	r9, r5
    248a:	d903      	bls.n	2494 <__aeabi_dmul+0x2fc>
    248c:	2180      	movs	r1, #128	; 0x80
    248e:	0249      	lsls	r1, r1, #9
    2490:	4688      	mov	r8, r1
    2492:	4444      	add	r4, r8
    2494:	9f04      	ldr	r7, [sp, #16]
    2496:	9903      	ldr	r1, [sp, #12]
    2498:	46b8      	mov	r8, r7
    249a:	4441      	add	r1, r8
    249c:	468b      	mov	fp, r1
    249e:	4583      	cmp	fp, r0
    24a0:	4180      	sbcs	r0, r0
    24a2:	4241      	negs	r1, r0
    24a4:	4688      	mov	r8, r1
    24a6:	4651      	mov	r1, sl
    24a8:	0408      	lsls	r0, r1, #16
    24aa:	042f      	lsls	r7, r5, #16
    24ac:	0c00      	lsrs	r0, r0, #16
    24ae:	183f      	adds	r7, r7, r0
    24b0:	4658      	mov	r0, fp
    24b2:	9902      	ldr	r1, [sp, #8]
    24b4:	1810      	adds	r0, r2, r0
    24b6:	4689      	mov	r9, r1
    24b8:	4290      	cmp	r0, r2
    24ba:	4192      	sbcs	r2, r2
    24bc:	444f      	add	r7, r9
    24be:	46ba      	mov	sl, r7
    24c0:	4252      	negs	r2, r2
    24c2:	4699      	mov	r9, r3
    24c4:	4693      	mov	fp, r2
    24c6:	44c2      	add	sl, r8
    24c8:	44d1      	add	r9, sl
    24ca:	44cb      	add	fp, r9
    24cc:	428f      	cmp	r7, r1
    24ce:	41bf      	sbcs	r7, r7
    24d0:	45c2      	cmp	sl, r8
    24d2:	4189      	sbcs	r1, r1
    24d4:	4599      	cmp	r9, r3
    24d6:	419b      	sbcs	r3, r3
    24d8:	4593      	cmp	fp, r2
    24da:	4192      	sbcs	r2, r2
    24dc:	427f      	negs	r7, r7
    24de:	4249      	negs	r1, r1
    24e0:	0c2d      	lsrs	r5, r5, #16
    24e2:	4252      	negs	r2, r2
    24e4:	430f      	orrs	r7, r1
    24e6:	425b      	negs	r3, r3
    24e8:	4313      	orrs	r3, r2
    24ea:	197f      	adds	r7, r7, r5
    24ec:	18ff      	adds	r7, r7, r3
    24ee:	465b      	mov	r3, fp
    24f0:	193c      	adds	r4, r7, r4
    24f2:	0ddb      	lsrs	r3, r3, #23
    24f4:	9a05      	ldr	r2, [sp, #20]
    24f6:	0264      	lsls	r4, r4, #9
    24f8:	431c      	orrs	r4, r3
    24fa:	0243      	lsls	r3, r0, #9
    24fc:	4313      	orrs	r3, r2
    24fe:	1e5d      	subs	r5, r3, #1
    2500:	41ab      	sbcs	r3, r5
    2502:	465a      	mov	r2, fp
    2504:	0dc0      	lsrs	r0, r0, #23
    2506:	4303      	orrs	r3, r0
    2508:	0252      	lsls	r2, r2, #9
    250a:	4313      	orrs	r3, r2
    250c:	01e2      	lsls	r2, r4, #7
    250e:	d556      	bpl.n	25be <__aeabi_dmul+0x426>
    2510:	2001      	movs	r0, #1
    2512:	085a      	lsrs	r2, r3, #1
    2514:	4003      	ands	r3, r0
    2516:	4313      	orrs	r3, r2
    2518:	07e2      	lsls	r2, r4, #31
    251a:	4313      	orrs	r3, r2
    251c:	0864      	lsrs	r4, r4, #1
    251e:	485a      	ldr	r0, [pc, #360]	; (2688 <__aeabi_dmul+0x4f0>)
    2520:	4460      	add	r0, ip
    2522:	2800      	cmp	r0, #0
    2524:	dd4d      	ble.n	25c2 <__aeabi_dmul+0x42a>
    2526:	075a      	lsls	r2, r3, #29
    2528:	d009      	beq.n	253e <__aeabi_dmul+0x3a6>
    252a:	220f      	movs	r2, #15
    252c:	401a      	ands	r2, r3
    252e:	2a04      	cmp	r2, #4
    2530:	d005      	beq.n	253e <__aeabi_dmul+0x3a6>
    2532:	1d1a      	adds	r2, r3, #4
    2534:	429a      	cmp	r2, r3
    2536:	419b      	sbcs	r3, r3
    2538:	425b      	negs	r3, r3
    253a:	18e4      	adds	r4, r4, r3
    253c:	0013      	movs	r3, r2
    253e:	01e2      	lsls	r2, r4, #7
    2540:	d504      	bpl.n	254c <__aeabi_dmul+0x3b4>
    2542:	2080      	movs	r0, #128	; 0x80
    2544:	4a51      	ldr	r2, [pc, #324]	; (268c <__aeabi_dmul+0x4f4>)
    2546:	00c0      	lsls	r0, r0, #3
    2548:	4014      	ands	r4, r2
    254a:	4460      	add	r0, ip
    254c:	4a50      	ldr	r2, [pc, #320]	; (2690 <__aeabi_dmul+0x4f8>)
    254e:	4290      	cmp	r0, r2
    2550:	dd00      	ble.n	2554 <__aeabi_dmul+0x3bc>
    2552:	e6e3      	b.n	231c <__aeabi_dmul+0x184>
    2554:	2501      	movs	r5, #1
    2556:	08db      	lsrs	r3, r3, #3
    2558:	0762      	lsls	r2, r4, #29
    255a:	431a      	orrs	r2, r3
    255c:	0264      	lsls	r4, r4, #9
    255e:	9b01      	ldr	r3, [sp, #4]
    2560:	4691      	mov	r9, r2
    2562:	0b22      	lsrs	r2, r4, #12
    2564:	0544      	lsls	r4, r0, #21
    2566:	0d64      	lsrs	r4, r4, #21
    2568:	401d      	ands	r5, r3
    256a:	e67c      	b.n	2266 <__aeabi_dmul+0xce>
    256c:	2280      	movs	r2, #128	; 0x80
    256e:	4659      	mov	r1, fp
    2570:	0312      	lsls	r2, r2, #12
    2572:	4211      	tst	r1, r2
    2574:	d008      	beq.n	2588 <__aeabi_dmul+0x3f0>
    2576:	4214      	tst	r4, r2
    2578:	d106      	bne.n	2588 <__aeabi_dmul+0x3f0>
    257a:	4322      	orrs	r2, r4
    257c:	0312      	lsls	r2, r2, #12
    257e:	0b12      	lsrs	r2, r2, #12
    2580:	4645      	mov	r5, r8
    2582:	4699      	mov	r9, r3
    2584:	4c43      	ldr	r4, [pc, #268]	; (2694 <__aeabi_dmul+0x4fc>)
    2586:	e66e      	b.n	2266 <__aeabi_dmul+0xce>
    2588:	465b      	mov	r3, fp
    258a:	431a      	orrs	r2, r3
    258c:	0312      	lsls	r2, r2, #12
    258e:	0b12      	lsrs	r2, r2, #12
    2590:	4c40      	ldr	r4, [pc, #256]	; (2694 <__aeabi_dmul+0x4fc>)
    2592:	e668      	b.n	2266 <__aeabi_dmul+0xce>
    2594:	0003      	movs	r3, r0
    2596:	4654      	mov	r4, sl
    2598:	3b28      	subs	r3, #40	; 0x28
    259a:	409c      	lsls	r4, r3
    259c:	2300      	movs	r3, #0
    259e:	e6b9      	b.n	2314 <__aeabi_dmul+0x17c>
    25a0:	f000 fd58 	bl	3054 <__clzsi2>
    25a4:	3020      	adds	r0, #32
    25a6:	e6a6      	b.n	22f6 <__aeabi_dmul+0x15e>
    25a8:	0003      	movs	r3, r0
    25aa:	3b28      	subs	r3, #40	; 0x28
    25ac:	409f      	lsls	r7, r3
    25ae:	2300      	movs	r3, #0
    25b0:	46bb      	mov	fp, r7
    25b2:	4699      	mov	r9, r3
    25b4:	e68a      	b.n	22cc <__aeabi_dmul+0x134>
    25b6:	f000 fd4d 	bl	3054 <__clzsi2>
    25ba:	3020      	adds	r0, #32
    25bc:	e674      	b.n	22a8 <__aeabi_dmul+0x110>
    25be:	46b4      	mov	ip, r6
    25c0:	e7ad      	b.n	251e <__aeabi_dmul+0x386>
    25c2:	2501      	movs	r5, #1
    25c4:	1a2a      	subs	r2, r5, r0
    25c6:	2a38      	cmp	r2, #56	; 0x38
    25c8:	dd06      	ble.n	25d8 <__aeabi_dmul+0x440>
    25ca:	9b01      	ldr	r3, [sp, #4]
    25cc:	2400      	movs	r4, #0
    25ce:	401d      	ands	r5, r3
    25d0:	2300      	movs	r3, #0
    25d2:	2200      	movs	r2, #0
    25d4:	4699      	mov	r9, r3
    25d6:	e646      	b.n	2266 <__aeabi_dmul+0xce>
    25d8:	2a1f      	cmp	r2, #31
    25da:	dc21      	bgt.n	2620 <__aeabi_dmul+0x488>
    25dc:	2520      	movs	r5, #32
    25de:	0020      	movs	r0, r4
    25e0:	1aad      	subs	r5, r5, r2
    25e2:	001e      	movs	r6, r3
    25e4:	40ab      	lsls	r3, r5
    25e6:	40a8      	lsls	r0, r5
    25e8:	40d6      	lsrs	r6, r2
    25ea:	1e5d      	subs	r5, r3, #1
    25ec:	41ab      	sbcs	r3, r5
    25ee:	4330      	orrs	r0, r6
    25f0:	4318      	orrs	r0, r3
    25f2:	40d4      	lsrs	r4, r2
    25f4:	0743      	lsls	r3, r0, #29
    25f6:	d009      	beq.n	260c <__aeabi_dmul+0x474>
    25f8:	230f      	movs	r3, #15
    25fa:	4003      	ands	r3, r0
    25fc:	2b04      	cmp	r3, #4
    25fe:	d005      	beq.n	260c <__aeabi_dmul+0x474>
    2600:	0003      	movs	r3, r0
    2602:	1d18      	adds	r0, r3, #4
    2604:	4298      	cmp	r0, r3
    2606:	419b      	sbcs	r3, r3
    2608:	425b      	negs	r3, r3
    260a:	18e4      	adds	r4, r4, r3
    260c:	0223      	lsls	r3, r4, #8
    260e:	d521      	bpl.n	2654 <__aeabi_dmul+0x4bc>
    2610:	2501      	movs	r5, #1
    2612:	9b01      	ldr	r3, [sp, #4]
    2614:	2401      	movs	r4, #1
    2616:	401d      	ands	r5, r3
    2618:	2300      	movs	r3, #0
    261a:	2200      	movs	r2, #0
    261c:	4699      	mov	r9, r3
    261e:	e622      	b.n	2266 <__aeabi_dmul+0xce>
    2620:	251f      	movs	r5, #31
    2622:	0021      	movs	r1, r4
    2624:	426d      	negs	r5, r5
    2626:	1a28      	subs	r0, r5, r0
    2628:	40c1      	lsrs	r1, r0
    262a:	0008      	movs	r0, r1
    262c:	2a20      	cmp	r2, #32
    262e:	d01d      	beq.n	266c <__aeabi_dmul+0x4d4>
    2630:	355f      	adds	r5, #95	; 0x5f
    2632:	1aaa      	subs	r2, r5, r2
    2634:	4094      	lsls	r4, r2
    2636:	4323      	orrs	r3, r4
    2638:	1e5c      	subs	r4, r3, #1
    263a:	41a3      	sbcs	r3, r4
    263c:	2507      	movs	r5, #7
    263e:	4303      	orrs	r3, r0
    2640:	401d      	ands	r5, r3
    2642:	2200      	movs	r2, #0
    2644:	2d00      	cmp	r5, #0
    2646:	d009      	beq.n	265c <__aeabi_dmul+0x4c4>
    2648:	220f      	movs	r2, #15
    264a:	2400      	movs	r4, #0
    264c:	401a      	ands	r2, r3
    264e:	0018      	movs	r0, r3
    2650:	2a04      	cmp	r2, #4
    2652:	d1d6      	bne.n	2602 <__aeabi_dmul+0x46a>
    2654:	0003      	movs	r3, r0
    2656:	0765      	lsls	r5, r4, #29
    2658:	0264      	lsls	r4, r4, #9
    265a:	0b22      	lsrs	r2, r4, #12
    265c:	08db      	lsrs	r3, r3, #3
    265e:	432b      	orrs	r3, r5
    2660:	2501      	movs	r5, #1
    2662:	4699      	mov	r9, r3
    2664:	9b01      	ldr	r3, [sp, #4]
    2666:	2400      	movs	r4, #0
    2668:	401d      	ands	r5, r3
    266a:	e5fc      	b.n	2266 <__aeabi_dmul+0xce>
    266c:	2400      	movs	r4, #0
    266e:	e7e2      	b.n	2636 <__aeabi_dmul+0x49e>
    2670:	2280      	movs	r2, #128	; 0x80
    2672:	2501      	movs	r5, #1
    2674:	0312      	lsls	r2, r2, #12
    2676:	4322      	orrs	r2, r4
    2678:	9901      	ldr	r1, [sp, #4]
    267a:	0312      	lsls	r2, r2, #12
    267c:	0b12      	lsrs	r2, r2, #12
    267e:	400d      	ands	r5, r1
    2680:	4699      	mov	r9, r3
    2682:	4c04      	ldr	r4, [pc, #16]	; (2694 <__aeabi_dmul+0x4fc>)
    2684:	e5ef      	b.n	2266 <__aeabi_dmul+0xce>
    2686:	46c0      	nop			; (mov r8, r8)
    2688:	000003ff 	.word	0x000003ff
    268c:	feffffff 	.word	0xfeffffff
    2690:	000007fe 	.word	0x000007fe
    2694:	000007ff 	.word	0x000007ff

00002698 <__aeabi_dsub>:
    2698:	b5f0      	push	{r4, r5, r6, r7, lr}
    269a:	4646      	mov	r6, r8
    269c:	46d6      	mov	lr, sl
    269e:	464f      	mov	r7, r9
    26a0:	030c      	lsls	r4, r1, #12
    26a2:	b5c0      	push	{r6, r7, lr}
    26a4:	0fcd      	lsrs	r5, r1, #31
    26a6:	004e      	lsls	r6, r1, #1
    26a8:	0a61      	lsrs	r1, r4, #9
    26aa:	0f44      	lsrs	r4, r0, #29
    26ac:	430c      	orrs	r4, r1
    26ae:	00c1      	lsls	r1, r0, #3
    26b0:	0058      	lsls	r0, r3, #1
    26b2:	0d40      	lsrs	r0, r0, #21
    26b4:	4684      	mov	ip, r0
    26b6:	468a      	mov	sl, r1
    26b8:	000f      	movs	r7, r1
    26ba:	0319      	lsls	r1, r3, #12
    26bc:	0f50      	lsrs	r0, r2, #29
    26be:	0a49      	lsrs	r1, r1, #9
    26c0:	4301      	orrs	r1, r0
    26c2:	48c6      	ldr	r0, [pc, #792]	; (29dc <__aeabi_dsub+0x344>)
    26c4:	0d76      	lsrs	r6, r6, #21
    26c6:	46a8      	mov	r8, r5
    26c8:	0fdb      	lsrs	r3, r3, #31
    26ca:	00d2      	lsls	r2, r2, #3
    26cc:	4584      	cmp	ip, r0
    26ce:	d100      	bne.n	26d2 <__aeabi_dsub+0x3a>
    26d0:	e0d8      	b.n	2884 <__aeabi_dsub+0x1ec>
    26d2:	2001      	movs	r0, #1
    26d4:	4043      	eors	r3, r0
    26d6:	42ab      	cmp	r3, r5
    26d8:	d100      	bne.n	26dc <__aeabi_dsub+0x44>
    26da:	e0a6      	b.n	282a <__aeabi_dsub+0x192>
    26dc:	4660      	mov	r0, ip
    26de:	1a35      	subs	r5, r6, r0
    26e0:	2d00      	cmp	r5, #0
    26e2:	dc00      	bgt.n	26e6 <__aeabi_dsub+0x4e>
    26e4:	e105      	b.n	28f2 <__aeabi_dsub+0x25a>
    26e6:	2800      	cmp	r0, #0
    26e8:	d110      	bne.n	270c <__aeabi_dsub+0x74>
    26ea:	000b      	movs	r3, r1
    26ec:	4313      	orrs	r3, r2
    26ee:	d100      	bne.n	26f2 <__aeabi_dsub+0x5a>
    26f0:	e0d7      	b.n	28a2 <__aeabi_dsub+0x20a>
    26f2:	1e6b      	subs	r3, r5, #1
    26f4:	2b00      	cmp	r3, #0
    26f6:	d000      	beq.n	26fa <__aeabi_dsub+0x62>
    26f8:	e14b      	b.n	2992 <__aeabi_dsub+0x2fa>
    26fa:	4653      	mov	r3, sl
    26fc:	1a9f      	subs	r7, r3, r2
    26fe:	45ba      	cmp	sl, r7
    2700:	4180      	sbcs	r0, r0
    2702:	1a64      	subs	r4, r4, r1
    2704:	4240      	negs	r0, r0
    2706:	1a24      	subs	r4, r4, r0
    2708:	2601      	movs	r6, #1
    270a:	e01e      	b.n	274a <__aeabi_dsub+0xb2>
    270c:	4bb3      	ldr	r3, [pc, #716]	; (29dc <__aeabi_dsub+0x344>)
    270e:	429e      	cmp	r6, r3
    2710:	d048      	beq.n	27a4 <__aeabi_dsub+0x10c>
    2712:	2380      	movs	r3, #128	; 0x80
    2714:	041b      	lsls	r3, r3, #16
    2716:	4319      	orrs	r1, r3
    2718:	2d38      	cmp	r5, #56	; 0x38
    271a:	dd00      	ble.n	271e <__aeabi_dsub+0x86>
    271c:	e119      	b.n	2952 <__aeabi_dsub+0x2ba>
    271e:	2d1f      	cmp	r5, #31
    2720:	dd00      	ble.n	2724 <__aeabi_dsub+0x8c>
    2722:	e14c      	b.n	29be <__aeabi_dsub+0x326>
    2724:	2320      	movs	r3, #32
    2726:	000f      	movs	r7, r1
    2728:	1b5b      	subs	r3, r3, r5
    272a:	0010      	movs	r0, r2
    272c:	409a      	lsls	r2, r3
    272e:	409f      	lsls	r7, r3
    2730:	40e8      	lsrs	r0, r5
    2732:	1e53      	subs	r3, r2, #1
    2734:	419a      	sbcs	r2, r3
    2736:	40e9      	lsrs	r1, r5
    2738:	4307      	orrs	r7, r0
    273a:	4317      	orrs	r7, r2
    273c:	4653      	mov	r3, sl
    273e:	1bdf      	subs	r7, r3, r7
    2740:	1a61      	subs	r1, r4, r1
    2742:	45ba      	cmp	sl, r7
    2744:	41a4      	sbcs	r4, r4
    2746:	4264      	negs	r4, r4
    2748:	1b0c      	subs	r4, r1, r4
    274a:	0223      	lsls	r3, r4, #8
    274c:	d400      	bmi.n	2750 <__aeabi_dsub+0xb8>
    274e:	e0c5      	b.n	28dc <__aeabi_dsub+0x244>
    2750:	0264      	lsls	r4, r4, #9
    2752:	0a65      	lsrs	r5, r4, #9
    2754:	2d00      	cmp	r5, #0
    2756:	d100      	bne.n	275a <__aeabi_dsub+0xc2>
    2758:	e0f6      	b.n	2948 <__aeabi_dsub+0x2b0>
    275a:	0028      	movs	r0, r5
    275c:	f000 fc7a 	bl	3054 <__clzsi2>
    2760:	0003      	movs	r3, r0
    2762:	3b08      	subs	r3, #8
    2764:	2b1f      	cmp	r3, #31
    2766:	dd00      	ble.n	276a <__aeabi_dsub+0xd2>
    2768:	e0e9      	b.n	293e <__aeabi_dsub+0x2a6>
    276a:	2220      	movs	r2, #32
    276c:	003c      	movs	r4, r7
    276e:	1ad2      	subs	r2, r2, r3
    2770:	409d      	lsls	r5, r3
    2772:	40d4      	lsrs	r4, r2
    2774:	409f      	lsls	r7, r3
    2776:	4325      	orrs	r5, r4
    2778:	429e      	cmp	r6, r3
    277a:	dd00      	ble.n	277e <__aeabi_dsub+0xe6>
    277c:	e0db      	b.n	2936 <__aeabi_dsub+0x29e>
    277e:	1b9e      	subs	r6, r3, r6
    2780:	1c73      	adds	r3, r6, #1
    2782:	2b1f      	cmp	r3, #31
    2784:	dd00      	ble.n	2788 <__aeabi_dsub+0xf0>
    2786:	e10a      	b.n	299e <__aeabi_dsub+0x306>
    2788:	2220      	movs	r2, #32
    278a:	0038      	movs	r0, r7
    278c:	1ad2      	subs	r2, r2, r3
    278e:	0029      	movs	r1, r5
    2790:	4097      	lsls	r7, r2
    2792:	002c      	movs	r4, r5
    2794:	4091      	lsls	r1, r2
    2796:	40d8      	lsrs	r0, r3
    2798:	1e7a      	subs	r2, r7, #1
    279a:	4197      	sbcs	r7, r2
    279c:	40dc      	lsrs	r4, r3
    279e:	2600      	movs	r6, #0
    27a0:	4301      	orrs	r1, r0
    27a2:	430f      	orrs	r7, r1
    27a4:	077b      	lsls	r3, r7, #29
    27a6:	d009      	beq.n	27bc <__aeabi_dsub+0x124>
    27a8:	230f      	movs	r3, #15
    27aa:	403b      	ands	r3, r7
    27ac:	2b04      	cmp	r3, #4
    27ae:	d005      	beq.n	27bc <__aeabi_dsub+0x124>
    27b0:	1d3b      	adds	r3, r7, #4
    27b2:	42bb      	cmp	r3, r7
    27b4:	41bf      	sbcs	r7, r7
    27b6:	427f      	negs	r7, r7
    27b8:	19e4      	adds	r4, r4, r7
    27ba:	001f      	movs	r7, r3
    27bc:	0223      	lsls	r3, r4, #8
    27be:	d525      	bpl.n	280c <__aeabi_dsub+0x174>
    27c0:	4b86      	ldr	r3, [pc, #536]	; (29dc <__aeabi_dsub+0x344>)
    27c2:	3601      	adds	r6, #1
    27c4:	429e      	cmp	r6, r3
    27c6:	d100      	bne.n	27ca <__aeabi_dsub+0x132>
    27c8:	e0af      	b.n	292a <__aeabi_dsub+0x292>
    27ca:	4b85      	ldr	r3, [pc, #532]	; (29e0 <__aeabi_dsub+0x348>)
    27cc:	2501      	movs	r5, #1
    27ce:	401c      	ands	r4, r3
    27d0:	4643      	mov	r3, r8
    27d2:	0762      	lsls	r2, r4, #29
    27d4:	08ff      	lsrs	r7, r7, #3
    27d6:	0264      	lsls	r4, r4, #9
    27d8:	0576      	lsls	r6, r6, #21
    27da:	4317      	orrs	r7, r2
    27dc:	0b24      	lsrs	r4, r4, #12
    27de:	0d76      	lsrs	r6, r6, #21
    27e0:	401d      	ands	r5, r3
    27e2:	2100      	movs	r1, #0
    27e4:	0324      	lsls	r4, r4, #12
    27e6:	0b23      	lsrs	r3, r4, #12
    27e8:	0d0c      	lsrs	r4, r1, #20
    27ea:	4a7e      	ldr	r2, [pc, #504]	; (29e4 <__aeabi_dsub+0x34c>)
    27ec:	0524      	lsls	r4, r4, #20
    27ee:	431c      	orrs	r4, r3
    27f0:	4014      	ands	r4, r2
    27f2:	0533      	lsls	r3, r6, #20
    27f4:	4323      	orrs	r3, r4
    27f6:	005b      	lsls	r3, r3, #1
    27f8:	07ed      	lsls	r5, r5, #31
    27fa:	085b      	lsrs	r3, r3, #1
    27fc:	432b      	orrs	r3, r5
    27fe:	0038      	movs	r0, r7
    2800:	0019      	movs	r1, r3
    2802:	bc1c      	pop	{r2, r3, r4}
    2804:	4690      	mov	r8, r2
    2806:	4699      	mov	r9, r3
    2808:	46a2      	mov	sl, r4
    280a:	bdf0      	pop	{r4, r5, r6, r7, pc}
    280c:	2501      	movs	r5, #1
    280e:	4643      	mov	r3, r8
    2810:	0762      	lsls	r2, r4, #29
    2812:	08ff      	lsrs	r7, r7, #3
    2814:	4317      	orrs	r7, r2
    2816:	08e4      	lsrs	r4, r4, #3
    2818:	401d      	ands	r5, r3
    281a:	4b70      	ldr	r3, [pc, #448]	; (29dc <__aeabi_dsub+0x344>)
    281c:	429e      	cmp	r6, r3
    281e:	d036      	beq.n	288e <__aeabi_dsub+0x1f6>
    2820:	0324      	lsls	r4, r4, #12
    2822:	0576      	lsls	r6, r6, #21
    2824:	0b24      	lsrs	r4, r4, #12
    2826:	0d76      	lsrs	r6, r6, #21
    2828:	e7db      	b.n	27e2 <__aeabi_dsub+0x14a>
    282a:	4663      	mov	r3, ip
    282c:	1af3      	subs	r3, r6, r3
    282e:	2b00      	cmp	r3, #0
    2830:	dc00      	bgt.n	2834 <__aeabi_dsub+0x19c>
    2832:	e094      	b.n	295e <__aeabi_dsub+0x2c6>
    2834:	4660      	mov	r0, ip
    2836:	2800      	cmp	r0, #0
    2838:	d035      	beq.n	28a6 <__aeabi_dsub+0x20e>
    283a:	4868      	ldr	r0, [pc, #416]	; (29dc <__aeabi_dsub+0x344>)
    283c:	4286      	cmp	r6, r0
    283e:	d0b1      	beq.n	27a4 <__aeabi_dsub+0x10c>
    2840:	2780      	movs	r7, #128	; 0x80
    2842:	043f      	lsls	r7, r7, #16
    2844:	4339      	orrs	r1, r7
    2846:	2b38      	cmp	r3, #56	; 0x38
    2848:	dc00      	bgt.n	284c <__aeabi_dsub+0x1b4>
    284a:	e0fd      	b.n	2a48 <__aeabi_dsub+0x3b0>
    284c:	430a      	orrs	r2, r1
    284e:	0017      	movs	r7, r2
    2850:	2100      	movs	r1, #0
    2852:	1e7a      	subs	r2, r7, #1
    2854:	4197      	sbcs	r7, r2
    2856:	4457      	add	r7, sl
    2858:	4557      	cmp	r7, sl
    285a:	4180      	sbcs	r0, r0
    285c:	1909      	adds	r1, r1, r4
    285e:	4244      	negs	r4, r0
    2860:	190c      	adds	r4, r1, r4
    2862:	0223      	lsls	r3, r4, #8
    2864:	d53a      	bpl.n	28dc <__aeabi_dsub+0x244>
    2866:	4b5d      	ldr	r3, [pc, #372]	; (29dc <__aeabi_dsub+0x344>)
    2868:	3601      	adds	r6, #1
    286a:	429e      	cmp	r6, r3
    286c:	d100      	bne.n	2870 <__aeabi_dsub+0x1d8>
    286e:	e14b      	b.n	2b08 <__aeabi_dsub+0x470>
    2870:	2201      	movs	r2, #1
    2872:	4b5b      	ldr	r3, [pc, #364]	; (29e0 <__aeabi_dsub+0x348>)
    2874:	401c      	ands	r4, r3
    2876:	087b      	lsrs	r3, r7, #1
    2878:	4017      	ands	r7, r2
    287a:	431f      	orrs	r7, r3
    287c:	07e2      	lsls	r2, r4, #31
    287e:	4317      	orrs	r7, r2
    2880:	0864      	lsrs	r4, r4, #1
    2882:	e78f      	b.n	27a4 <__aeabi_dsub+0x10c>
    2884:	0008      	movs	r0, r1
    2886:	4310      	orrs	r0, r2
    2888:	d000      	beq.n	288c <__aeabi_dsub+0x1f4>
    288a:	e724      	b.n	26d6 <__aeabi_dsub+0x3e>
    288c:	e721      	b.n	26d2 <__aeabi_dsub+0x3a>
    288e:	0023      	movs	r3, r4
    2890:	433b      	orrs	r3, r7
    2892:	d100      	bne.n	2896 <__aeabi_dsub+0x1fe>
    2894:	e1b9      	b.n	2c0a <__aeabi_dsub+0x572>
    2896:	2280      	movs	r2, #128	; 0x80
    2898:	0312      	lsls	r2, r2, #12
    289a:	4314      	orrs	r4, r2
    289c:	0324      	lsls	r4, r4, #12
    289e:	0b24      	lsrs	r4, r4, #12
    28a0:	e79f      	b.n	27e2 <__aeabi_dsub+0x14a>
    28a2:	002e      	movs	r6, r5
    28a4:	e77e      	b.n	27a4 <__aeabi_dsub+0x10c>
    28a6:	0008      	movs	r0, r1
    28a8:	4310      	orrs	r0, r2
    28aa:	d100      	bne.n	28ae <__aeabi_dsub+0x216>
    28ac:	e0ca      	b.n	2a44 <__aeabi_dsub+0x3ac>
    28ae:	1e58      	subs	r0, r3, #1
    28b0:	4684      	mov	ip, r0
    28b2:	2800      	cmp	r0, #0
    28b4:	d000      	beq.n	28b8 <__aeabi_dsub+0x220>
    28b6:	e0e7      	b.n	2a88 <__aeabi_dsub+0x3f0>
    28b8:	4452      	add	r2, sl
    28ba:	4552      	cmp	r2, sl
    28bc:	4180      	sbcs	r0, r0
    28be:	1864      	adds	r4, r4, r1
    28c0:	4240      	negs	r0, r0
    28c2:	1824      	adds	r4, r4, r0
    28c4:	0017      	movs	r7, r2
    28c6:	2601      	movs	r6, #1
    28c8:	0223      	lsls	r3, r4, #8
    28ca:	d507      	bpl.n	28dc <__aeabi_dsub+0x244>
    28cc:	2602      	movs	r6, #2
    28ce:	e7cf      	b.n	2870 <__aeabi_dsub+0x1d8>
    28d0:	4664      	mov	r4, ip
    28d2:	432c      	orrs	r4, r5
    28d4:	d100      	bne.n	28d8 <__aeabi_dsub+0x240>
    28d6:	e1b3      	b.n	2c40 <__aeabi_dsub+0x5a8>
    28d8:	002c      	movs	r4, r5
    28da:	4667      	mov	r7, ip
    28dc:	077b      	lsls	r3, r7, #29
    28de:	d000      	beq.n	28e2 <__aeabi_dsub+0x24a>
    28e0:	e762      	b.n	27a8 <__aeabi_dsub+0x110>
    28e2:	0763      	lsls	r3, r4, #29
    28e4:	08ff      	lsrs	r7, r7, #3
    28e6:	431f      	orrs	r7, r3
    28e8:	2501      	movs	r5, #1
    28ea:	4643      	mov	r3, r8
    28ec:	08e4      	lsrs	r4, r4, #3
    28ee:	401d      	ands	r5, r3
    28f0:	e793      	b.n	281a <__aeabi_dsub+0x182>
    28f2:	2d00      	cmp	r5, #0
    28f4:	d178      	bne.n	29e8 <__aeabi_dsub+0x350>
    28f6:	1c75      	adds	r5, r6, #1
    28f8:	056d      	lsls	r5, r5, #21
    28fa:	0d6d      	lsrs	r5, r5, #21
    28fc:	2d01      	cmp	r5, #1
    28fe:	dc00      	bgt.n	2902 <__aeabi_dsub+0x26a>
    2900:	e0f2      	b.n	2ae8 <__aeabi_dsub+0x450>
    2902:	4650      	mov	r0, sl
    2904:	1a80      	subs	r0, r0, r2
    2906:	4582      	cmp	sl, r0
    2908:	41bf      	sbcs	r7, r7
    290a:	1a65      	subs	r5, r4, r1
    290c:	427f      	negs	r7, r7
    290e:	1bed      	subs	r5, r5, r7
    2910:	4684      	mov	ip, r0
    2912:	0228      	lsls	r0, r5, #8
    2914:	d400      	bmi.n	2918 <__aeabi_dsub+0x280>
    2916:	e08c      	b.n	2a32 <__aeabi_dsub+0x39a>
    2918:	4650      	mov	r0, sl
    291a:	1a17      	subs	r7, r2, r0
    291c:	42ba      	cmp	r2, r7
    291e:	4192      	sbcs	r2, r2
    2920:	1b0c      	subs	r4, r1, r4
    2922:	4255      	negs	r5, r2
    2924:	1b65      	subs	r5, r4, r5
    2926:	4698      	mov	r8, r3
    2928:	e714      	b.n	2754 <__aeabi_dsub+0xbc>
    292a:	2501      	movs	r5, #1
    292c:	4643      	mov	r3, r8
    292e:	2400      	movs	r4, #0
    2930:	401d      	ands	r5, r3
    2932:	2700      	movs	r7, #0
    2934:	e755      	b.n	27e2 <__aeabi_dsub+0x14a>
    2936:	4c2a      	ldr	r4, [pc, #168]	; (29e0 <__aeabi_dsub+0x348>)
    2938:	1af6      	subs	r6, r6, r3
    293a:	402c      	ands	r4, r5
    293c:	e732      	b.n	27a4 <__aeabi_dsub+0x10c>
    293e:	003d      	movs	r5, r7
    2940:	3828      	subs	r0, #40	; 0x28
    2942:	4085      	lsls	r5, r0
    2944:	2700      	movs	r7, #0
    2946:	e717      	b.n	2778 <__aeabi_dsub+0xe0>
    2948:	0038      	movs	r0, r7
    294a:	f000 fb83 	bl	3054 <__clzsi2>
    294e:	3020      	adds	r0, #32
    2950:	e706      	b.n	2760 <__aeabi_dsub+0xc8>
    2952:	430a      	orrs	r2, r1
    2954:	0017      	movs	r7, r2
    2956:	2100      	movs	r1, #0
    2958:	1e7a      	subs	r2, r7, #1
    295a:	4197      	sbcs	r7, r2
    295c:	e6ee      	b.n	273c <__aeabi_dsub+0xa4>
    295e:	2b00      	cmp	r3, #0
    2960:	d000      	beq.n	2964 <__aeabi_dsub+0x2cc>
    2962:	e0e5      	b.n	2b30 <__aeabi_dsub+0x498>
    2964:	1c73      	adds	r3, r6, #1
    2966:	469c      	mov	ip, r3
    2968:	055b      	lsls	r3, r3, #21
    296a:	0d5b      	lsrs	r3, r3, #21
    296c:	2b01      	cmp	r3, #1
    296e:	dc00      	bgt.n	2972 <__aeabi_dsub+0x2da>
    2970:	e09f      	b.n	2ab2 <__aeabi_dsub+0x41a>
    2972:	4b1a      	ldr	r3, [pc, #104]	; (29dc <__aeabi_dsub+0x344>)
    2974:	459c      	cmp	ip, r3
    2976:	d100      	bne.n	297a <__aeabi_dsub+0x2e2>
    2978:	e0c5      	b.n	2b06 <__aeabi_dsub+0x46e>
    297a:	4452      	add	r2, sl
    297c:	4552      	cmp	r2, sl
    297e:	4180      	sbcs	r0, r0
    2980:	1864      	adds	r4, r4, r1
    2982:	4240      	negs	r0, r0
    2984:	1824      	adds	r4, r4, r0
    2986:	07e7      	lsls	r7, r4, #31
    2988:	0852      	lsrs	r2, r2, #1
    298a:	4317      	orrs	r7, r2
    298c:	0864      	lsrs	r4, r4, #1
    298e:	4666      	mov	r6, ip
    2990:	e708      	b.n	27a4 <__aeabi_dsub+0x10c>
    2992:	4812      	ldr	r0, [pc, #72]	; (29dc <__aeabi_dsub+0x344>)
    2994:	4285      	cmp	r5, r0
    2996:	d100      	bne.n	299a <__aeabi_dsub+0x302>
    2998:	e085      	b.n	2aa6 <__aeabi_dsub+0x40e>
    299a:	001d      	movs	r5, r3
    299c:	e6bc      	b.n	2718 <__aeabi_dsub+0x80>
    299e:	0029      	movs	r1, r5
    29a0:	3e1f      	subs	r6, #31
    29a2:	40f1      	lsrs	r1, r6
    29a4:	2b20      	cmp	r3, #32
    29a6:	d100      	bne.n	29aa <__aeabi_dsub+0x312>
    29a8:	e07f      	b.n	2aaa <__aeabi_dsub+0x412>
    29aa:	2240      	movs	r2, #64	; 0x40
    29ac:	1ad3      	subs	r3, r2, r3
    29ae:	409d      	lsls	r5, r3
    29b0:	432f      	orrs	r7, r5
    29b2:	1e7d      	subs	r5, r7, #1
    29b4:	41af      	sbcs	r7, r5
    29b6:	2400      	movs	r4, #0
    29b8:	430f      	orrs	r7, r1
    29ba:	2600      	movs	r6, #0
    29bc:	e78e      	b.n	28dc <__aeabi_dsub+0x244>
    29be:	002b      	movs	r3, r5
    29c0:	000f      	movs	r7, r1
    29c2:	3b20      	subs	r3, #32
    29c4:	40df      	lsrs	r7, r3
    29c6:	2d20      	cmp	r5, #32
    29c8:	d071      	beq.n	2aae <__aeabi_dsub+0x416>
    29ca:	2340      	movs	r3, #64	; 0x40
    29cc:	1b5d      	subs	r5, r3, r5
    29ce:	40a9      	lsls	r1, r5
    29d0:	430a      	orrs	r2, r1
    29d2:	1e51      	subs	r1, r2, #1
    29d4:	418a      	sbcs	r2, r1
    29d6:	2100      	movs	r1, #0
    29d8:	4317      	orrs	r7, r2
    29da:	e6af      	b.n	273c <__aeabi_dsub+0xa4>
    29dc:	000007ff 	.word	0x000007ff
    29e0:	ff7fffff 	.word	0xff7fffff
    29e4:	800fffff 	.word	0x800fffff
    29e8:	2e00      	cmp	r6, #0
    29ea:	d03e      	beq.n	2a6a <__aeabi_dsub+0x3d2>
    29ec:	4eb3      	ldr	r6, [pc, #716]	; (2cbc <__aeabi_dsub+0x624>)
    29ee:	45b4      	cmp	ip, r6
    29f0:	d045      	beq.n	2a7e <__aeabi_dsub+0x3e6>
    29f2:	2680      	movs	r6, #128	; 0x80
    29f4:	0436      	lsls	r6, r6, #16
    29f6:	426d      	negs	r5, r5
    29f8:	4334      	orrs	r4, r6
    29fa:	2d38      	cmp	r5, #56	; 0x38
    29fc:	dd00      	ble.n	2a00 <__aeabi_dsub+0x368>
    29fe:	e0a8      	b.n	2b52 <__aeabi_dsub+0x4ba>
    2a00:	2d1f      	cmp	r5, #31
    2a02:	dd00      	ble.n	2a06 <__aeabi_dsub+0x36e>
    2a04:	e11f      	b.n	2c46 <__aeabi_dsub+0x5ae>
    2a06:	2620      	movs	r6, #32
    2a08:	0027      	movs	r7, r4
    2a0a:	4650      	mov	r0, sl
    2a0c:	1b76      	subs	r6, r6, r5
    2a0e:	40b7      	lsls	r7, r6
    2a10:	40e8      	lsrs	r0, r5
    2a12:	4307      	orrs	r7, r0
    2a14:	4650      	mov	r0, sl
    2a16:	40b0      	lsls	r0, r6
    2a18:	1e46      	subs	r6, r0, #1
    2a1a:	41b0      	sbcs	r0, r6
    2a1c:	40ec      	lsrs	r4, r5
    2a1e:	4338      	orrs	r0, r7
    2a20:	1a17      	subs	r7, r2, r0
    2a22:	42ba      	cmp	r2, r7
    2a24:	4192      	sbcs	r2, r2
    2a26:	1b0c      	subs	r4, r1, r4
    2a28:	4252      	negs	r2, r2
    2a2a:	1aa4      	subs	r4, r4, r2
    2a2c:	4666      	mov	r6, ip
    2a2e:	4698      	mov	r8, r3
    2a30:	e68b      	b.n	274a <__aeabi_dsub+0xb2>
    2a32:	4664      	mov	r4, ip
    2a34:	4667      	mov	r7, ip
    2a36:	432c      	orrs	r4, r5
    2a38:	d000      	beq.n	2a3c <__aeabi_dsub+0x3a4>
    2a3a:	e68b      	b.n	2754 <__aeabi_dsub+0xbc>
    2a3c:	2500      	movs	r5, #0
    2a3e:	2600      	movs	r6, #0
    2a40:	2700      	movs	r7, #0
    2a42:	e6ea      	b.n	281a <__aeabi_dsub+0x182>
    2a44:	001e      	movs	r6, r3
    2a46:	e6ad      	b.n	27a4 <__aeabi_dsub+0x10c>
    2a48:	2b1f      	cmp	r3, #31
    2a4a:	dc60      	bgt.n	2b0e <__aeabi_dsub+0x476>
    2a4c:	2720      	movs	r7, #32
    2a4e:	1af8      	subs	r0, r7, r3
    2a50:	000f      	movs	r7, r1
    2a52:	4684      	mov	ip, r0
    2a54:	4087      	lsls	r7, r0
    2a56:	0010      	movs	r0, r2
    2a58:	40d8      	lsrs	r0, r3
    2a5a:	4307      	orrs	r7, r0
    2a5c:	4660      	mov	r0, ip
    2a5e:	4082      	lsls	r2, r0
    2a60:	1e50      	subs	r0, r2, #1
    2a62:	4182      	sbcs	r2, r0
    2a64:	40d9      	lsrs	r1, r3
    2a66:	4317      	orrs	r7, r2
    2a68:	e6f5      	b.n	2856 <__aeabi_dsub+0x1be>
    2a6a:	0026      	movs	r6, r4
    2a6c:	4650      	mov	r0, sl
    2a6e:	4306      	orrs	r6, r0
    2a70:	d005      	beq.n	2a7e <__aeabi_dsub+0x3e6>
    2a72:	43ed      	mvns	r5, r5
    2a74:	2d00      	cmp	r5, #0
    2a76:	d0d3      	beq.n	2a20 <__aeabi_dsub+0x388>
    2a78:	4e90      	ldr	r6, [pc, #576]	; (2cbc <__aeabi_dsub+0x624>)
    2a7a:	45b4      	cmp	ip, r6
    2a7c:	d1bd      	bne.n	29fa <__aeabi_dsub+0x362>
    2a7e:	000c      	movs	r4, r1
    2a80:	0017      	movs	r7, r2
    2a82:	4666      	mov	r6, ip
    2a84:	4698      	mov	r8, r3
    2a86:	e68d      	b.n	27a4 <__aeabi_dsub+0x10c>
    2a88:	488c      	ldr	r0, [pc, #560]	; (2cbc <__aeabi_dsub+0x624>)
    2a8a:	4283      	cmp	r3, r0
    2a8c:	d00b      	beq.n	2aa6 <__aeabi_dsub+0x40e>
    2a8e:	4663      	mov	r3, ip
    2a90:	e6d9      	b.n	2846 <__aeabi_dsub+0x1ae>
    2a92:	2d00      	cmp	r5, #0
    2a94:	d000      	beq.n	2a98 <__aeabi_dsub+0x400>
    2a96:	e096      	b.n	2bc6 <__aeabi_dsub+0x52e>
    2a98:	0008      	movs	r0, r1
    2a9a:	4310      	orrs	r0, r2
    2a9c:	d100      	bne.n	2aa0 <__aeabi_dsub+0x408>
    2a9e:	e0e2      	b.n	2c66 <__aeabi_dsub+0x5ce>
    2aa0:	000c      	movs	r4, r1
    2aa2:	0017      	movs	r7, r2
    2aa4:	4698      	mov	r8, r3
    2aa6:	4e85      	ldr	r6, [pc, #532]	; (2cbc <__aeabi_dsub+0x624>)
    2aa8:	e67c      	b.n	27a4 <__aeabi_dsub+0x10c>
    2aaa:	2500      	movs	r5, #0
    2aac:	e780      	b.n	29b0 <__aeabi_dsub+0x318>
    2aae:	2100      	movs	r1, #0
    2ab0:	e78e      	b.n	29d0 <__aeabi_dsub+0x338>
    2ab2:	0023      	movs	r3, r4
    2ab4:	4650      	mov	r0, sl
    2ab6:	4303      	orrs	r3, r0
    2ab8:	2e00      	cmp	r6, #0
    2aba:	d000      	beq.n	2abe <__aeabi_dsub+0x426>
    2abc:	e0a8      	b.n	2c10 <__aeabi_dsub+0x578>
    2abe:	2b00      	cmp	r3, #0
    2ac0:	d100      	bne.n	2ac4 <__aeabi_dsub+0x42c>
    2ac2:	e0de      	b.n	2c82 <__aeabi_dsub+0x5ea>
    2ac4:	000b      	movs	r3, r1
    2ac6:	4313      	orrs	r3, r2
    2ac8:	d100      	bne.n	2acc <__aeabi_dsub+0x434>
    2aca:	e66b      	b.n	27a4 <__aeabi_dsub+0x10c>
    2acc:	4452      	add	r2, sl
    2ace:	4552      	cmp	r2, sl
    2ad0:	4180      	sbcs	r0, r0
    2ad2:	1864      	adds	r4, r4, r1
    2ad4:	4240      	negs	r0, r0
    2ad6:	1824      	adds	r4, r4, r0
    2ad8:	0017      	movs	r7, r2
    2ada:	0223      	lsls	r3, r4, #8
    2adc:	d400      	bmi.n	2ae0 <__aeabi_dsub+0x448>
    2ade:	e6fd      	b.n	28dc <__aeabi_dsub+0x244>
    2ae0:	4b77      	ldr	r3, [pc, #476]	; (2cc0 <__aeabi_dsub+0x628>)
    2ae2:	4666      	mov	r6, ip
    2ae4:	401c      	ands	r4, r3
    2ae6:	e65d      	b.n	27a4 <__aeabi_dsub+0x10c>
    2ae8:	0025      	movs	r5, r4
    2aea:	4650      	mov	r0, sl
    2aec:	4305      	orrs	r5, r0
    2aee:	2e00      	cmp	r6, #0
    2af0:	d1cf      	bne.n	2a92 <__aeabi_dsub+0x3fa>
    2af2:	2d00      	cmp	r5, #0
    2af4:	d14f      	bne.n	2b96 <__aeabi_dsub+0x4fe>
    2af6:	000c      	movs	r4, r1
    2af8:	4314      	orrs	r4, r2
    2afa:	d100      	bne.n	2afe <__aeabi_dsub+0x466>
    2afc:	e0a0      	b.n	2c40 <__aeabi_dsub+0x5a8>
    2afe:	000c      	movs	r4, r1
    2b00:	0017      	movs	r7, r2
    2b02:	4698      	mov	r8, r3
    2b04:	e64e      	b.n	27a4 <__aeabi_dsub+0x10c>
    2b06:	4666      	mov	r6, ip
    2b08:	2400      	movs	r4, #0
    2b0a:	2700      	movs	r7, #0
    2b0c:	e685      	b.n	281a <__aeabi_dsub+0x182>
    2b0e:	001f      	movs	r7, r3
    2b10:	0008      	movs	r0, r1
    2b12:	3f20      	subs	r7, #32
    2b14:	40f8      	lsrs	r0, r7
    2b16:	0007      	movs	r7, r0
    2b18:	2b20      	cmp	r3, #32
    2b1a:	d100      	bne.n	2b1e <__aeabi_dsub+0x486>
    2b1c:	e08e      	b.n	2c3c <__aeabi_dsub+0x5a4>
    2b1e:	2040      	movs	r0, #64	; 0x40
    2b20:	1ac3      	subs	r3, r0, r3
    2b22:	4099      	lsls	r1, r3
    2b24:	430a      	orrs	r2, r1
    2b26:	1e51      	subs	r1, r2, #1
    2b28:	418a      	sbcs	r2, r1
    2b2a:	2100      	movs	r1, #0
    2b2c:	4317      	orrs	r7, r2
    2b2e:	e692      	b.n	2856 <__aeabi_dsub+0x1be>
    2b30:	2e00      	cmp	r6, #0
    2b32:	d114      	bne.n	2b5e <__aeabi_dsub+0x4c6>
    2b34:	0026      	movs	r6, r4
    2b36:	4650      	mov	r0, sl
    2b38:	4306      	orrs	r6, r0
    2b3a:	d062      	beq.n	2c02 <__aeabi_dsub+0x56a>
    2b3c:	43db      	mvns	r3, r3
    2b3e:	2b00      	cmp	r3, #0
    2b40:	d15c      	bne.n	2bfc <__aeabi_dsub+0x564>
    2b42:	1887      	adds	r7, r0, r2
    2b44:	4297      	cmp	r7, r2
    2b46:	4192      	sbcs	r2, r2
    2b48:	1864      	adds	r4, r4, r1
    2b4a:	4252      	negs	r2, r2
    2b4c:	18a4      	adds	r4, r4, r2
    2b4e:	4666      	mov	r6, ip
    2b50:	e687      	b.n	2862 <__aeabi_dsub+0x1ca>
    2b52:	4650      	mov	r0, sl
    2b54:	4320      	orrs	r0, r4
    2b56:	1e44      	subs	r4, r0, #1
    2b58:	41a0      	sbcs	r0, r4
    2b5a:	2400      	movs	r4, #0
    2b5c:	e760      	b.n	2a20 <__aeabi_dsub+0x388>
    2b5e:	4e57      	ldr	r6, [pc, #348]	; (2cbc <__aeabi_dsub+0x624>)
    2b60:	45b4      	cmp	ip, r6
    2b62:	d04e      	beq.n	2c02 <__aeabi_dsub+0x56a>
    2b64:	2680      	movs	r6, #128	; 0x80
    2b66:	0436      	lsls	r6, r6, #16
    2b68:	425b      	negs	r3, r3
    2b6a:	4334      	orrs	r4, r6
    2b6c:	2b38      	cmp	r3, #56	; 0x38
    2b6e:	dd00      	ble.n	2b72 <__aeabi_dsub+0x4da>
    2b70:	e07f      	b.n	2c72 <__aeabi_dsub+0x5da>
    2b72:	2b1f      	cmp	r3, #31
    2b74:	dd00      	ble.n	2b78 <__aeabi_dsub+0x4e0>
    2b76:	e08b      	b.n	2c90 <__aeabi_dsub+0x5f8>
    2b78:	2620      	movs	r6, #32
    2b7a:	0027      	movs	r7, r4
    2b7c:	4650      	mov	r0, sl
    2b7e:	1af6      	subs	r6, r6, r3
    2b80:	40b7      	lsls	r7, r6
    2b82:	40d8      	lsrs	r0, r3
    2b84:	4307      	orrs	r7, r0
    2b86:	4650      	mov	r0, sl
    2b88:	40b0      	lsls	r0, r6
    2b8a:	1e46      	subs	r6, r0, #1
    2b8c:	41b0      	sbcs	r0, r6
    2b8e:	4307      	orrs	r7, r0
    2b90:	40dc      	lsrs	r4, r3
    2b92:	18bf      	adds	r7, r7, r2
    2b94:	e7d6      	b.n	2b44 <__aeabi_dsub+0x4ac>
    2b96:	000d      	movs	r5, r1
    2b98:	4315      	orrs	r5, r2
    2b9a:	d100      	bne.n	2b9e <__aeabi_dsub+0x506>
    2b9c:	e602      	b.n	27a4 <__aeabi_dsub+0x10c>
    2b9e:	4650      	mov	r0, sl
    2ba0:	1a80      	subs	r0, r0, r2
    2ba2:	4582      	cmp	sl, r0
    2ba4:	41bf      	sbcs	r7, r7
    2ba6:	1a65      	subs	r5, r4, r1
    2ba8:	427f      	negs	r7, r7
    2baa:	1bed      	subs	r5, r5, r7
    2bac:	4684      	mov	ip, r0
    2bae:	0228      	lsls	r0, r5, #8
    2bb0:	d400      	bmi.n	2bb4 <__aeabi_dsub+0x51c>
    2bb2:	e68d      	b.n	28d0 <__aeabi_dsub+0x238>
    2bb4:	4650      	mov	r0, sl
    2bb6:	1a17      	subs	r7, r2, r0
    2bb8:	42ba      	cmp	r2, r7
    2bba:	4192      	sbcs	r2, r2
    2bbc:	1b0c      	subs	r4, r1, r4
    2bbe:	4252      	negs	r2, r2
    2bc0:	1aa4      	subs	r4, r4, r2
    2bc2:	4698      	mov	r8, r3
    2bc4:	e5ee      	b.n	27a4 <__aeabi_dsub+0x10c>
    2bc6:	000d      	movs	r5, r1
    2bc8:	4315      	orrs	r5, r2
    2bca:	d100      	bne.n	2bce <__aeabi_dsub+0x536>
    2bcc:	e76b      	b.n	2aa6 <__aeabi_dsub+0x40e>
    2bce:	4650      	mov	r0, sl
    2bd0:	0767      	lsls	r7, r4, #29
    2bd2:	08c0      	lsrs	r0, r0, #3
    2bd4:	4307      	orrs	r7, r0
    2bd6:	2080      	movs	r0, #128	; 0x80
    2bd8:	08e4      	lsrs	r4, r4, #3
    2bda:	0300      	lsls	r0, r0, #12
    2bdc:	4204      	tst	r4, r0
    2bde:	d007      	beq.n	2bf0 <__aeabi_dsub+0x558>
    2be0:	08cd      	lsrs	r5, r1, #3
    2be2:	4205      	tst	r5, r0
    2be4:	d104      	bne.n	2bf0 <__aeabi_dsub+0x558>
    2be6:	002c      	movs	r4, r5
    2be8:	4698      	mov	r8, r3
    2bea:	08d7      	lsrs	r7, r2, #3
    2bec:	0749      	lsls	r1, r1, #29
    2bee:	430f      	orrs	r7, r1
    2bf0:	0f7b      	lsrs	r3, r7, #29
    2bf2:	00e4      	lsls	r4, r4, #3
    2bf4:	431c      	orrs	r4, r3
    2bf6:	00ff      	lsls	r7, r7, #3
    2bf8:	4e30      	ldr	r6, [pc, #192]	; (2cbc <__aeabi_dsub+0x624>)
    2bfa:	e5d3      	b.n	27a4 <__aeabi_dsub+0x10c>
    2bfc:	4e2f      	ldr	r6, [pc, #188]	; (2cbc <__aeabi_dsub+0x624>)
    2bfe:	45b4      	cmp	ip, r6
    2c00:	d1b4      	bne.n	2b6c <__aeabi_dsub+0x4d4>
    2c02:	000c      	movs	r4, r1
    2c04:	0017      	movs	r7, r2
    2c06:	4666      	mov	r6, ip
    2c08:	e5cc      	b.n	27a4 <__aeabi_dsub+0x10c>
    2c0a:	2700      	movs	r7, #0
    2c0c:	2400      	movs	r4, #0
    2c0e:	e5e8      	b.n	27e2 <__aeabi_dsub+0x14a>
    2c10:	2b00      	cmp	r3, #0
    2c12:	d039      	beq.n	2c88 <__aeabi_dsub+0x5f0>
    2c14:	000b      	movs	r3, r1
    2c16:	4313      	orrs	r3, r2
    2c18:	d100      	bne.n	2c1c <__aeabi_dsub+0x584>
    2c1a:	e744      	b.n	2aa6 <__aeabi_dsub+0x40e>
    2c1c:	08c0      	lsrs	r0, r0, #3
    2c1e:	0767      	lsls	r7, r4, #29
    2c20:	4307      	orrs	r7, r0
    2c22:	2080      	movs	r0, #128	; 0x80
    2c24:	08e4      	lsrs	r4, r4, #3
    2c26:	0300      	lsls	r0, r0, #12
    2c28:	4204      	tst	r4, r0
    2c2a:	d0e1      	beq.n	2bf0 <__aeabi_dsub+0x558>
    2c2c:	08cb      	lsrs	r3, r1, #3
    2c2e:	4203      	tst	r3, r0
    2c30:	d1de      	bne.n	2bf0 <__aeabi_dsub+0x558>
    2c32:	08d7      	lsrs	r7, r2, #3
    2c34:	0749      	lsls	r1, r1, #29
    2c36:	430f      	orrs	r7, r1
    2c38:	001c      	movs	r4, r3
    2c3a:	e7d9      	b.n	2bf0 <__aeabi_dsub+0x558>
    2c3c:	2100      	movs	r1, #0
    2c3e:	e771      	b.n	2b24 <__aeabi_dsub+0x48c>
    2c40:	2500      	movs	r5, #0
    2c42:	2700      	movs	r7, #0
    2c44:	e5e9      	b.n	281a <__aeabi_dsub+0x182>
    2c46:	002e      	movs	r6, r5
    2c48:	0027      	movs	r7, r4
    2c4a:	3e20      	subs	r6, #32
    2c4c:	40f7      	lsrs	r7, r6
    2c4e:	2d20      	cmp	r5, #32
    2c50:	d02f      	beq.n	2cb2 <__aeabi_dsub+0x61a>
    2c52:	2640      	movs	r6, #64	; 0x40
    2c54:	1b75      	subs	r5, r6, r5
    2c56:	40ac      	lsls	r4, r5
    2c58:	4650      	mov	r0, sl
    2c5a:	4320      	orrs	r0, r4
    2c5c:	1e44      	subs	r4, r0, #1
    2c5e:	41a0      	sbcs	r0, r4
    2c60:	2400      	movs	r4, #0
    2c62:	4338      	orrs	r0, r7
    2c64:	e6dc      	b.n	2a20 <__aeabi_dsub+0x388>
    2c66:	2480      	movs	r4, #128	; 0x80
    2c68:	2500      	movs	r5, #0
    2c6a:	0324      	lsls	r4, r4, #12
    2c6c:	4e13      	ldr	r6, [pc, #76]	; (2cbc <__aeabi_dsub+0x624>)
    2c6e:	2700      	movs	r7, #0
    2c70:	e5d3      	b.n	281a <__aeabi_dsub+0x182>
    2c72:	4650      	mov	r0, sl
    2c74:	4320      	orrs	r0, r4
    2c76:	0007      	movs	r7, r0
    2c78:	1e78      	subs	r0, r7, #1
    2c7a:	4187      	sbcs	r7, r0
    2c7c:	2400      	movs	r4, #0
    2c7e:	18bf      	adds	r7, r7, r2
    2c80:	e760      	b.n	2b44 <__aeabi_dsub+0x4ac>
    2c82:	000c      	movs	r4, r1
    2c84:	0017      	movs	r7, r2
    2c86:	e58d      	b.n	27a4 <__aeabi_dsub+0x10c>
    2c88:	000c      	movs	r4, r1
    2c8a:	0017      	movs	r7, r2
    2c8c:	4e0b      	ldr	r6, [pc, #44]	; (2cbc <__aeabi_dsub+0x624>)
    2c8e:	e589      	b.n	27a4 <__aeabi_dsub+0x10c>
    2c90:	001e      	movs	r6, r3
    2c92:	0027      	movs	r7, r4
    2c94:	3e20      	subs	r6, #32
    2c96:	40f7      	lsrs	r7, r6
    2c98:	2b20      	cmp	r3, #32
    2c9a:	d00c      	beq.n	2cb6 <__aeabi_dsub+0x61e>
    2c9c:	2640      	movs	r6, #64	; 0x40
    2c9e:	1af3      	subs	r3, r6, r3
    2ca0:	409c      	lsls	r4, r3
    2ca2:	4650      	mov	r0, sl
    2ca4:	4320      	orrs	r0, r4
    2ca6:	1e44      	subs	r4, r0, #1
    2ca8:	41a0      	sbcs	r0, r4
    2caa:	4307      	orrs	r7, r0
    2cac:	2400      	movs	r4, #0
    2cae:	18bf      	adds	r7, r7, r2
    2cb0:	e748      	b.n	2b44 <__aeabi_dsub+0x4ac>
    2cb2:	2400      	movs	r4, #0
    2cb4:	e7d0      	b.n	2c58 <__aeabi_dsub+0x5c0>
    2cb6:	2400      	movs	r4, #0
    2cb8:	e7f3      	b.n	2ca2 <__aeabi_dsub+0x60a>
    2cba:	46c0      	nop			; (mov r8, r8)
    2cbc:	000007ff 	.word	0x000007ff
    2cc0:	ff7fffff 	.word	0xff7fffff

00002cc4 <__aeabi_d2iz>:
    2cc4:	b530      	push	{r4, r5, lr}
    2cc6:	4d13      	ldr	r5, [pc, #76]	; (2d14 <__aeabi_d2iz+0x50>)
    2cc8:	030a      	lsls	r2, r1, #12
    2cca:	004b      	lsls	r3, r1, #1
    2ccc:	0b12      	lsrs	r2, r2, #12
    2cce:	0d5b      	lsrs	r3, r3, #21
    2cd0:	0fc9      	lsrs	r1, r1, #31
    2cd2:	2400      	movs	r4, #0
    2cd4:	42ab      	cmp	r3, r5
    2cd6:	dd10      	ble.n	2cfa <__aeabi_d2iz+0x36>
    2cd8:	4c0f      	ldr	r4, [pc, #60]	; (2d18 <__aeabi_d2iz+0x54>)
    2cda:	42a3      	cmp	r3, r4
    2cdc:	dc0f      	bgt.n	2cfe <__aeabi_d2iz+0x3a>
    2cde:	2480      	movs	r4, #128	; 0x80
    2ce0:	4d0e      	ldr	r5, [pc, #56]	; (2d1c <__aeabi_d2iz+0x58>)
    2ce2:	0364      	lsls	r4, r4, #13
    2ce4:	4322      	orrs	r2, r4
    2ce6:	1aed      	subs	r5, r5, r3
    2ce8:	2d1f      	cmp	r5, #31
    2cea:	dd0b      	ble.n	2d04 <__aeabi_d2iz+0x40>
    2cec:	480c      	ldr	r0, [pc, #48]	; (2d20 <__aeabi_d2iz+0x5c>)
    2cee:	1ac3      	subs	r3, r0, r3
    2cf0:	40da      	lsrs	r2, r3
    2cf2:	4254      	negs	r4, r2
    2cf4:	2900      	cmp	r1, #0
    2cf6:	d100      	bne.n	2cfa <__aeabi_d2iz+0x36>
    2cf8:	0014      	movs	r4, r2
    2cfa:	0020      	movs	r0, r4
    2cfc:	bd30      	pop	{r4, r5, pc}
    2cfe:	4b09      	ldr	r3, [pc, #36]	; (2d24 <__aeabi_d2iz+0x60>)
    2d00:	18cc      	adds	r4, r1, r3
    2d02:	e7fa      	b.n	2cfa <__aeabi_d2iz+0x36>
    2d04:	4c08      	ldr	r4, [pc, #32]	; (2d28 <__aeabi_d2iz+0x64>)
    2d06:	40e8      	lsrs	r0, r5
    2d08:	46a4      	mov	ip, r4
    2d0a:	4463      	add	r3, ip
    2d0c:	409a      	lsls	r2, r3
    2d0e:	4302      	orrs	r2, r0
    2d10:	e7ef      	b.n	2cf2 <__aeabi_d2iz+0x2e>
    2d12:	46c0      	nop			; (mov r8, r8)
    2d14:	000003fe 	.word	0x000003fe
    2d18:	0000041d 	.word	0x0000041d
    2d1c:	00000433 	.word	0x00000433
    2d20:	00000413 	.word	0x00000413
    2d24:	7fffffff 	.word	0x7fffffff
    2d28:	fffffbed 	.word	0xfffffbed

00002d2c <__aeabi_i2d>:
    2d2c:	b570      	push	{r4, r5, r6, lr}
    2d2e:	2800      	cmp	r0, #0
    2d30:	d030      	beq.n	2d94 <__aeabi_i2d+0x68>
    2d32:	17c3      	asrs	r3, r0, #31
    2d34:	18c4      	adds	r4, r0, r3
    2d36:	405c      	eors	r4, r3
    2d38:	0fc5      	lsrs	r5, r0, #31
    2d3a:	0020      	movs	r0, r4
    2d3c:	f000 f98a 	bl	3054 <__clzsi2>
    2d40:	4b17      	ldr	r3, [pc, #92]	; (2da0 <__aeabi_i2d+0x74>)
    2d42:	4a18      	ldr	r2, [pc, #96]	; (2da4 <__aeabi_i2d+0x78>)
    2d44:	1a1b      	subs	r3, r3, r0
    2d46:	1ad2      	subs	r2, r2, r3
    2d48:	2a1f      	cmp	r2, #31
    2d4a:	dd18      	ble.n	2d7e <__aeabi_i2d+0x52>
    2d4c:	4a16      	ldr	r2, [pc, #88]	; (2da8 <__aeabi_i2d+0x7c>)
    2d4e:	1ad2      	subs	r2, r2, r3
    2d50:	4094      	lsls	r4, r2
    2d52:	2200      	movs	r2, #0
    2d54:	0324      	lsls	r4, r4, #12
    2d56:	055b      	lsls	r3, r3, #21
    2d58:	0b24      	lsrs	r4, r4, #12
    2d5a:	0d5b      	lsrs	r3, r3, #21
    2d5c:	2100      	movs	r1, #0
    2d5e:	0010      	movs	r0, r2
    2d60:	0324      	lsls	r4, r4, #12
    2d62:	0d0a      	lsrs	r2, r1, #20
    2d64:	0b24      	lsrs	r4, r4, #12
    2d66:	0512      	lsls	r2, r2, #20
    2d68:	4322      	orrs	r2, r4
    2d6a:	4c10      	ldr	r4, [pc, #64]	; (2dac <__aeabi_i2d+0x80>)
    2d6c:	051b      	lsls	r3, r3, #20
    2d6e:	4022      	ands	r2, r4
    2d70:	4313      	orrs	r3, r2
    2d72:	005b      	lsls	r3, r3, #1
    2d74:	07ed      	lsls	r5, r5, #31
    2d76:	085b      	lsrs	r3, r3, #1
    2d78:	432b      	orrs	r3, r5
    2d7a:	0019      	movs	r1, r3
    2d7c:	bd70      	pop	{r4, r5, r6, pc}
    2d7e:	0021      	movs	r1, r4
    2d80:	4091      	lsls	r1, r2
    2d82:	000a      	movs	r2, r1
    2d84:	210b      	movs	r1, #11
    2d86:	1a08      	subs	r0, r1, r0
    2d88:	40c4      	lsrs	r4, r0
    2d8a:	055b      	lsls	r3, r3, #21
    2d8c:	0324      	lsls	r4, r4, #12
    2d8e:	0b24      	lsrs	r4, r4, #12
    2d90:	0d5b      	lsrs	r3, r3, #21
    2d92:	e7e3      	b.n	2d5c <__aeabi_i2d+0x30>
    2d94:	2500      	movs	r5, #0
    2d96:	2300      	movs	r3, #0
    2d98:	2400      	movs	r4, #0
    2d9a:	2200      	movs	r2, #0
    2d9c:	e7de      	b.n	2d5c <__aeabi_i2d+0x30>
    2d9e:	46c0      	nop			; (mov r8, r8)
    2da0:	0000041e 	.word	0x0000041e
    2da4:	00000433 	.word	0x00000433
    2da8:	00000413 	.word	0x00000413
    2dac:	800fffff 	.word	0x800fffff

00002db0 <__aeabi_ui2d>:
    2db0:	b510      	push	{r4, lr}
    2db2:	1e04      	subs	r4, r0, #0
    2db4:	d028      	beq.n	2e08 <__aeabi_ui2d+0x58>
    2db6:	f000 f94d 	bl	3054 <__clzsi2>
    2dba:	4b15      	ldr	r3, [pc, #84]	; (2e10 <__aeabi_ui2d+0x60>)
    2dbc:	4a15      	ldr	r2, [pc, #84]	; (2e14 <__aeabi_ui2d+0x64>)
    2dbe:	1a1b      	subs	r3, r3, r0
    2dc0:	1ad2      	subs	r2, r2, r3
    2dc2:	2a1f      	cmp	r2, #31
    2dc4:	dd15      	ble.n	2df2 <__aeabi_ui2d+0x42>
    2dc6:	4a14      	ldr	r2, [pc, #80]	; (2e18 <__aeabi_ui2d+0x68>)
    2dc8:	1ad2      	subs	r2, r2, r3
    2dca:	4094      	lsls	r4, r2
    2dcc:	2200      	movs	r2, #0
    2dce:	0324      	lsls	r4, r4, #12
    2dd0:	055b      	lsls	r3, r3, #21
    2dd2:	0b24      	lsrs	r4, r4, #12
    2dd4:	0d5b      	lsrs	r3, r3, #21
    2dd6:	2100      	movs	r1, #0
    2dd8:	0010      	movs	r0, r2
    2dda:	0324      	lsls	r4, r4, #12
    2ddc:	0d0a      	lsrs	r2, r1, #20
    2dde:	0b24      	lsrs	r4, r4, #12
    2de0:	0512      	lsls	r2, r2, #20
    2de2:	4322      	orrs	r2, r4
    2de4:	4c0d      	ldr	r4, [pc, #52]	; (2e1c <__aeabi_ui2d+0x6c>)
    2de6:	051b      	lsls	r3, r3, #20
    2de8:	4022      	ands	r2, r4
    2dea:	4313      	orrs	r3, r2
    2dec:	005b      	lsls	r3, r3, #1
    2dee:	0859      	lsrs	r1, r3, #1
    2df0:	bd10      	pop	{r4, pc}
    2df2:	0021      	movs	r1, r4
    2df4:	4091      	lsls	r1, r2
    2df6:	000a      	movs	r2, r1
    2df8:	210b      	movs	r1, #11
    2dfa:	1a08      	subs	r0, r1, r0
    2dfc:	40c4      	lsrs	r4, r0
    2dfe:	055b      	lsls	r3, r3, #21
    2e00:	0324      	lsls	r4, r4, #12
    2e02:	0b24      	lsrs	r4, r4, #12
    2e04:	0d5b      	lsrs	r3, r3, #21
    2e06:	e7e6      	b.n	2dd6 <__aeabi_ui2d+0x26>
    2e08:	2300      	movs	r3, #0
    2e0a:	2400      	movs	r4, #0
    2e0c:	2200      	movs	r2, #0
    2e0e:	e7e2      	b.n	2dd6 <__aeabi_ui2d+0x26>
    2e10:	0000041e 	.word	0x0000041e
    2e14:	00000433 	.word	0x00000433
    2e18:	00000413 	.word	0x00000413
    2e1c:	800fffff 	.word	0x800fffff

00002e20 <__aeabi_f2d>:
    2e20:	0041      	lsls	r1, r0, #1
    2e22:	0e09      	lsrs	r1, r1, #24
    2e24:	1c4b      	adds	r3, r1, #1
    2e26:	b570      	push	{r4, r5, r6, lr}
    2e28:	b2db      	uxtb	r3, r3
    2e2a:	0246      	lsls	r6, r0, #9
    2e2c:	0a75      	lsrs	r5, r6, #9
    2e2e:	0fc4      	lsrs	r4, r0, #31
    2e30:	2b01      	cmp	r3, #1
    2e32:	dd14      	ble.n	2e5e <__aeabi_f2d+0x3e>
    2e34:	23e0      	movs	r3, #224	; 0xe0
    2e36:	009b      	lsls	r3, r3, #2
    2e38:	076d      	lsls	r5, r5, #29
    2e3a:	0b36      	lsrs	r6, r6, #12
    2e3c:	18cb      	adds	r3, r1, r3
    2e3e:	2100      	movs	r1, #0
    2e40:	0d0a      	lsrs	r2, r1, #20
    2e42:	0028      	movs	r0, r5
    2e44:	0512      	lsls	r2, r2, #20
    2e46:	4d1c      	ldr	r5, [pc, #112]	; (2eb8 <__aeabi_f2d+0x98>)
    2e48:	4332      	orrs	r2, r6
    2e4a:	055b      	lsls	r3, r3, #21
    2e4c:	402a      	ands	r2, r5
    2e4e:	085b      	lsrs	r3, r3, #1
    2e50:	4313      	orrs	r3, r2
    2e52:	005b      	lsls	r3, r3, #1
    2e54:	07e4      	lsls	r4, r4, #31
    2e56:	085b      	lsrs	r3, r3, #1
    2e58:	4323      	orrs	r3, r4
    2e5a:	0019      	movs	r1, r3
    2e5c:	bd70      	pop	{r4, r5, r6, pc}
    2e5e:	2900      	cmp	r1, #0
    2e60:	d114      	bne.n	2e8c <__aeabi_f2d+0x6c>
    2e62:	2d00      	cmp	r5, #0
    2e64:	d01e      	beq.n	2ea4 <__aeabi_f2d+0x84>
    2e66:	0028      	movs	r0, r5
    2e68:	f000 f8f4 	bl	3054 <__clzsi2>
    2e6c:	280a      	cmp	r0, #10
    2e6e:	dc1c      	bgt.n	2eaa <__aeabi_f2d+0x8a>
    2e70:	230b      	movs	r3, #11
    2e72:	002a      	movs	r2, r5
    2e74:	1a1b      	subs	r3, r3, r0
    2e76:	40da      	lsrs	r2, r3
    2e78:	0003      	movs	r3, r0
    2e7a:	3315      	adds	r3, #21
    2e7c:	409d      	lsls	r5, r3
    2e7e:	4b0f      	ldr	r3, [pc, #60]	; (2ebc <__aeabi_f2d+0x9c>)
    2e80:	0312      	lsls	r2, r2, #12
    2e82:	1a1b      	subs	r3, r3, r0
    2e84:	055b      	lsls	r3, r3, #21
    2e86:	0b16      	lsrs	r6, r2, #12
    2e88:	0d5b      	lsrs	r3, r3, #21
    2e8a:	e7d8      	b.n	2e3e <__aeabi_f2d+0x1e>
    2e8c:	2d00      	cmp	r5, #0
    2e8e:	d006      	beq.n	2e9e <__aeabi_f2d+0x7e>
    2e90:	0b32      	lsrs	r2, r6, #12
    2e92:	2680      	movs	r6, #128	; 0x80
    2e94:	0336      	lsls	r6, r6, #12
    2e96:	076d      	lsls	r5, r5, #29
    2e98:	4316      	orrs	r6, r2
    2e9a:	4b09      	ldr	r3, [pc, #36]	; (2ec0 <__aeabi_f2d+0xa0>)
    2e9c:	e7cf      	b.n	2e3e <__aeabi_f2d+0x1e>
    2e9e:	4b08      	ldr	r3, [pc, #32]	; (2ec0 <__aeabi_f2d+0xa0>)
    2ea0:	2600      	movs	r6, #0
    2ea2:	e7cc      	b.n	2e3e <__aeabi_f2d+0x1e>
    2ea4:	2300      	movs	r3, #0
    2ea6:	2600      	movs	r6, #0
    2ea8:	e7c9      	b.n	2e3e <__aeabi_f2d+0x1e>
    2eaa:	0003      	movs	r3, r0
    2eac:	002a      	movs	r2, r5
    2eae:	3b0b      	subs	r3, #11
    2eb0:	409a      	lsls	r2, r3
    2eb2:	2500      	movs	r5, #0
    2eb4:	e7e3      	b.n	2e7e <__aeabi_f2d+0x5e>
    2eb6:	46c0      	nop			; (mov r8, r8)
    2eb8:	800fffff 	.word	0x800fffff
    2ebc:	00000389 	.word	0x00000389
    2ec0:	000007ff 	.word	0x000007ff

00002ec4 <__aeabi_d2f>:
    2ec4:	b5f0      	push	{r4, r5, r6, r7, lr}
    2ec6:	004c      	lsls	r4, r1, #1
    2ec8:	0d64      	lsrs	r4, r4, #21
    2eca:	030b      	lsls	r3, r1, #12
    2ecc:	1c62      	adds	r2, r4, #1
    2ece:	0f45      	lsrs	r5, r0, #29
    2ed0:	0a5b      	lsrs	r3, r3, #9
    2ed2:	0552      	lsls	r2, r2, #21
    2ed4:	432b      	orrs	r3, r5
    2ed6:	0fc9      	lsrs	r1, r1, #31
    2ed8:	00c5      	lsls	r5, r0, #3
    2eda:	0d52      	lsrs	r2, r2, #21
    2edc:	2a01      	cmp	r2, #1
    2ede:	dd28      	ble.n	2f32 <__aeabi_d2f+0x6e>
    2ee0:	4a3a      	ldr	r2, [pc, #232]	; (2fcc <__aeabi_d2f+0x108>)
    2ee2:	18a6      	adds	r6, r4, r2
    2ee4:	2efe      	cmp	r6, #254	; 0xfe
    2ee6:	dc1b      	bgt.n	2f20 <__aeabi_d2f+0x5c>
    2ee8:	2e00      	cmp	r6, #0
    2eea:	dd3e      	ble.n	2f6a <__aeabi_d2f+0xa6>
    2eec:	0180      	lsls	r0, r0, #6
    2eee:	0002      	movs	r2, r0
    2ef0:	1e50      	subs	r0, r2, #1
    2ef2:	4182      	sbcs	r2, r0
    2ef4:	0f6d      	lsrs	r5, r5, #29
    2ef6:	432a      	orrs	r2, r5
    2ef8:	00db      	lsls	r3, r3, #3
    2efa:	4313      	orrs	r3, r2
    2efc:	075a      	lsls	r2, r3, #29
    2efe:	d004      	beq.n	2f0a <__aeabi_d2f+0x46>
    2f00:	220f      	movs	r2, #15
    2f02:	401a      	ands	r2, r3
    2f04:	2a04      	cmp	r2, #4
    2f06:	d000      	beq.n	2f0a <__aeabi_d2f+0x46>
    2f08:	3304      	adds	r3, #4
    2f0a:	2280      	movs	r2, #128	; 0x80
    2f0c:	04d2      	lsls	r2, r2, #19
    2f0e:	401a      	ands	r2, r3
    2f10:	d05a      	beq.n	2fc8 <__aeabi_d2f+0x104>
    2f12:	3601      	adds	r6, #1
    2f14:	2eff      	cmp	r6, #255	; 0xff
    2f16:	d003      	beq.n	2f20 <__aeabi_d2f+0x5c>
    2f18:	019b      	lsls	r3, r3, #6
    2f1a:	0a5b      	lsrs	r3, r3, #9
    2f1c:	b2f4      	uxtb	r4, r6
    2f1e:	e001      	b.n	2f24 <__aeabi_d2f+0x60>
    2f20:	24ff      	movs	r4, #255	; 0xff
    2f22:	2300      	movs	r3, #0
    2f24:	0258      	lsls	r0, r3, #9
    2f26:	05e4      	lsls	r4, r4, #23
    2f28:	0a40      	lsrs	r0, r0, #9
    2f2a:	07c9      	lsls	r1, r1, #31
    2f2c:	4320      	orrs	r0, r4
    2f2e:	4308      	orrs	r0, r1
    2f30:	bdf0      	pop	{r4, r5, r6, r7, pc}
    2f32:	2c00      	cmp	r4, #0
    2f34:	d007      	beq.n	2f46 <__aeabi_d2f+0x82>
    2f36:	431d      	orrs	r5, r3
    2f38:	d0f2      	beq.n	2f20 <__aeabi_d2f+0x5c>
    2f3a:	2080      	movs	r0, #128	; 0x80
    2f3c:	00db      	lsls	r3, r3, #3
    2f3e:	0480      	lsls	r0, r0, #18
    2f40:	4303      	orrs	r3, r0
    2f42:	26ff      	movs	r6, #255	; 0xff
    2f44:	e7da      	b.n	2efc <__aeabi_d2f+0x38>
    2f46:	432b      	orrs	r3, r5
    2f48:	d003      	beq.n	2f52 <__aeabi_d2f+0x8e>
    2f4a:	2305      	movs	r3, #5
    2f4c:	08db      	lsrs	r3, r3, #3
    2f4e:	2cff      	cmp	r4, #255	; 0xff
    2f50:	d003      	beq.n	2f5a <__aeabi_d2f+0x96>
    2f52:	025b      	lsls	r3, r3, #9
    2f54:	0a5b      	lsrs	r3, r3, #9
    2f56:	b2e4      	uxtb	r4, r4
    2f58:	e7e4      	b.n	2f24 <__aeabi_d2f+0x60>
    2f5a:	2b00      	cmp	r3, #0
    2f5c:	d032      	beq.n	2fc4 <__aeabi_d2f+0x100>
    2f5e:	2080      	movs	r0, #128	; 0x80
    2f60:	03c0      	lsls	r0, r0, #15
    2f62:	4303      	orrs	r3, r0
    2f64:	025b      	lsls	r3, r3, #9
    2f66:	0a5b      	lsrs	r3, r3, #9
    2f68:	e7dc      	b.n	2f24 <__aeabi_d2f+0x60>
    2f6a:	0032      	movs	r2, r6
    2f6c:	3217      	adds	r2, #23
    2f6e:	db14      	blt.n	2f9a <__aeabi_d2f+0xd6>
    2f70:	2280      	movs	r2, #128	; 0x80
    2f72:	271e      	movs	r7, #30
    2f74:	0412      	lsls	r2, r2, #16
    2f76:	4313      	orrs	r3, r2
    2f78:	1bbf      	subs	r7, r7, r6
    2f7a:	2f1f      	cmp	r7, #31
    2f7c:	dc0f      	bgt.n	2f9e <__aeabi_d2f+0xda>
    2f7e:	4a14      	ldr	r2, [pc, #80]	; (2fd0 <__aeabi_d2f+0x10c>)
    2f80:	4694      	mov	ip, r2
    2f82:	4464      	add	r4, ip
    2f84:	002a      	movs	r2, r5
    2f86:	40a5      	lsls	r5, r4
    2f88:	002e      	movs	r6, r5
    2f8a:	40a3      	lsls	r3, r4
    2f8c:	1e75      	subs	r5, r6, #1
    2f8e:	41ae      	sbcs	r6, r5
    2f90:	40fa      	lsrs	r2, r7
    2f92:	4333      	orrs	r3, r6
    2f94:	4313      	orrs	r3, r2
    2f96:	2600      	movs	r6, #0
    2f98:	e7b0      	b.n	2efc <__aeabi_d2f+0x38>
    2f9a:	2400      	movs	r4, #0
    2f9c:	e7d5      	b.n	2f4a <__aeabi_d2f+0x86>
    2f9e:	2202      	movs	r2, #2
    2fa0:	4252      	negs	r2, r2
    2fa2:	1b96      	subs	r6, r2, r6
    2fa4:	001a      	movs	r2, r3
    2fa6:	40f2      	lsrs	r2, r6
    2fa8:	2f20      	cmp	r7, #32
    2faa:	d009      	beq.n	2fc0 <__aeabi_d2f+0xfc>
    2fac:	4809      	ldr	r0, [pc, #36]	; (2fd4 <__aeabi_d2f+0x110>)
    2fae:	4684      	mov	ip, r0
    2fb0:	4464      	add	r4, ip
    2fb2:	40a3      	lsls	r3, r4
    2fb4:	432b      	orrs	r3, r5
    2fb6:	1e5d      	subs	r5, r3, #1
    2fb8:	41ab      	sbcs	r3, r5
    2fba:	2600      	movs	r6, #0
    2fbc:	4313      	orrs	r3, r2
    2fbe:	e79d      	b.n	2efc <__aeabi_d2f+0x38>
    2fc0:	2300      	movs	r3, #0
    2fc2:	e7f7      	b.n	2fb4 <__aeabi_d2f+0xf0>
    2fc4:	2300      	movs	r3, #0
    2fc6:	e7ad      	b.n	2f24 <__aeabi_d2f+0x60>
    2fc8:	0034      	movs	r4, r6
    2fca:	e7bf      	b.n	2f4c <__aeabi_d2f+0x88>
    2fcc:	fffffc80 	.word	0xfffffc80
    2fd0:	fffffc82 	.word	0xfffffc82
    2fd4:	fffffca2 	.word	0xfffffca2

00002fd8 <__aeabi_cdrcmple>:
    2fd8:	4684      	mov	ip, r0
    2fda:	1c10      	adds	r0, r2, #0
    2fdc:	4662      	mov	r2, ip
    2fde:	468c      	mov	ip, r1
    2fe0:	1c19      	adds	r1, r3, #0
    2fe2:	4663      	mov	r3, ip
    2fe4:	e000      	b.n	2fe8 <__aeabi_cdcmpeq>
    2fe6:	46c0      	nop			; (mov r8, r8)

00002fe8 <__aeabi_cdcmpeq>:
    2fe8:	b51f      	push	{r0, r1, r2, r3, r4, lr}
    2fea:	f000 f8fb 	bl	31e4 <__ledf2>
    2fee:	2800      	cmp	r0, #0
    2ff0:	d401      	bmi.n	2ff6 <__aeabi_cdcmpeq+0xe>
    2ff2:	2100      	movs	r1, #0
    2ff4:	42c8      	cmn	r0, r1
    2ff6:	bd1f      	pop	{r0, r1, r2, r3, r4, pc}

00002ff8 <__aeabi_dcmpeq>:
    2ff8:	b510      	push	{r4, lr}
    2ffa:	f000 f855 	bl	30a8 <__eqdf2>
    2ffe:	4240      	negs	r0, r0
    3000:	3001      	adds	r0, #1
    3002:	bd10      	pop	{r4, pc}

00003004 <__aeabi_dcmplt>:
    3004:	b510      	push	{r4, lr}
    3006:	f000 f8ed 	bl	31e4 <__ledf2>
    300a:	2800      	cmp	r0, #0
    300c:	db01      	blt.n	3012 <__aeabi_dcmplt+0xe>
    300e:	2000      	movs	r0, #0
    3010:	bd10      	pop	{r4, pc}
    3012:	2001      	movs	r0, #1
    3014:	bd10      	pop	{r4, pc}
    3016:	46c0      	nop			; (mov r8, r8)

00003018 <__aeabi_dcmple>:
    3018:	b510      	push	{r4, lr}
    301a:	f000 f8e3 	bl	31e4 <__ledf2>
    301e:	2800      	cmp	r0, #0
    3020:	dd01      	ble.n	3026 <__aeabi_dcmple+0xe>
    3022:	2000      	movs	r0, #0
    3024:	bd10      	pop	{r4, pc}
    3026:	2001      	movs	r0, #1
    3028:	bd10      	pop	{r4, pc}
    302a:	46c0      	nop			; (mov r8, r8)

0000302c <__aeabi_dcmpgt>:
    302c:	b510      	push	{r4, lr}
    302e:	f000 f875 	bl	311c <__gedf2>
    3032:	2800      	cmp	r0, #0
    3034:	dc01      	bgt.n	303a <__aeabi_dcmpgt+0xe>
    3036:	2000      	movs	r0, #0
    3038:	bd10      	pop	{r4, pc}
    303a:	2001      	movs	r0, #1
    303c:	bd10      	pop	{r4, pc}
    303e:	46c0      	nop			; (mov r8, r8)

00003040 <__aeabi_dcmpge>:
    3040:	b510      	push	{r4, lr}
    3042:	f000 f86b 	bl	311c <__gedf2>
    3046:	2800      	cmp	r0, #0
    3048:	da01      	bge.n	304e <__aeabi_dcmpge+0xe>
    304a:	2000      	movs	r0, #0
    304c:	bd10      	pop	{r4, pc}
    304e:	2001      	movs	r0, #1
    3050:	bd10      	pop	{r4, pc}
    3052:	46c0      	nop			; (mov r8, r8)

00003054 <__clzsi2>:
    3054:	211c      	movs	r1, #28
    3056:	2301      	movs	r3, #1
    3058:	041b      	lsls	r3, r3, #16
    305a:	4298      	cmp	r0, r3
    305c:	d301      	bcc.n	3062 <__clzsi2+0xe>
    305e:	0c00      	lsrs	r0, r0, #16
    3060:	3910      	subs	r1, #16
    3062:	0a1b      	lsrs	r3, r3, #8
    3064:	4298      	cmp	r0, r3
    3066:	d301      	bcc.n	306c <__clzsi2+0x18>
    3068:	0a00      	lsrs	r0, r0, #8
    306a:	3908      	subs	r1, #8
    306c:	091b      	lsrs	r3, r3, #4
    306e:	4298      	cmp	r0, r3
    3070:	d301      	bcc.n	3076 <__clzsi2+0x22>
    3072:	0900      	lsrs	r0, r0, #4
    3074:	3904      	subs	r1, #4
    3076:	a202      	add	r2, pc, #8	; (adr r2, 3080 <__clzsi2+0x2c>)
    3078:	5c10      	ldrb	r0, [r2, r0]
    307a:	1840      	adds	r0, r0, r1
    307c:	4770      	bx	lr
    307e:	46c0      	nop			; (mov r8, r8)
    3080:	02020304 	.word	0x02020304
    3084:	01010101 	.word	0x01010101
	...

00003090 <__clzdi2>:
    3090:	b510      	push	{r4, lr}
    3092:	2900      	cmp	r1, #0
    3094:	d103      	bne.n	309e <__clzdi2+0xe>
    3096:	f7ff ffdd 	bl	3054 <__clzsi2>
    309a:	3020      	adds	r0, #32
    309c:	e002      	b.n	30a4 <__clzdi2+0x14>
    309e:	1c08      	adds	r0, r1, #0
    30a0:	f7ff ffd8 	bl	3054 <__clzsi2>
    30a4:	bd10      	pop	{r4, pc}
    30a6:	46c0      	nop			; (mov r8, r8)

000030a8 <__eqdf2>:
    30a8:	b5f0      	push	{r4, r5, r6, r7, lr}
    30aa:	464f      	mov	r7, r9
    30ac:	4646      	mov	r6, r8
    30ae:	46d6      	mov	lr, sl
    30b0:	005c      	lsls	r4, r3, #1
    30b2:	b5c0      	push	{r6, r7, lr}
    30b4:	031f      	lsls	r7, r3, #12
    30b6:	0fdb      	lsrs	r3, r3, #31
    30b8:	469a      	mov	sl, r3
    30ba:	4b17      	ldr	r3, [pc, #92]	; (3118 <__eqdf2+0x70>)
    30bc:	030e      	lsls	r6, r1, #12
    30be:	004d      	lsls	r5, r1, #1
    30c0:	4684      	mov	ip, r0
    30c2:	4680      	mov	r8, r0
    30c4:	0b36      	lsrs	r6, r6, #12
    30c6:	0d6d      	lsrs	r5, r5, #21
    30c8:	0fc9      	lsrs	r1, r1, #31
    30ca:	4691      	mov	r9, r2
    30cc:	0b3f      	lsrs	r7, r7, #12
    30ce:	0d64      	lsrs	r4, r4, #21
    30d0:	2001      	movs	r0, #1
    30d2:	429d      	cmp	r5, r3
    30d4:	d008      	beq.n	30e8 <__eqdf2+0x40>
    30d6:	429c      	cmp	r4, r3
    30d8:	d001      	beq.n	30de <__eqdf2+0x36>
    30da:	42a5      	cmp	r5, r4
    30dc:	d00b      	beq.n	30f6 <__eqdf2+0x4e>
    30de:	bc1c      	pop	{r2, r3, r4}
    30e0:	4690      	mov	r8, r2
    30e2:	4699      	mov	r9, r3
    30e4:	46a2      	mov	sl, r4
    30e6:	bdf0      	pop	{r4, r5, r6, r7, pc}
    30e8:	4663      	mov	r3, ip
    30ea:	4333      	orrs	r3, r6
    30ec:	d1f7      	bne.n	30de <__eqdf2+0x36>
    30ee:	42ac      	cmp	r4, r5
    30f0:	d1f5      	bne.n	30de <__eqdf2+0x36>
    30f2:	433a      	orrs	r2, r7
    30f4:	d1f3      	bne.n	30de <__eqdf2+0x36>
    30f6:	2001      	movs	r0, #1
    30f8:	42be      	cmp	r6, r7
    30fa:	d1f0      	bne.n	30de <__eqdf2+0x36>
    30fc:	45c8      	cmp	r8, r9
    30fe:	d1ee      	bne.n	30de <__eqdf2+0x36>
    3100:	4551      	cmp	r1, sl
    3102:	d007      	beq.n	3114 <__eqdf2+0x6c>
    3104:	2d00      	cmp	r5, #0
    3106:	d1ea      	bne.n	30de <__eqdf2+0x36>
    3108:	4663      	mov	r3, ip
    310a:	431e      	orrs	r6, r3
    310c:	0030      	movs	r0, r6
    310e:	1e46      	subs	r6, r0, #1
    3110:	41b0      	sbcs	r0, r6
    3112:	e7e4      	b.n	30de <__eqdf2+0x36>
    3114:	2000      	movs	r0, #0
    3116:	e7e2      	b.n	30de <__eqdf2+0x36>
    3118:	000007ff 	.word	0x000007ff

0000311c <__gedf2>:
    311c:	b5f0      	push	{r4, r5, r6, r7, lr}
    311e:	4645      	mov	r5, r8
    3120:	46de      	mov	lr, fp
    3122:	4657      	mov	r7, sl
    3124:	464e      	mov	r6, r9
    3126:	b5e0      	push	{r5, r6, r7, lr}
    3128:	031f      	lsls	r7, r3, #12
    312a:	0b3d      	lsrs	r5, r7, #12
    312c:	4f2c      	ldr	r7, [pc, #176]	; (31e0 <__gedf2+0xc4>)
    312e:	030e      	lsls	r6, r1, #12
    3130:	004c      	lsls	r4, r1, #1
    3132:	46ab      	mov	fp, r5
    3134:	005d      	lsls	r5, r3, #1
    3136:	4684      	mov	ip, r0
    3138:	0b36      	lsrs	r6, r6, #12
    313a:	0d64      	lsrs	r4, r4, #21
    313c:	0fc9      	lsrs	r1, r1, #31
    313e:	4690      	mov	r8, r2
    3140:	0d6d      	lsrs	r5, r5, #21
    3142:	0fdb      	lsrs	r3, r3, #31
    3144:	42bc      	cmp	r4, r7
    3146:	d02a      	beq.n	319e <__gedf2+0x82>
    3148:	4f25      	ldr	r7, [pc, #148]	; (31e0 <__gedf2+0xc4>)
    314a:	42bd      	cmp	r5, r7
    314c:	d02d      	beq.n	31aa <__gedf2+0x8e>
    314e:	2c00      	cmp	r4, #0
    3150:	d10f      	bne.n	3172 <__gedf2+0x56>
    3152:	4330      	orrs	r0, r6
    3154:	0007      	movs	r7, r0
    3156:	4681      	mov	r9, r0
    3158:	4278      	negs	r0, r7
    315a:	4178      	adcs	r0, r7
    315c:	b2c0      	uxtb	r0, r0
    315e:	2d00      	cmp	r5, #0
    3160:	d117      	bne.n	3192 <__gedf2+0x76>
    3162:	465f      	mov	r7, fp
    3164:	433a      	orrs	r2, r7
    3166:	d114      	bne.n	3192 <__gedf2+0x76>
    3168:	464b      	mov	r3, r9
    316a:	2000      	movs	r0, #0
    316c:	2b00      	cmp	r3, #0
    316e:	d00a      	beq.n	3186 <__gedf2+0x6a>
    3170:	e006      	b.n	3180 <__gedf2+0x64>
    3172:	2d00      	cmp	r5, #0
    3174:	d102      	bne.n	317c <__gedf2+0x60>
    3176:	4658      	mov	r0, fp
    3178:	4302      	orrs	r2, r0
    317a:	d001      	beq.n	3180 <__gedf2+0x64>
    317c:	4299      	cmp	r1, r3
    317e:	d018      	beq.n	31b2 <__gedf2+0x96>
    3180:	4248      	negs	r0, r1
    3182:	2101      	movs	r1, #1
    3184:	4308      	orrs	r0, r1
    3186:	bc3c      	pop	{r2, r3, r4, r5}
    3188:	4690      	mov	r8, r2
    318a:	4699      	mov	r9, r3
    318c:	46a2      	mov	sl, r4
    318e:	46ab      	mov	fp, r5
    3190:	bdf0      	pop	{r4, r5, r6, r7, pc}
    3192:	2800      	cmp	r0, #0
    3194:	d0f2      	beq.n	317c <__gedf2+0x60>
    3196:	2001      	movs	r0, #1
    3198:	3b01      	subs	r3, #1
    319a:	4318      	orrs	r0, r3
    319c:	e7f3      	b.n	3186 <__gedf2+0x6a>
    319e:	0037      	movs	r7, r6
    31a0:	4307      	orrs	r7, r0
    31a2:	d0d1      	beq.n	3148 <__gedf2+0x2c>
    31a4:	2002      	movs	r0, #2
    31a6:	4240      	negs	r0, r0
    31a8:	e7ed      	b.n	3186 <__gedf2+0x6a>
    31aa:	465f      	mov	r7, fp
    31ac:	4317      	orrs	r7, r2
    31ae:	d0ce      	beq.n	314e <__gedf2+0x32>
    31b0:	e7f8      	b.n	31a4 <__gedf2+0x88>
    31b2:	42ac      	cmp	r4, r5
    31b4:	dce4      	bgt.n	3180 <__gedf2+0x64>
    31b6:	da03      	bge.n	31c0 <__gedf2+0xa4>
    31b8:	1e48      	subs	r0, r1, #1
    31ba:	2101      	movs	r1, #1
    31bc:	4308      	orrs	r0, r1
    31be:	e7e2      	b.n	3186 <__gedf2+0x6a>
    31c0:	455e      	cmp	r6, fp
    31c2:	d8dd      	bhi.n	3180 <__gedf2+0x64>
    31c4:	d006      	beq.n	31d4 <__gedf2+0xb8>
    31c6:	2000      	movs	r0, #0
    31c8:	455e      	cmp	r6, fp
    31ca:	d2dc      	bcs.n	3186 <__gedf2+0x6a>
    31cc:	2301      	movs	r3, #1
    31ce:	1e48      	subs	r0, r1, #1
    31d0:	4318      	orrs	r0, r3
    31d2:	e7d8      	b.n	3186 <__gedf2+0x6a>
    31d4:	45c4      	cmp	ip, r8
    31d6:	d8d3      	bhi.n	3180 <__gedf2+0x64>
    31d8:	2000      	movs	r0, #0
    31da:	45c4      	cmp	ip, r8
    31dc:	d3f6      	bcc.n	31cc <__gedf2+0xb0>
    31de:	e7d2      	b.n	3186 <__gedf2+0x6a>
    31e0:	000007ff 	.word	0x000007ff

000031e4 <__ledf2>:
    31e4:	b5f0      	push	{r4, r5, r6, r7, lr}
    31e6:	464e      	mov	r6, r9
    31e8:	4645      	mov	r5, r8
    31ea:	46de      	mov	lr, fp
    31ec:	4657      	mov	r7, sl
    31ee:	005c      	lsls	r4, r3, #1
    31f0:	b5e0      	push	{r5, r6, r7, lr}
    31f2:	031f      	lsls	r7, r3, #12
    31f4:	0fdb      	lsrs	r3, r3, #31
    31f6:	4699      	mov	r9, r3
    31f8:	4b2a      	ldr	r3, [pc, #168]	; (32a4 <__ledf2+0xc0>)
    31fa:	030e      	lsls	r6, r1, #12
    31fc:	004d      	lsls	r5, r1, #1
    31fe:	0fc9      	lsrs	r1, r1, #31
    3200:	4684      	mov	ip, r0
    3202:	0b36      	lsrs	r6, r6, #12
    3204:	0d6d      	lsrs	r5, r5, #21
    3206:	468b      	mov	fp, r1
    3208:	4690      	mov	r8, r2
    320a:	0b3f      	lsrs	r7, r7, #12
    320c:	0d64      	lsrs	r4, r4, #21
    320e:	429d      	cmp	r5, r3
    3210:	d020      	beq.n	3254 <__ledf2+0x70>
    3212:	4b24      	ldr	r3, [pc, #144]	; (32a4 <__ledf2+0xc0>)
    3214:	429c      	cmp	r4, r3
    3216:	d022      	beq.n	325e <__ledf2+0x7a>
    3218:	2d00      	cmp	r5, #0
    321a:	d112      	bne.n	3242 <__ledf2+0x5e>
    321c:	4330      	orrs	r0, r6
    321e:	4243      	negs	r3, r0
    3220:	4143      	adcs	r3, r0
    3222:	b2db      	uxtb	r3, r3
    3224:	2c00      	cmp	r4, #0
    3226:	d01f      	beq.n	3268 <__ledf2+0x84>
    3228:	2b00      	cmp	r3, #0
    322a:	d00c      	beq.n	3246 <__ledf2+0x62>
    322c:	464b      	mov	r3, r9
    322e:	2001      	movs	r0, #1
    3230:	3b01      	subs	r3, #1
    3232:	4303      	orrs	r3, r0
    3234:	0018      	movs	r0, r3
    3236:	bc3c      	pop	{r2, r3, r4, r5}
    3238:	4690      	mov	r8, r2
    323a:	4699      	mov	r9, r3
    323c:	46a2      	mov	sl, r4
    323e:	46ab      	mov	fp, r5
    3240:	bdf0      	pop	{r4, r5, r6, r7, pc}
    3242:	2c00      	cmp	r4, #0
    3244:	d016      	beq.n	3274 <__ledf2+0x90>
    3246:	45cb      	cmp	fp, r9
    3248:	d017      	beq.n	327a <__ledf2+0x96>
    324a:	465b      	mov	r3, fp
    324c:	4259      	negs	r1, r3
    324e:	2301      	movs	r3, #1
    3250:	430b      	orrs	r3, r1
    3252:	e7ef      	b.n	3234 <__ledf2+0x50>
    3254:	0031      	movs	r1, r6
    3256:	2302      	movs	r3, #2
    3258:	4301      	orrs	r1, r0
    325a:	d1eb      	bne.n	3234 <__ledf2+0x50>
    325c:	e7d9      	b.n	3212 <__ledf2+0x2e>
    325e:	0039      	movs	r1, r7
    3260:	2302      	movs	r3, #2
    3262:	4311      	orrs	r1, r2
    3264:	d1e6      	bne.n	3234 <__ledf2+0x50>
    3266:	e7d7      	b.n	3218 <__ledf2+0x34>
    3268:	433a      	orrs	r2, r7
    326a:	d1dd      	bne.n	3228 <__ledf2+0x44>
    326c:	2300      	movs	r3, #0
    326e:	2800      	cmp	r0, #0
    3270:	d0e0      	beq.n	3234 <__ledf2+0x50>
    3272:	e7ea      	b.n	324a <__ledf2+0x66>
    3274:	433a      	orrs	r2, r7
    3276:	d1e6      	bne.n	3246 <__ledf2+0x62>
    3278:	e7e7      	b.n	324a <__ledf2+0x66>
    327a:	42a5      	cmp	r5, r4
    327c:	dce5      	bgt.n	324a <__ledf2+0x66>
    327e:	db05      	blt.n	328c <__ledf2+0xa8>
    3280:	42be      	cmp	r6, r7
    3282:	d8e2      	bhi.n	324a <__ledf2+0x66>
    3284:	d007      	beq.n	3296 <__ledf2+0xb2>
    3286:	2300      	movs	r3, #0
    3288:	42be      	cmp	r6, r7
    328a:	d2d3      	bcs.n	3234 <__ledf2+0x50>
    328c:	4659      	mov	r1, fp
    328e:	2301      	movs	r3, #1
    3290:	3901      	subs	r1, #1
    3292:	430b      	orrs	r3, r1
    3294:	e7ce      	b.n	3234 <__ledf2+0x50>
    3296:	45c4      	cmp	ip, r8
    3298:	d8d7      	bhi.n	324a <__ledf2+0x66>
    329a:	2300      	movs	r3, #0
    329c:	45c4      	cmp	ip, r8
    329e:	d3f5      	bcc.n	328c <__ledf2+0xa8>
    32a0:	e7c8      	b.n	3234 <__ledf2+0x50>
    32a2:	46c0      	nop			; (mov r8, r8)
    32a4:	000007ff 	.word	0x000007ff

000032a8 <__libc_init_array>:
    32a8:	b570      	push	{r4, r5, r6, lr}
    32aa:	4e0d      	ldr	r6, [pc, #52]	; (32e0 <__libc_init_array+0x38>)
    32ac:	4d0d      	ldr	r5, [pc, #52]	; (32e4 <__libc_init_array+0x3c>)
    32ae:	2400      	movs	r4, #0
    32b0:	1bad      	subs	r5, r5, r6
    32b2:	10ad      	asrs	r5, r5, #2
    32b4:	d005      	beq.n	32c2 <__libc_init_array+0x1a>
    32b6:	00a3      	lsls	r3, r4, #2
    32b8:	58f3      	ldr	r3, [r6, r3]
    32ba:	3401      	adds	r4, #1
    32bc:	4798      	blx	r3
    32be:	42a5      	cmp	r5, r4
    32c0:	d1f9      	bne.n	32b6 <__libc_init_array+0xe>
    32c2:	f005 fd75 	bl	8db0 <_init>
    32c6:	4e08      	ldr	r6, [pc, #32]	; (32e8 <__libc_init_array+0x40>)
    32c8:	4d08      	ldr	r5, [pc, #32]	; (32ec <__libc_init_array+0x44>)
    32ca:	2400      	movs	r4, #0
    32cc:	1bad      	subs	r5, r5, r6
    32ce:	10ad      	asrs	r5, r5, #2
    32d0:	d005      	beq.n	32de <__libc_init_array+0x36>
    32d2:	00a3      	lsls	r3, r4, #2
    32d4:	58f3      	ldr	r3, [r6, r3]
    32d6:	3401      	adds	r4, #1
    32d8:	4798      	blx	r3
    32da:	42a5      	cmp	r5, r4
    32dc:	d1f9      	bne.n	32d2 <__libc_init_array+0x2a>
    32de:	bd70      	pop	{r4, r5, r6, pc}
    32e0:	00008dbc 	.word	0x00008dbc
    32e4:	00008dbc 	.word	0x00008dbc
    32e8:	00008dbc 	.word	0x00008dbc
    32ec:	00008dc4 	.word	0x00008dc4

000032f0 <memset>:
    32f0:	b5f0      	push	{r4, r5, r6, r7, lr}
    32f2:	0783      	lsls	r3, r0, #30
    32f4:	d043      	beq.n	337e <memset+0x8e>
    32f6:	1e54      	subs	r4, r2, #1
    32f8:	2a00      	cmp	r2, #0
    32fa:	d03f      	beq.n	337c <memset+0x8c>
    32fc:	b2ce      	uxtb	r6, r1
    32fe:	0002      	movs	r2, r0
    3300:	2503      	movs	r5, #3
    3302:	e002      	b.n	330a <memset+0x1a>
    3304:	001a      	movs	r2, r3
    3306:	3c01      	subs	r4, #1
    3308:	d338      	bcc.n	337c <memset+0x8c>
    330a:	1c53      	adds	r3, r2, #1
    330c:	7016      	strb	r6, [r2, #0]
    330e:	422b      	tst	r3, r5
    3310:	d1f8      	bne.n	3304 <memset+0x14>
    3312:	2c03      	cmp	r4, #3
    3314:	d92a      	bls.n	336c <memset+0x7c>
    3316:	22ff      	movs	r2, #255	; 0xff
    3318:	400a      	ands	r2, r1
    331a:	0215      	lsls	r5, r2, #8
    331c:	4315      	orrs	r5, r2
    331e:	042a      	lsls	r2, r5, #16
    3320:	4315      	orrs	r5, r2
    3322:	2c0f      	cmp	r4, #15
    3324:	d914      	bls.n	3350 <memset+0x60>
    3326:	0027      	movs	r7, r4
    3328:	001a      	movs	r2, r3
    332a:	3f10      	subs	r7, #16
    332c:	093e      	lsrs	r6, r7, #4
    332e:	3601      	adds	r6, #1
    3330:	0136      	lsls	r6, r6, #4
    3332:	199e      	adds	r6, r3, r6
    3334:	6015      	str	r5, [r2, #0]
    3336:	6055      	str	r5, [r2, #4]
    3338:	6095      	str	r5, [r2, #8]
    333a:	60d5      	str	r5, [r2, #12]
    333c:	3210      	adds	r2, #16
    333e:	4296      	cmp	r6, r2
    3340:	d1f8      	bne.n	3334 <memset+0x44>
    3342:	220f      	movs	r2, #15
    3344:	4397      	bics	r7, r2
    3346:	3710      	adds	r7, #16
    3348:	19db      	adds	r3, r3, r7
    334a:	4014      	ands	r4, r2
    334c:	2c03      	cmp	r4, #3
    334e:	d90d      	bls.n	336c <memset+0x7c>
    3350:	001a      	movs	r2, r3
    3352:	1f27      	subs	r7, r4, #4
    3354:	08be      	lsrs	r6, r7, #2
    3356:	3601      	adds	r6, #1
    3358:	00b6      	lsls	r6, r6, #2
    335a:	199e      	adds	r6, r3, r6
    335c:	c220      	stmia	r2!, {r5}
    335e:	42b2      	cmp	r2, r6
    3360:	d1fc      	bne.n	335c <memset+0x6c>
    3362:	2203      	movs	r2, #3
    3364:	4397      	bics	r7, r2
    3366:	3704      	adds	r7, #4
    3368:	19db      	adds	r3, r3, r7
    336a:	4014      	ands	r4, r2
    336c:	2c00      	cmp	r4, #0
    336e:	d005      	beq.n	337c <memset+0x8c>
    3370:	b2c9      	uxtb	r1, r1
    3372:	191c      	adds	r4, r3, r4
    3374:	7019      	strb	r1, [r3, #0]
    3376:	3301      	adds	r3, #1
    3378:	429c      	cmp	r4, r3
    337a:	d1fb      	bne.n	3374 <memset+0x84>
    337c:	bdf0      	pop	{r4, r5, r6, r7, pc}
    337e:	0014      	movs	r4, r2
    3380:	0003      	movs	r3, r0
    3382:	e7c6      	b.n	3312 <memset+0x22>

00003384 <printf>:
    3384:	b40f      	push	{r0, r1, r2, r3}
    3386:	b500      	push	{lr}
    3388:	4906      	ldr	r1, [pc, #24]	; (33a4 <printf+0x20>)
    338a:	b083      	sub	sp, #12
    338c:	ab04      	add	r3, sp, #16
    338e:	6808      	ldr	r0, [r1, #0]
    3390:	cb04      	ldmia	r3!, {r2}
    3392:	6881      	ldr	r1, [r0, #8]
    3394:	9301      	str	r3, [sp, #4]
    3396:	f000 f96d 	bl	3674 <_vfprintf_r>
    339a:	b003      	add	sp, #12
    339c:	bc08      	pop	{r3}
    339e:	b004      	add	sp, #16
    33a0:	4718      	bx	r3
    33a2:	46c0      	nop			; (mov r8, r8)
    33a4:	20000000 	.word	0x20000000

000033a8 <_puts_r>:
    33a8:	b530      	push	{r4, r5, lr}
    33aa:	0004      	movs	r4, r0
    33ac:	b089      	sub	sp, #36	; 0x24
    33ae:	0008      	movs	r0, r1
    33b0:	000d      	movs	r5, r1
    33b2:	f000 f92d 	bl	3610 <strlen>
    33b6:	ab04      	add	r3, sp, #16
    33b8:	4a21      	ldr	r2, [pc, #132]	; (3440 <_puts_r+0x98>)
    33ba:	9301      	str	r3, [sp, #4]
    33bc:	2302      	movs	r3, #2
    33be:	9206      	str	r2, [sp, #24]
    33c0:	2201      	movs	r2, #1
    33c2:	9302      	str	r3, [sp, #8]
    33c4:	6ba3      	ldr	r3, [r4, #56]	; 0x38
    33c6:	9005      	str	r0, [sp, #20]
    33c8:	3001      	adds	r0, #1
    33ca:	9504      	str	r5, [sp, #16]
    33cc:	9207      	str	r2, [sp, #28]
    33ce:	9003      	str	r0, [sp, #12]
    33d0:	68a5      	ldr	r5, [r4, #8]
    33d2:	2b00      	cmp	r3, #0
    33d4:	d02f      	beq.n	3436 <_puts_r+0x8e>
    33d6:	6e6b      	ldr	r3, [r5, #100]	; 0x64
    33d8:	07db      	lsls	r3, r3, #31
    33da:	d424      	bmi.n	3426 <_puts_r+0x7e>
    33dc:	230c      	movs	r3, #12
    33de:	5eea      	ldrsh	r2, [r5, r3]
    33e0:	b291      	uxth	r1, r2
    33e2:	058b      	lsls	r3, r1, #22
    33e4:	d51c      	bpl.n	3420 <_puts_r+0x78>
    33e6:	2380      	movs	r3, #128	; 0x80
    33e8:	019b      	lsls	r3, r3, #6
    33ea:	4219      	tst	r1, r3
    33ec:	d105      	bne.n	33fa <_puts_r+0x52>
    33ee:	4313      	orrs	r3, r2
    33f0:	81ab      	strh	r3, [r5, #12]
    33f2:	6e6a      	ldr	r2, [r5, #100]	; 0x64
    33f4:	4b13      	ldr	r3, [pc, #76]	; (3444 <_puts_r+0x9c>)
    33f6:	4013      	ands	r3, r2
    33f8:	666b      	str	r3, [r5, #100]	; 0x64
    33fa:	0020      	movs	r0, r4
    33fc:	aa01      	add	r2, sp, #4
    33fe:	0029      	movs	r1, r5
    3400:	f003 f85e 	bl	64c0 <__sfvwrite_r>
    3404:	1e44      	subs	r4, r0, #1
    3406:	41a0      	sbcs	r0, r4
    3408:	4244      	negs	r4, r0
    340a:	200a      	movs	r0, #10
    340c:	6e6b      	ldr	r3, [r5, #100]	; 0x64
    340e:	4304      	orrs	r4, r0
    3410:	07db      	lsls	r3, r3, #31
    3412:	d402      	bmi.n	341a <_puts_r+0x72>
    3414:	89ab      	ldrh	r3, [r5, #12]
    3416:	059b      	lsls	r3, r3, #22
    3418:	d509      	bpl.n	342e <_puts_r+0x86>
    341a:	0020      	movs	r0, r4
    341c:	b009      	add	sp, #36	; 0x24
    341e:	bd30      	pop	{r4, r5, pc}
    3420:	6da8      	ldr	r0, [r5, #88]	; 0x58
    3422:	f003 fa07 	bl	6834 <__retarget_lock_acquire_recursive>
    3426:	230c      	movs	r3, #12
    3428:	5eea      	ldrsh	r2, [r5, r3]
    342a:	b291      	uxth	r1, r2
    342c:	e7db      	b.n	33e6 <_puts_r+0x3e>
    342e:	6da8      	ldr	r0, [r5, #88]	; 0x58
    3430:	f003 fa02 	bl	6838 <__retarget_lock_release_recursive>
    3434:	e7f1      	b.n	341a <_puts_r+0x72>
    3436:	0020      	movs	r0, r4
    3438:	f002 feba 	bl	61b0 <__sinit>
    343c:	e7cb      	b.n	33d6 <_puts_r+0x2e>
    343e:	46c0      	nop			; (mov r8, r8)
    3440:	00008940 	.word	0x00008940
    3444:	ffffdfff 	.word	0xffffdfff

00003448 <puts>:
    3448:	b510      	push	{r4, lr}
    344a:	4b03      	ldr	r3, [pc, #12]	; (3458 <puts+0x10>)
    344c:	0001      	movs	r1, r0
    344e:	6818      	ldr	r0, [r3, #0]
    3450:	f7ff ffaa 	bl	33a8 <_puts_r>
    3454:	bd10      	pop	{r4, pc}
    3456:	46c0      	nop			; (mov r8, r8)
    3458:	20000000 	.word	0x20000000

0000345c <setbuf>:
    345c:	424a      	negs	r2, r1
    345e:	414a      	adcs	r2, r1
    3460:	2380      	movs	r3, #128	; 0x80
    3462:	b510      	push	{r4, lr}
    3464:	0052      	lsls	r2, r2, #1
    3466:	00db      	lsls	r3, r3, #3
    3468:	f000 f802 	bl	3470 <setvbuf>
    346c:	bd10      	pop	{r4, pc}
    346e:	46c0      	nop			; (mov r8, r8)

00003470 <setvbuf>:
    3470:	b5f0      	push	{r4, r5, r6, r7, lr}
    3472:	4647      	mov	r7, r8
    3474:	46ce      	mov	lr, r9
    3476:	b580      	push	{r7, lr}
    3478:	001f      	movs	r7, r3
    347a:	4b63      	ldr	r3, [pc, #396]	; (3608 <setvbuf+0x198>)
    347c:	b083      	sub	sp, #12
    347e:	681d      	ldr	r5, [r3, #0]
    3480:	0004      	movs	r4, r0
    3482:	4688      	mov	r8, r1
    3484:	0016      	movs	r6, r2
    3486:	2d00      	cmp	r5, #0
    3488:	d002      	beq.n	3490 <setvbuf+0x20>
    348a:	6bab      	ldr	r3, [r5, #56]	; 0x38
    348c:	2b00      	cmp	r3, #0
    348e:	d066      	beq.n	355e <setvbuf+0xee>
    3490:	2e02      	cmp	r6, #2
    3492:	d005      	beq.n	34a0 <setvbuf+0x30>
    3494:	2e01      	cmp	r6, #1
    3496:	d900      	bls.n	349a <setvbuf+0x2a>
    3498:	e0a1      	b.n	35de <setvbuf+0x16e>
    349a:	2f00      	cmp	r7, #0
    349c:	da00      	bge.n	34a0 <setvbuf+0x30>
    349e:	e09e      	b.n	35de <setvbuf+0x16e>
    34a0:	6e63      	ldr	r3, [r4, #100]	; 0x64
    34a2:	07db      	lsls	r3, r3, #31
    34a4:	d533      	bpl.n	350e <setvbuf+0x9e>
    34a6:	0021      	movs	r1, r4
    34a8:	0028      	movs	r0, r5
    34aa:	f002 fe27 	bl	60fc <_fflush_r>
    34ae:	6b21      	ldr	r1, [r4, #48]	; 0x30
    34b0:	2900      	cmp	r1, #0
    34b2:	d008      	beq.n	34c6 <setvbuf+0x56>
    34b4:	0023      	movs	r3, r4
    34b6:	3340      	adds	r3, #64	; 0x40
    34b8:	4299      	cmp	r1, r3
    34ba:	d002      	beq.n	34c2 <setvbuf+0x52>
    34bc:	0028      	movs	r0, r5
    34be:	f002 ff21 	bl	6304 <_free_r>
    34c2:	2300      	movs	r3, #0
    34c4:	6323      	str	r3, [r4, #48]	; 0x30
    34c6:	2300      	movs	r3, #0
    34c8:	61a3      	str	r3, [r4, #24]
    34ca:	6063      	str	r3, [r4, #4]
    34cc:	220c      	movs	r2, #12
    34ce:	5ea3      	ldrsh	r3, [r4, r2]
    34d0:	061a      	lsls	r2, r3, #24
    34d2:	d43d      	bmi.n	3550 <setvbuf+0xe0>
    34d4:	4a4d      	ldr	r2, [pc, #308]	; (360c <setvbuf+0x19c>)
    34d6:	4013      	ands	r3, r2
    34d8:	81a3      	strh	r3, [r4, #12]
    34da:	2e02      	cmp	r6, #2
    34dc:	d01e      	beq.n	351c <setvbuf+0xac>
    34de:	ab01      	add	r3, sp, #4
    34e0:	466a      	mov	r2, sp
    34e2:	0021      	movs	r1, r4
    34e4:	0028      	movs	r0, r5
    34e6:	f003 f9a9 	bl	683c <__swhatbuf_r>
    34ea:	89a3      	ldrh	r3, [r4, #12]
    34ec:	4318      	orrs	r0, r3
    34ee:	81a0      	strh	r0, [r4, #12]
    34f0:	2f00      	cmp	r7, #0
    34f2:	d138      	bne.n	3566 <setvbuf+0xf6>
    34f4:	9f00      	ldr	r7, [sp, #0]
    34f6:	0038      	movs	r0, r7
    34f8:	f003 fa18 	bl	692c <malloc>
    34fc:	4680      	mov	r8, r0
    34fe:	2800      	cmp	r0, #0
    3500:	d100      	bne.n	3504 <setvbuf+0x94>
    3502:	e06f      	b.n	35e4 <setvbuf+0x174>
    3504:	2280      	movs	r2, #128	; 0x80
    3506:	89a3      	ldrh	r3, [r4, #12]
    3508:	4313      	orrs	r3, r2
    350a:	81a3      	strh	r3, [r4, #12]
    350c:	e02e      	b.n	356c <setvbuf+0xfc>
    350e:	89a3      	ldrh	r3, [r4, #12]
    3510:	059b      	lsls	r3, r3, #22
    3512:	d4c8      	bmi.n	34a6 <setvbuf+0x36>
    3514:	6da0      	ldr	r0, [r4, #88]	; 0x58
    3516:	f003 f98d 	bl	6834 <__retarget_lock_acquire_recursive>
    351a:	e7c4      	b.n	34a6 <setvbuf+0x36>
    351c:	2500      	movs	r5, #0
    351e:	2202      	movs	r2, #2
    3520:	4313      	orrs	r3, r2
    3522:	2200      	movs	r2, #0
    3524:	60a2      	str	r2, [r4, #8]
    3526:	0022      	movs	r2, r4
    3528:	3243      	adds	r2, #67	; 0x43
    352a:	6022      	str	r2, [r4, #0]
    352c:	6122      	str	r2, [r4, #16]
    352e:	2201      	movs	r2, #1
    3530:	6e61      	ldr	r1, [r4, #100]	; 0x64
    3532:	81a3      	strh	r3, [r4, #12]
    3534:	6162      	str	r2, [r4, #20]
    3536:	4211      	tst	r1, r2
    3538:	d104      	bne.n	3544 <setvbuf+0xd4>
    353a:	059b      	lsls	r3, r3, #22
    353c:	d402      	bmi.n	3544 <setvbuf+0xd4>
    353e:	6da0      	ldr	r0, [r4, #88]	; 0x58
    3540:	f003 f97a 	bl	6838 <__retarget_lock_release_recursive>
    3544:	0028      	movs	r0, r5
    3546:	b003      	add	sp, #12
    3548:	bc0c      	pop	{r2, r3}
    354a:	4690      	mov	r8, r2
    354c:	4699      	mov	r9, r3
    354e:	bdf0      	pop	{r4, r5, r6, r7, pc}
    3550:	6921      	ldr	r1, [r4, #16]
    3552:	0028      	movs	r0, r5
    3554:	f002 fed6 	bl	6304 <_free_r>
    3558:	220c      	movs	r2, #12
    355a:	5ea3      	ldrsh	r3, [r4, r2]
    355c:	e7ba      	b.n	34d4 <setvbuf+0x64>
    355e:	0028      	movs	r0, r5
    3560:	f002 fe26 	bl	61b0 <__sinit>
    3564:	e794      	b.n	3490 <setvbuf+0x20>
    3566:	4643      	mov	r3, r8
    3568:	2b00      	cmp	r3, #0
    356a:	d0c4      	beq.n	34f6 <setvbuf+0x86>
    356c:	6bab      	ldr	r3, [r5, #56]	; 0x38
    356e:	2b00      	cmp	r3, #0
    3570:	d027      	beq.n	35c2 <setvbuf+0x152>
    3572:	9b00      	ldr	r3, [sp, #0]
    3574:	429f      	cmp	r7, r3
    3576:	d02a      	beq.n	35ce <setvbuf+0x15e>
    3578:	2380      	movs	r3, #128	; 0x80
    357a:	89a2      	ldrh	r2, [r4, #12]
    357c:	011b      	lsls	r3, r3, #4
    357e:	4313      	orrs	r3, r2
    3580:	b21b      	sxth	r3, r3
    3582:	81a3      	strh	r3, [r4, #12]
    3584:	2e01      	cmp	r6, #1
    3586:	d026      	beq.n	35d6 <setvbuf+0x166>
    3588:	4642      	mov	r2, r8
    358a:	6022      	str	r2, [r4, #0]
    358c:	6122      	str	r2, [r4, #16]
    358e:	2208      	movs	r2, #8
    3590:	b29b      	uxth	r3, r3
    3592:	6167      	str	r7, [r4, #20]
    3594:	401a      	ands	r2, r3
    3596:	d00b      	beq.n	35b0 <setvbuf+0x140>
    3598:	07da      	lsls	r2, r3, #31
    359a:	d510      	bpl.n	35be <setvbuf+0x14e>
    359c:	2200      	movs	r2, #0
    359e:	2501      	movs	r5, #1
    35a0:	60a2      	str	r2, [r4, #8]
    35a2:	6e62      	ldr	r2, [r4, #100]	; 0x64
    35a4:	427f      	negs	r7, r7
    35a6:	61a7      	str	r7, [r4, #24]
    35a8:	4015      	ands	r5, r2
    35aa:	d0c6      	beq.n	353a <setvbuf+0xca>
    35ac:	2500      	movs	r5, #0
    35ae:	e7c9      	b.n	3544 <setvbuf+0xd4>
    35b0:	60a2      	str	r2, [r4, #8]
    35b2:	2501      	movs	r5, #1
    35b4:	6e62      	ldr	r2, [r4, #100]	; 0x64
    35b6:	4015      	ands	r5, r2
    35b8:	d0bf      	beq.n	353a <setvbuf+0xca>
    35ba:	2500      	movs	r5, #0
    35bc:	e7c2      	b.n	3544 <setvbuf+0xd4>
    35be:	60a7      	str	r7, [r4, #8]
    35c0:	e7f7      	b.n	35b2 <setvbuf+0x142>
    35c2:	0028      	movs	r0, r5
    35c4:	f002 fdf4 	bl	61b0 <__sinit>
    35c8:	9b00      	ldr	r3, [sp, #0]
    35ca:	429f      	cmp	r7, r3
    35cc:	d1d4      	bne.n	3578 <setvbuf+0x108>
    35ce:	220c      	movs	r2, #12
    35d0:	5ea3      	ldrsh	r3, [r4, r2]
    35d2:	2e01      	cmp	r6, #1
    35d4:	d1d8      	bne.n	3588 <setvbuf+0x118>
    35d6:	2201      	movs	r2, #1
    35d8:	4313      	orrs	r3, r2
    35da:	81a3      	strh	r3, [r4, #12]
    35dc:	e7d4      	b.n	3588 <setvbuf+0x118>
    35de:	2501      	movs	r5, #1
    35e0:	426d      	negs	r5, r5
    35e2:	e7af      	b.n	3544 <setvbuf+0xd4>
    35e4:	9b00      	ldr	r3, [sp, #0]
    35e6:	4699      	mov	r9, r3
    35e8:	42bb      	cmp	r3, r7
    35ea:	d005      	beq.n	35f8 <setvbuf+0x188>
    35ec:	0018      	movs	r0, r3
    35ee:	f003 f99d 	bl	692c <malloc>
    35f2:	4680      	mov	r8, r0
    35f4:	2800      	cmp	r0, #0
    35f6:	d104      	bne.n	3602 <setvbuf+0x192>
    35f8:	2501      	movs	r5, #1
    35fa:	220c      	movs	r2, #12
    35fc:	5ea3      	ldrsh	r3, [r4, r2]
    35fe:	426d      	negs	r5, r5
    3600:	e78d      	b.n	351e <setvbuf+0xae>
    3602:	464f      	mov	r7, r9
    3604:	e77e      	b.n	3504 <setvbuf+0x94>
    3606:	46c0      	nop			; (mov r8, r8)
    3608:	20000000 	.word	0x20000000
    360c:	fffff35c 	.word	0xfffff35c

00003610 <strlen>:
    3610:	b510      	push	{r4, lr}
    3612:	0783      	lsls	r3, r0, #30
    3614:	d025      	beq.n	3662 <strlen+0x52>
    3616:	7803      	ldrb	r3, [r0, #0]
    3618:	2b00      	cmp	r3, #0
    361a:	d024      	beq.n	3666 <strlen+0x56>
    361c:	0003      	movs	r3, r0
    361e:	2103      	movs	r1, #3
    3620:	e002      	b.n	3628 <strlen+0x18>
    3622:	781a      	ldrb	r2, [r3, #0]
    3624:	2a00      	cmp	r2, #0
    3626:	d01a      	beq.n	365e <strlen+0x4e>
    3628:	3301      	adds	r3, #1
    362a:	420b      	tst	r3, r1
    362c:	d1f9      	bne.n	3622 <strlen+0x12>
    362e:	6819      	ldr	r1, [r3, #0]
    3630:	4a0e      	ldr	r2, [pc, #56]	; (366c <strlen+0x5c>)
    3632:	4c0f      	ldr	r4, [pc, #60]	; (3670 <strlen+0x60>)
    3634:	188a      	adds	r2, r1, r2
    3636:	438a      	bics	r2, r1
    3638:	4222      	tst	r2, r4
    363a:	d106      	bne.n	364a <strlen+0x3a>
    363c:	3304      	adds	r3, #4
    363e:	6819      	ldr	r1, [r3, #0]
    3640:	4a0a      	ldr	r2, [pc, #40]	; (366c <strlen+0x5c>)
    3642:	188a      	adds	r2, r1, r2
    3644:	438a      	bics	r2, r1
    3646:	4222      	tst	r2, r4
    3648:	d0f8      	beq.n	363c <strlen+0x2c>
    364a:	001a      	movs	r2, r3
    364c:	781b      	ldrb	r3, [r3, #0]
    364e:	2b00      	cmp	r3, #0
    3650:	d003      	beq.n	365a <strlen+0x4a>
    3652:	3201      	adds	r2, #1
    3654:	7811      	ldrb	r1, [r2, #0]
    3656:	2900      	cmp	r1, #0
    3658:	d1fb      	bne.n	3652 <strlen+0x42>
    365a:	1a10      	subs	r0, r2, r0
    365c:	bd10      	pop	{r4, pc}
    365e:	1a18      	subs	r0, r3, r0
    3660:	e7fc      	b.n	365c <strlen+0x4c>
    3662:	0003      	movs	r3, r0
    3664:	e7e3      	b.n	362e <strlen+0x1e>
    3666:	2000      	movs	r0, #0
    3668:	e7f8      	b.n	365c <strlen+0x4c>
    366a:	46c0      	nop			; (mov r8, r8)
    366c:	fefefeff 	.word	0xfefefeff
    3670:	80808080 	.word	0x80808080

00003674 <_vfprintf_r>:
    3674:	b5f0      	push	{r4, r5, r6, r7, lr}
    3676:	46de      	mov	lr, fp
    3678:	464e      	mov	r6, r9
    367a:	4645      	mov	r5, r8
    367c:	4657      	mov	r7, sl
    367e:	b5e0      	push	{r5, r6, r7, lr}
    3680:	b0c3      	sub	sp, #268	; 0x10c
    3682:	4689      	mov	r9, r1
    3684:	0014      	movs	r4, r2
    3686:	001d      	movs	r5, r3
    3688:	930f      	str	r3, [sp, #60]	; 0x3c
    368a:	0006      	movs	r6, r0
    368c:	9006      	str	r0, [sp, #24]
    368e:	f003 f8bf 	bl	6810 <_localeconv_r>
    3692:	6803      	ldr	r3, [r0, #0]
    3694:	0018      	movs	r0, r3
    3696:	9318      	str	r3, [sp, #96]	; 0x60
    3698:	f7ff ffba 	bl	3610 <strlen>
    369c:	9017      	str	r0, [sp, #92]	; 0x5c
    369e:	2e00      	cmp	r6, #0
    36a0:	d004      	beq.n	36ac <_vfprintf_r+0x38>
    36a2:	6bb3      	ldr	r3, [r6, #56]	; 0x38
    36a4:	9307      	str	r3, [sp, #28]
    36a6:	2b00      	cmp	r3, #0
    36a8:	d100      	bne.n	36ac <_vfprintf_r+0x38>
    36aa:	e0a7      	b.n	37fc <_vfprintf_r+0x188>
    36ac:	464b      	mov	r3, r9
    36ae:	6e5b      	ldr	r3, [r3, #100]	; 0x64
    36b0:	07db      	lsls	r3, r3, #31
    36b2:	d478      	bmi.n	37a6 <_vfprintf_r+0x132>
    36b4:	464b      	mov	r3, r9
    36b6:	210c      	movs	r1, #12
    36b8:	5e59      	ldrsh	r1, [r3, r1]
    36ba:	b28b      	uxth	r3, r1
    36bc:	059a      	lsls	r2, r3, #22
    36be:	d56e      	bpl.n	379e <_vfprintf_r+0x12a>
    36c0:	2280      	movs	r2, #128	; 0x80
    36c2:	0192      	lsls	r2, r2, #6
    36c4:	4213      	tst	r3, r2
    36c6:	d109      	bne.n	36dc <_vfprintf_r+0x68>
    36c8:	430a      	orrs	r2, r1
    36ca:	464b      	mov	r3, r9
    36cc:	4649      	mov	r1, r9
    36ce:	819a      	strh	r2, [r3, #12]
    36d0:	6e49      	ldr	r1, [r1, #100]	; 0x64
    36d2:	4bcc      	ldr	r3, [pc, #816]	; (3a04 <_vfprintf_r+0x390>)
    36d4:	400b      	ands	r3, r1
    36d6:	4649      	mov	r1, r9
    36d8:	664b      	str	r3, [r1, #100]	; 0x64
    36da:	b293      	uxth	r3, r2
    36dc:	071a      	lsls	r2, r3, #28
    36de:	d567      	bpl.n	37b0 <_vfprintf_r+0x13c>
    36e0:	464a      	mov	r2, r9
    36e2:	6912      	ldr	r2, [r2, #16]
    36e4:	2a00      	cmp	r2, #0
    36e6:	d063      	beq.n	37b0 <_vfprintf_r+0x13c>
    36e8:	221a      	movs	r2, #26
    36ea:	401a      	ands	r2, r3
    36ec:	2a0a      	cmp	r2, #10
    36ee:	d100      	bne.n	36f2 <_vfprintf_r+0x7e>
    36f0:	e088      	b.n	3804 <_vfprintf_r+0x190>
    36f2:	ab32      	add	r3, sp, #200	; 0xc8
    36f4:	9325      	str	r3, [sp, #148]	; 0x94
    36f6:	2300      	movs	r3, #0
    36f8:	46cb      	mov	fp, r9
    36fa:	af25      	add	r7, sp, #148	; 0x94
    36fc:	60bb      	str	r3, [r7, #8]
    36fe:	607b      	str	r3, [r7, #4]
    3700:	9407      	str	r4, [sp, #28]
    3702:	9314      	str	r3, [sp, #80]	; 0x50
    3704:	9316      	str	r3, [sp, #88]	; 0x58
    3706:	9315      	str	r3, [sp, #84]	; 0x54
    3708:	ae32      	add	r6, sp, #200	; 0xc8
    370a:	9319      	str	r3, [sp, #100]	; 0x64
    370c:	931a      	str	r3, [sp, #104]	; 0x68
    370e:	930a      	str	r3, [sp, #40]	; 0x28
    3710:	9c07      	ldr	r4, [sp, #28]
    3712:	7823      	ldrb	r3, [r4, #0]
    3714:	2b00      	cmp	r3, #0
    3716:	d101      	bne.n	371c <_vfprintf_r+0xa8>
    3718:	f000 fd9e 	bl	4258 <_vfprintf_r+0xbe4>
    371c:	2b25      	cmp	r3, #37	; 0x25
    371e:	d103      	bne.n	3728 <_vfprintf_r+0xb4>
    3720:	f000 fd9a 	bl	4258 <_vfprintf_r+0xbe4>
    3724:	2b25      	cmp	r3, #37	; 0x25
    3726:	d003      	beq.n	3730 <_vfprintf_r+0xbc>
    3728:	3401      	adds	r4, #1
    372a:	7823      	ldrb	r3, [r4, #0]
    372c:	2b00      	cmp	r3, #0
    372e:	d1f9      	bne.n	3724 <_vfprintf_r+0xb0>
    3730:	9b07      	ldr	r3, [sp, #28]
    3732:	1ae5      	subs	r5, r4, r3
    3734:	d010      	beq.n	3758 <_vfprintf_r+0xe4>
    3736:	9b07      	ldr	r3, [sp, #28]
    3738:	6075      	str	r5, [r6, #4]
    373a:	6033      	str	r3, [r6, #0]
    373c:	68bb      	ldr	r3, [r7, #8]
    373e:	195b      	adds	r3, r3, r5
    3740:	60bb      	str	r3, [r7, #8]
    3742:	687b      	ldr	r3, [r7, #4]
    3744:	3301      	adds	r3, #1
    3746:	607b      	str	r3, [r7, #4]
    3748:	2b07      	cmp	r3, #7
    374a:	dc4c      	bgt.n	37e6 <_vfprintf_r+0x172>
    374c:	3608      	adds	r6, #8
    374e:	9b0a      	ldr	r3, [sp, #40]	; 0x28
    3750:	469c      	mov	ip, r3
    3752:	44ac      	add	ip, r5
    3754:	4663      	mov	r3, ip
    3756:	930a      	str	r3, [sp, #40]	; 0x28
    3758:	7823      	ldrb	r3, [r4, #0]
    375a:	2b00      	cmp	r3, #0
    375c:	d101      	bne.n	3762 <_vfprintf_r+0xee>
    375e:	f000 fc99 	bl	4094 <_vfprintf_r+0xa20>
    3762:	1c63      	adds	r3, r4, #1
    3764:	9307      	str	r3, [sp, #28]
    3766:	2300      	movs	r3, #0
    3768:	aa16      	add	r2, sp, #88	; 0x58
    376a:	77d3      	strb	r3, [r2, #31]
    376c:	2201      	movs	r2, #1
    376e:	4252      	negs	r2, r2
    3770:	4692      	mov	sl, r2
    3772:	2200      	movs	r2, #0
    3774:	920b      	str	r2, [sp, #44]	; 0x2c
    3776:	3220      	adds	r2, #32
    3778:	4691      	mov	r9, r2
    377a:	3220      	adds	r2, #32
    377c:	7863      	ldrb	r3, [r4, #1]
    377e:	2100      	movs	r1, #0
    3780:	2000      	movs	r0, #0
    3782:	2400      	movs	r4, #0
    3784:	4694      	mov	ip, r2
    3786:	9a07      	ldr	r2, [sp, #28]
    3788:	3201      	adds	r2, #1
    378a:	9207      	str	r2, [sp, #28]
    378c:	001a      	movs	r2, r3
    378e:	3a20      	subs	r2, #32
    3790:	2a58      	cmp	r2, #88	; 0x58
    3792:	d900      	bls.n	3796 <_vfprintf_r+0x122>
    3794:	e2e7      	b.n	3d66 <_vfprintf_r+0x6f2>
    3796:	4d9c      	ldr	r5, [pc, #624]	; (3a08 <_vfprintf_r+0x394>)
    3798:	0092      	lsls	r2, r2, #2
    379a:	58aa      	ldr	r2, [r5, r2]
    379c:	4697      	mov	pc, r2
    379e:	464b      	mov	r3, r9
    37a0:	6d98      	ldr	r0, [r3, #88]	; 0x58
    37a2:	f003 f847 	bl	6834 <__retarget_lock_acquire_recursive>
    37a6:	464b      	mov	r3, r9
    37a8:	210c      	movs	r1, #12
    37aa:	5e59      	ldrsh	r1, [r3, r1]
    37ac:	b28b      	uxth	r3, r1
    37ae:	e787      	b.n	36c0 <_vfprintf_r+0x4c>
    37b0:	4649      	mov	r1, r9
    37b2:	9806      	ldr	r0, [sp, #24]
    37b4:	f001 fb0e 	bl	4dd4 <__swsetup_r>
    37b8:	464b      	mov	r3, r9
    37ba:	2800      	cmp	r0, #0
    37bc:	d03a      	beq.n	3834 <_vfprintf_r+0x1c0>
    37be:	6e5b      	ldr	r3, [r3, #100]	; 0x64
    37c0:	07db      	lsls	r3, r3, #31
    37c2:	d405      	bmi.n	37d0 <_vfprintf_r+0x15c>
    37c4:	464b      	mov	r3, r9
    37c6:	899b      	ldrh	r3, [r3, #12]
    37c8:	059b      	lsls	r3, r3, #22
    37ca:	d401      	bmi.n	37d0 <_vfprintf_r+0x15c>
    37cc:	f000 ffcf 	bl	476e <_vfprintf_r+0x10fa>
    37d0:	2301      	movs	r3, #1
    37d2:	425b      	negs	r3, r3
    37d4:	930a      	str	r3, [sp, #40]	; 0x28
    37d6:	980a      	ldr	r0, [sp, #40]	; 0x28
    37d8:	b043      	add	sp, #268	; 0x10c
    37da:	bc3c      	pop	{r2, r3, r4, r5}
    37dc:	4690      	mov	r8, r2
    37de:	4699      	mov	r9, r3
    37e0:	46a2      	mov	sl, r4
    37e2:	46ab      	mov	fp, r5
    37e4:	bdf0      	pop	{r4, r5, r6, r7, pc}
    37e6:	003a      	movs	r2, r7
    37e8:	4659      	mov	r1, fp
    37ea:	9806      	ldr	r0, [sp, #24]
    37ec:	f004 f9e6 	bl	7bbc <__sprint_r>
    37f0:	2800      	cmp	r0, #0
    37f2:	d001      	beq.n	37f8 <_vfprintf_r+0x184>
    37f4:	f000 fcce 	bl	4194 <_vfprintf_r+0xb20>
    37f8:	ae32      	add	r6, sp, #200	; 0xc8
    37fa:	e7a8      	b.n	374e <_vfprintf_r+0xda>
    37fc:	9806      	ldr	r0, [sp, #24]
    37fe:	f002 fcd7 	bl	61b0 <__sinit>
    3802:	e753      	b.n	36ac <_vfprintf_r+0x38>
    3804:	464a      	mov	r2, r9
    3806:	210e      	movs	r1, #14
    3808:	5e52      	ldrsh	r2, [r2, r1]
    380a:	2a00      	cmp	r2, #0
    380c:	da00      	bge.n	3810 <_vfprintf_r+0x19c>
    380e:	e770      	b.n	36f2 <_vfprintf_r+0x7e>
    3810:	464a      	mov	r2, r9
    3812:	6e52      	ldr	r2, [r2, #100]	; 0x64
    3814:	07d2      	lsls	r2, r2, #31
    3816:	d405      	bmi.n	3824 <_vfprintf_r+0x1b0>
    3818:	059b      	lsls	r3, r3, #22
    381a:	d403      	bmi.n	3824 <_vfprintf_r+0x1b0>
    381c:	464b      	mov	r3, r9
    381e:	6d98      	ldr	r0, [r3, #88]	; 0x58
    3820:	f003 f80a 	bl	6838 <__retarget_lock_release_recursive>
    3824:	002b      	movs	r3, r5
    3826:	0022      	movs	r2, r4
    3828:	4649      	mov	r1, r9
    382a:	9806      	ldr	r0, [sp, #24]
    382c:	f001 fa8e 	bl	4d4c <__sbprintf>
    3830:	900a      	str	r0, [sp, #40]	; 0x28
    3832:	e7d0      	b.n	37d6 <_vfprintf_r+0x162>
    3834:	899b      	ldrh	r3, [r3, #12]
    3836:	e757      	b.n	36e8 <_vfprintf_r+0x74>
    3838:	9b0b      	ldr	r3, [sp, #44]	; 0x2c
    383a:	920f      	str	r2, [sp, #60]	; 0x3c
    383c:	425b      	negs	r3, r3
    383e:	930b      	str	r3, [sp, #44]	; 0x2c
    3840:	2304      	movs	r3, #4
    3842:	431c      	orrs	r4, r3
    3844:	9b07      	ldr	r3, [sp, #28]
    3846:	781b      	ldrb	r3, [r3, #0]
    3848:	e79d      	b.n	3786 <_vfprintf_r+0x112>
    384a:	9b07      	ldr	r3, [sp, #28]
    384c:	2101      	movs	r1, #1
    384e:	781b      	ldrb	r3, [r3, #0]
    3850:	202b      	movs	r0, #43	; 0x2b
    3852:	e798      	b.n	3786 <_vfprintf_r+0x112>
    3854:	9b07      	ldr	r3, [sp, #28]
    3856:	1c5a      	adds	r2, r3, #1
    3858:	781b      	ldrb	r3, [r3, #0]
    385a:	4690      	mov	r8, r2
    385c:	2b2a      	cmp	r3, #42	; 0x2a
    385e:	d101      	bne.n	3864 <_vfprintf_r+0x1f0>
    3860:	f001 fa38 	bl	4cd4 <_vfprintf_r+0x1660>
    3864:	001a      	movs	r2, r3
    3866:	2500      	movs	r5, #0
    3868:	3a30      	subs	r2, #48	; 0x30
    386a:	46aa      	mov	sl, r5
    386c:	2a09      	cmp	r2, #9
    386e:	d901      	bls.n	3874 <_vfprintf_r+0x200>
    3870:	f001 f96d 	bl	4b4e <_vfprintf_r+0x14da>
    3874:	0025      	movs	r5, r4
    3876:	4643      	mov	r3, r8
    3878:	4654      	mov	r4, sl
    387a:	4688      	mov	r8, r1
    387c:	4682      	mov	sl, r0
    387e:	00a1      	lsls	r1, r4, #2
    3880:	190c      	adds	r4, r1, r4
    3882:	7818      	ldrb	r0, [r3, #0]
    3884:	0064      	lsls	r4, r4, #1
    3886:	18a4      	adds	r4, r4, r2
    3888:	0002      	movs	r2, r0
    388a:	1c59      	adds	r1, r3, #1
    388c:	3a30      	subs	r2, #48	; 0x30
    388e:	000b      	movs	r3, r1
    3890:	2a09      	cmp	r2, #9
    3892:	d9f4      	bls.n	387e <_vfprintf_r+0x20a>
    3894:	9107      	str	r1, [sp, #28]
    3896:	0003      	movs	r3, r0
    3898:	4641      	mov	r1, r8
    389a:	4650      	mov	r0, sl
    389c:	46a2      	mov	sl, r4
    389e:	002c      	movs	r4, r5
    38a0:	e774      	b.n	378c <_vfprintf_r+0x118>
    38a2:	9312      	str	r3, [sp, #72]	; 0x48
    38a4:	2900      	cmp	r1, #0
    38a6:	d001      	beq.n	38ac <_vfprintf_r+0x238>
    38a8:	f001 fa2e 	bl	4d08 <_vfprintf_r+0x1694>
    38ac:	4b57      	ldr	r3, [pc, #348]	; (3a0c <_vfprintf_r+0x398>)
    38ae:	9319      	str	r3, [sp, #100]	; 0x64
    38b0:	06a3      	lsls	r3, r4, #26
    38b2:	d501      	bpl.n	38b8 <_vfprintf_r+0x244>
    38b4:	f000 fe9a 	bl	45ec <_vfprintf_r+0xf78>
    38b8:	06e3      	lsls	r3, r4, #27
    38ba:	d501      	bpl.n	38c0 <_vfprintf_r+0x24c>
    38bc:	f000 fd9a 	bl	43f4 <_vfprintf_r+0xd80>
    38c0:	0663      	lsls	r3, r4, #25
    38c2:	d401      	bmi.n	38c8 <_vfprintf_r+0x254>
    38c4:	f000 fd96 	bl	43f4 <_vfprintf_r+0xd80>
    38c8:	9b0f      	ldr	r3, [sp, #60]	; 0x3c
    38ca:	881a      	ldrh	r2, [r3, #0]
    38cc:	920c      	str	r2, [sp, #48]	; 0x30
    38ce:	2200      	movs	r2, #0
    38d0:	3304      	adds	r3, #4
    38d2:	920d      	str	r2, [sp, #52]	; 0x34
    38d4:	930f      	str	r3, [sp, #60]	; 0x3c
    38d6:	07e3      	lsls	r3, r4, #31
    38d8:	d401      	bmi.n	38de <_vfprintf_r+0x26a>
    38da:	f000 fd76 	bl	43ca <_vfprintf_r+0xd56>
    38de:	990c      	ldr	r1, [sp, #48]	; 0x30
    38e0:	9a0d      	ldr	r2, [sp, #52]	; 0x34
    38e2:	000b      	movs	r3, r1
    38e4:	4313      	orrs	r3, r2
    38e6:	001a      	movs	r2, r3
    38e8:	2302      	movs	r3, #2
    38ea:	2a00      	cmp	r2, #0
    38ec:	d008      	beq.n	3900 <_vfprintf_r+0x28c>
    38ee:	2030      	movs	r0, #48	; 0x30
    38f0:	a91e      	add	r1, sp, #120	; 0x78
    38f2:	7008      	strb	r0, [r1, #0]
    38f4:	2548      	movs	r5, #72	; 0x48
    38f6:	4668      	mov	r0, sp
    38f8:	1940      	adds	r0, r0, r5
    38fa:	7800      	ldrb	r0, [r0, #0]
    38fc:	431c      	orrs	r4, r3
    38fe:	7048      	strb	r0, [r1, #1]
    3900:	2100      	movs	r1, #0
    3902:	4688      	mov	r8, r1
    3904:	a816      	add	r0, sp, #88	; 0x58
    3906:	77c1      	strb	r1, [r0, #31]
    3908:	4651      	mov	r1, sl
    390a:	3101      	adds	r1, #1
    390c:	d100      	bne.n	3910 <_vfprintf_r+0x29c>
    390e:	e0e6      	b.n	3ade <_vfprintf_r+0x46a>
    3910:	2180      	movs	r1, #128	; 0x80
    3912:	0020      	movs	r0, r4
    3914:	4388      	bics	r0, r1
    3916:	9009      	str	r0, [sp, #36]	; 0x24
    3918:	2a00      	cmp	r2, #0
    391a:	d000      	beq.n	391e <_vfprintf_r+0x2aa>
    391c:	e0e3      	b.n	3ae6 <_vfprintf_r+0x472>
    391e:	4652      	mov	r2, sl
    3920:	2a00      	cmp	r2, #0
    3922:	d001      	beq.n	3928 <_vfprintf_r+0x2b4>
    3924:	f000 fc38 	bl	4198 <_vfprintf_r+0xb24>
    3928:	2b00      	cmp	r3, #0
    392a:	d001      	beq.n	3930 <_vfprintf_r+0x2bc>
    392c:	f000 fd0c 	bl	4348 <_vfprintf_r+0xcd4>
    3930:	2001      	movs	r0, #1
    3932:	ab32      	add	r3, sp, #200	; 0xc8
    3934:	4020      	ands	r0, r4
    3936:	900e      	str	r0, [sp, #56]	; 0x38
    3938:	9311      	str	r3, [sp, #68]	; 0x44
    393a:	d008      	beq.n	394e <_vfprintf_r+0x2da>
    393c:	2327      	movs	r3, #39	; 0x27
    393e:	2130      	movs	r1, #48	; 0x30
    3940:	aa28      	add	r2, sp, #160	; 0xa0
    3942:	54d1      	strb	r1, [r2, r3]
    3944:	aa16      	add	r2, sp, #88	; 0x58
    3946:	4694      	mov	ip, r2
    3948:	3348      	adds	r3, #72	; 0x48
    394a:	4463      	add	r3, ip
    394c:	9311      	str	r3, [sp, #68]	; 0x44
    394e:	4653      	mov	r3, sl
    3950:	9a0e      	ldr	r2, [sp, #56]	; 0x38
    3952:	9308      	str	r3, [sp, #32]
    3954:	4592      	cmp	sl, r2
    3956:	da00      	bge.n	395a <_vfprintf_r+0x2e6>
    3958:	9208      	str	r2, [sp, #32]
    395a:	2300      	movs	r3, #0
    395c:	9313      	str	r3, [sp, #76]	; 0x4c
    395e:	4643      	mov	r3, r8
    3960:	2b00      	cmp	r3, #0
    3962:	d002      	beq.n	396a <_vfprintf_r+0x2f6>
    3964:	9b08      	ldr	r3, [sp, #32]
    3966:	3301      	adds	r3, #1
    3968:	9308      	str	r3, [sp, #32]
    396a:	2302      	movs	r3, #2
    396c:	9a09      	ldr	r2, [sp, #36]	; 0x24
    396e:	401a      	ands	r2, r3
    3970:	4691      	mov	r9, r2
    3972:	d002      	beq.n	397a <_vfprintf_r+0x306>
    3974:	9b08      	ldr	r3, [sp, #32]
    3976:	3302      	adds	r3, #2
    3978:	9308      	str	r3, [sp, #32]
    397a:	2384      	movs	r3, #132	; 0x84
    397c:	9a09      	ldr	r2, [sp, #36]	; 0x24
    397e:	401a      	ands	r2, r3
    3980:	9210      	str	r2, [sp, #64]	; 0x40
    3982:	d000      	beq.n	3986 <_vfprintf_r+0x312>
    3984:	e207      	b.n	3d96 <_vfprintf_r+0x722>
    3986:	9b0b      	ldr	r3, [sp, #44]	; 0x2c
    3988:	9a08      	ldr	r2, [sp, #32]
    398a:	1a9c      	subs	r4, r3, r2
    398c:	2c00      	cmp	r4, #0
    398e:	dc00      	bgt.n	3992 <_vfprintf_r+0x31e>
    3990:	e201      	b.n	3d96 <_vfprintf_r+0x722>
    3992:	491f      	ldr	r1, [pc, #124]	; (3a10 <_vfprintf_r+0x39c>)
    3994:	68ba      	ldr	r2, [r7, #8]
    3996:	687b      	ldr	r3, [r7, #4]
    3998:	4688      	mov	r8, r1
    399a:	2c10      	cmp	r4, #16
    399c:	dd21      	ble.n	39e2 <_vfprintf_r+0x36e>
    399e:	0031      	movs	r1, r6
    39a0:	2510      	movs	r5, #16
    39a2:	465e      	mov	r6, fp
    39a4:	e003      	b.n	39ae <_vfprintf_r+0x33a>
    39a6:	3c10      	subs	r4, #16
    39a8:	3108      	adds	r1, #8
    39aa:	2c10      	cmp	r4, #16
    39ac:	dd17      	ble.n	39de <_vfprintf_r+0x36a>
    39ae:	4640      	mov	r0, r8
    39b0:	3210      	adds	r2, #16
    39b2:	3301      	adds	r3, #1
    39b4:	6008      	str	r0, [r1, #0]
    39b6:	604d      	str	r5, [r1, #4]
    39b8:	60ba      	str	r2, [r7, #8]
    39ba:	607b      	str	r3, [r7, #4]
    39bc:	2b07      	cmp	r3, #7
    39be:	ddf2      	ble.n	39a6 <_vfprintf_r+0x332>
    39c0:	003a      	movs	r2, r7
    39c2:	0031      	movs	r1, r6
    39c4:	9806      	ldr	r0, [sp, #24]
    39c6:	f004 f8f9 	bl	7bbc <__sprint_r>
    39ca:	2800      	cmp	r0, #0
    39cc:	d001      	beq.n	39d2 <_vfprintf_r+0x35e>
    39ce:	f000 fccf 	bl	4370 <_vfprintf_r+0xcfc>
    39d2:	3c10      	subs	r4, #16
    39d4:	68ba      	ldr	r2, [r7, #8]
    39d6:	687b      	ldr	r3, [r7, #4]
    39d8:	a932      	add	r1, sp, #200	; 0xc8
    39da:	2c10      	cmp	r4, #16
    39dc:	dce7      	bgt.n	39ae <_vfprintf_r+0x33a>
    39de:	46b3      	mov	fp, r6
    39e0:	000e      	movs	r6, r1
    39e2:	4641      	mov	r1, r8
    39e4:	6074      	str	r4, [r6, #4]
    39e6:	3301      	adds	r3, #1
    39e8:	18a4      	adds	r4, r4, r2
    39ea:	6031      	str	r1, [r6, #0]
    39ec:	60bc      	str	r4, [r7, #8]
    39ee:	607b      	str	r3, [r7, #4]
    39f0:	2b07      	cmp	r3, #7
    39f2:	dd01      	ble.n	39f8 <_vfprintf_r+0x384>
    39f4:	f000 fcae 	bl	4354 <_vfprintf_r+0xce0>
    39f8:	ab16      	add	r3, sp, #88	; 0x58
    39fa:	7fdb      	ldrb	r3, [r3, #31]
    39fc:	3608      	adds	r6, #8
    39fe:	4698      	mov	r8, r3
    3a00:	e1ca      	b.n	3d98 <_vfprintf_r+0x724>
    3a02:	46c0      	nop			; (mov r8, r8)
    3a04:	ffffdfff 	.word	0xffffdfff
    3a08:	000089c8 	.word	0x000089c8
    3a0c:	00008b50 	.word	0x00008b50
    3a10:	00008b70 	.word	0x00008b70
    3a14:	2200      	movs	r2, #0
    3a16:	9d07      	ldr	r5, [sp, #28]
    3a18:	3b30      	subs	r3, #48	; 0x30
    3a1a:	46a8      	mov	r8, r5
    3a1c:	920b      	str	r2, [sp, #44]	; 0x2c
    3a1e:	001a      	movs	r2, r3
    3a20:	9408      	str	r4, [sp, #32]
    3a22:	002c      	movs	r4, r5
    3a24:	4655      	mov	r5, sl
    3a26:	4682      	mov	sl, r0
    3a28:	4640      	mov	r0, r8
    3a2a:	4688      	mov	r8, r1
    3a2c:	0011      	movs	r1, r2
    3a2e:	2200      	movs	r2, #0
    3a30:	0093      	lsls	r3, r2, #2
    3a32:	189a      	adds	r2, r3, r2
    3a34:	7803      	ldrb	r3, [r0, #0]
    3a36:	0052      	lsls	r2, r2, #1
    3a38:	188a      	adds	r2, r1, r2
    3a3a:	0019      	movs	r1, r3
    3a3c:	3401      	adds	r4, #1
    3a3e:	3930      	subs	r1, #48	; 0x30
    3a40:	0020      	movs	r0, r4
    3a42:	2909      	cmp	r1, #9
    3a44:	d9f4      	bls.n	3a30 <_vfprintf_r+0x3bc>
    3a46:	9407      	str	r4, [sp, #28]
    3a48:	4650      	mov	r0, sl
    3a4a:	9c08      	ldr	r4, [sp, #32]
    3a4c:	920b      	str	r2, [sp, #44]	; 0x2c
    3a4e:	4641      	mov	r1, r8
    3a50:	46aa      	mov	sl, r5
    3a52:	e69b      	b.n	378c <_vfprintf_r+0x118>
    3a54:	9a0f      	ldr	r2, [sp, #60]	; 0x3c
    3a56:	9312      	str	r3, [sp, #72]	; 0x48
    3a58:	6813      	ldr	r3, [r2, #0]
    3a5a:	2120      	movs	r1, #32
    3a5c:	9308      	str	r3, [sp, #32]
    3a5e:	466b      	mov	r3, sp
    3a60:	185b      	adds	r3, r3, r1
    3a62:	781b      	ldrb	r3, [r3, #0]
    3a64:	ad28      	add	r5, sp, #160	; 0xa0
    3a66:	702b      	strb	r3, [r5, #0]
    3a68:	2300      	movs	r3, #0
    3a6a:	a916      	add	r1, sp, #88	; 0x58
    3a6c:	77cb      	strb	r3, [r1, #31]
    3a6e:	0013      	movs	r3, r2
    3a70:	3304      	adds	r3, #4
    3a72:	930f      	str	r3, [sp, #60]	; 0x3c
    3a74:	2300      	movs	r3, #0
    3a76:	9409      	str	r4, [sp, #36]	; 0x24
    3a78:	4698      	mov	r8, r3
    3a7a:	3301      	adds	r3, #1
    3a7c:	9308      	str	r3, [sp, #32]
    3a7e:	930e      	str	r3, [sp, #56]	; 0x38
    3a80:	2300      	movs	r3, #0
    3a82:	9511      	str	r5, [sp, #68]	; 0x44
    3a84:	469a      	mov	sl, r3
    3a86:	9313      	str	r3, [sp, #76]	; 0x4c
    3a88:	e76f      	b.n	396a <_vfprintf_r+0x2f6>
    3a8a:	9312      	str	r3, [sp, #72]	; 0x48
    3a8c:	2900      	cmp	r1, #0
    3a8e:	d001      	beq.n	3a94 <_vfprintf_r+0x420>
    3a90:	f001 f94d 	bl	4d2e <_vfprintf_r+0x16ba>
    3a94:	9a0f      	ldr	r2, [sp, #60]	; 0x3c
    3a96:	06a3      	lsls	r3, r4, #26
    3a98:	d501      	bpl.n	3a9e <_vfprintf_r+0x42a>
    3a9a:	f000 fd5a 	bl	4552 <_vfprintf_r+0xede>
    3a9e:	06e3      	lsls	r3, r4, #27
    3aa0:	d501      	bpl.n	3aa6 <_vfprintf_r+0x432>
    3aa2:	f000 fcab 	bl	43fc <_vfprintf_r+0xd88>
    3aa6:	0663      	lsls	r3, r4, #25
    3aa8:	d401      	bmi.n	3aae <_vfprintf_r+0x43a>
    3aaa:	f000 fca7 	bl	43fc <_vfprintf_r+0xd88>
    3aae:	2100      	movs	r1, #0
    3ab0:	5e53      	ldrsh	r3, [r2, r1]
    3ab2:	930c      	str	r3, [sp, #48]	; 0x30
    3ab4:	3204      	adds	r2, #4
    3ab6:	17db      	asrs	r3, r3, #31
    3ab8:	930d      	str	r3, [sp, #52]	; 0x34
    3aba:	920f      	str	r2, [sp, #60]	; 0x3c
    3abc:	2b00      	cmp	r3, #0
    3abe:	da01      	bge.n	3ac4 <_vfprintf_r+0x450>
    3ac0:	f000 fdb2 	bl	4628 <_vfprintf_r+0xfb4>
    3ac4:	990c      	ldr	r1, [sp, #48]	; 0x30
    3ac6:	9a0d      	ldr	r2, [sp, #52]	; 0x34
    3ac8:	0008      	movs	r0, r1
    3aca:	4651      	mov	r1, sl
    3acc:	ab16      	add	r3, sp, #88	; 0x58
    3ace:	7fdb      	ldrb	r3, [r3, #31]
    3ad0:	4310      	orrs	r0, r2
    3ad2:	4698      	mov	r8, r3
    3ad4:	0002      	movs	r2, r0
    3ad6:	2301      	movs	r3, #1
    3ad8:	3101      	adds	r1, #1
    3ada:	d000      	beq.n	3ade <_vfprintf_r+0x46a>
    3adc:	e718      	b.n	3910 <_vfprintf_r+0x29c>
    3ade:	2a00      	cmp	r2, #0
    3ae0:	d100      	bne.n	3ae4 <_vfprintf_r+0x470>
    3ae2:	e35a      	b.n	419a <_vfprintf_r+0xb26>
    3ae4:	9409      	str	r4, [sp, #36]	; 0x24
    3ae6:	2b01      	cmp	r3, #1
    3ae8:	d101      	bne.n	3aee <_vfprintf_r+0x47a>
    3aea:	f000 fc06 	bl	42fa <_vfprintf_r+0xc86>
    3aee:	2b02      	cmp	r3, #2
    3af0:	d000      	beq.n	3af4 <_vfprintf_r+0x480>
    3af2:	e380      	b.n	41f6 <_vfprintf_r+0xb82>
    3af4:	9c19      	ldr	r4, [sp, #100]	; 0x64
    3af6:	200f      	movs	r0, #15
    3af8:	46a1      	mov	r9, r4
    3afa:	46b4      	mov	ip, r6
    3afc:	ab32      	add	r3, sp, #200	; 0xc8
    3afe:	0019      	movs	r1, r3
    3b00:	9a0c      	ldr	r2, [sp, #48]	; 0x30
    3b02:	9b0d      	ldr	r3, [sp, #52]	; 0x34
    3b04:	0004      	movs	r4, r0
    3b06:	464d      	mov	r5, r9
    3b08:	4014      	ands	r4, r2
    3b0a:	5d2c      	ldrb	r4, [r5, r4]
    3b0c:	071e      	lsls	r6, r3, #28
    3b0e:	0915      	lsrs	r5, r2, #4
    3b10:	3901      	subs	r1, #1
    3b12:	432e      	orrs	r6, r5
    3b14:	700c      	strb	r4, [r1, #0]
    3b16:	091c      	lsrs	r4, r3, #4
    3b18:	0023      	movs	r3, r4
    3b1a:	0034      	movs	r4, r6
    3b1c:	0032      	movs	r2, r6
    3b1e:	431c      	orrs	r4, r3
    3b20:	d1f0      	bne.n	3b04 <_vfprintf_r+0x490>
    3b22:	920c      	str	r2, [sp, #48]	; 0x30
    3b24:	930d      	str	r3, [sp, #52]	; 0x34
    3b26:	ab32      	add	r3, sp, #200	; 0xc8
    3b28:	1a5b      	subs	r3, r3, r1
    3b2a:	9111      	str	r1, [sp, #68]	; 0x44
    3b2c:	4666      	mov	r6, ip
    3b2e:	930e      	str	r3, [sp, #56]	; 0x38
    3b30:	e70d      	b.n	394e <_vfprintf_r+0x2da>
    3b32:	4663      	mov	r3, ip
    3b34:	431c      	orrs	r4, r3
    3b36:	9b07      	ldr	r3, [sp, #28]
    3b38:	781b      	ldrb	r3, [r3, #0]
    3b3a:	e624      	b.n	3786 <_vfprintf_r+0x112>
    3b3c:	9b07      	ldr	r3, [sp, #28]
    3b3e:	781b      	ldrb	r3, [r3, #0]
    3b40:	2b6c      	cmp	r3, #108	; 0x6c
    3b42:	d101      	bne.n	3b48 <_vfprintf_r+0x4d4>
    3b44:	f000 fe8c 	bl	4860 <_vfprintf_r+0x11ec>
    3b48:	2210      	movs	r2, #16
    3b4a:	4314      	orrs	r4, r2
    3b4c:	e61b      	b.n	3786 <_vfprintf_r+0x112>
    3b4e:	2900      	cmp	r1, #0
    3b50:	d001      	beq.n	3b56 <_vfprintf_r+0x4e2>
    3b52:	f001 f8d5 	bl	4d00 <_vfprintf_r+0x168c>
    3b56:	06a3      	lsls	r3, r4, #26
    3b58:	d501      	bpl.n	3b5e <_vfprintf_r+0x4ea>
    3b5a:	f000 fe76 	bl	484a <_vfprintf_r+0x11d6>
    3b5e:	06e3      	lsls	r3, r4, #27
    3b60:	d500      	bpl.n	3b64 <_vfprintf_r+0x4f0>
    3b62:	e110      	b.n	3d86 <_vfprintf_r+0x712>
    3b64:	0663      	lsls	r3, r4, #25
    3b66:	d400      	bmi.n	3b6a <_vfprintf_r+0x4f6>
    3b68:	e10d      	b.n	3d86 <_vfprintf_r+0x712>
    3b6a:	4669      	mov	r1, sp
    3b6c:	9b0f      	ldr	r3, [sp, #60]	; 0x3c
    3b6e:	8d09      	ldrh	r1, [r1, #40]	; 0x28
    3b70:	681a      	ldr	r2, [r3, #0]
    3b72:	3304      	adds	r3, #4
    3b74:	9208      	str	r2, [sp, #32]
    3b76:	8011      	strh	r1, [r2, #0]
    3b78:	930f      	str	r3, [sp, #60]	; 0x3c
    3b7a:	e5c9      	b.n	3710 <_vfprintf_r+0x9c>
    3b7c:	990f      	ldr	r1, [sp, #60]	; 0x3c
    3b7e:	2230      	movs	r2, #48	; 0x30
    3b80:	680b      	ldr	r3, [r1, #0]
    3b82:	930c      	str	r3, [sp, #48]	; 0x30
    3b84:	2300      	movs	r3, #0
    3b86:	930d      	str	r3, [sp, #52]	; 0x34
    3b88:	3302      	adds	r3, #2
    3b8a:	431c      	orrs	r4, r3
    3b8c:	ab1e      	add	r3, sp, #120	; 0x78
    3b8e:	701a      	strb	r2, [r3, #0]
    3b90:	3248      	adds	r2, #72	; 0x48
    3b92:	705a      	strb	r2, [r3, #1]
    3b94:	000b      	movs	r3, r1
    3b96:	3304      	adds	r3, #4
    3b98:	930f      	str	r3, [sp, #60]	; 0x3c
    3b9a:	4bc1      	ldr	r3, [pc, #772]	; (3ea0 <_vfprintf_r+0x82c>)
    3b9c:	9212      	str	r2, [sp, #72]	; 0x48
    3b9e:	9319      	str	r3, [sp, #100]	; 0x64
    3ba0:	9a0c      	ldr	r2, [sp, #48]	; 0x30
    3ba2:	2302      	movs	r3, #2
    3ba4:	e6ac      	b.n	3900 <_vfprintf_r+0x28c>
    3ba6:	464b      	mov	r3, r9
    3ba8:	431c      	orrs	r4, r3
    3baa:	9b07      	ldr	r3, [sp, #28]
    3bac:	781b      	ldrb	r3, [r3, #0]
    3bae:	e5ea      	b.n	3786 <_vfprintf_r+0x112>
    3bb0:	9312      	str	r3, [sp, #72]	; 0x48
    3bb2:	9b0f      	ldr	r3, [sp, #60]	; 0x3c
    3bb4:	a916      	add	r1, sp, #88	; 0x58
    3bb6:	1d1d      	adds	r5, r3, #4
    3bb8:	681b      	ldr	r3, [r3, #0]
    3bba:	001a      	movs	r2, r3
    3bbc:	9311      	str	r3, [sp, #68]	; 0x44
    3bbe:	2300      	movs	r3, #0
    3bc0:	77cb      	strb	r3, [r1, #31]
    3bc2:	2a00      	cmp	r2, #0
    3bc4:	d101      	bne.n	3bca <_vfprintf_r+0x556>
    3bc6:	f000 ff01 	bl	49cc <_vfprintf_r+0x1358>
    3bca:	4653      	mov	r3, sl
    3bcc:	3301      	adds	r3, #1
    3bce:	d101      	bne.n	3bd4 <_vfprintf_r+0x560>
    3bd0:	f000 fe64 	bl	489c <_vfprintf_r+0x1228>
    3bd4:	4652      	mov	r2, sl
    3bd6:	2100      	movs	r1, #0
    3bd8:	9811      	ldr	r0, [sp, #68]	; 0x44
    3bda:	f003 f965 	bl	6ea8 <memchr>
    3bde:	2800      	cmp	r0, #0
    3be0:	d101      	bne.n	3be6 <_vfprintf_r+0x572>
    3be2:	f000 ff78 	bl	4ad6 <_vfprintf_r+0x1462>
    3be6:	9b11      	ldr	r3, [sp, #68]	; 0x44
    3be8:	1ac3      	subs	r3, r0, r3
    3bea:	001a      	movs	r2, r3
    3bec:	930e      	str	r3, [sp, #56]	; 0x38
    3bee:	43db      	mvns	r3, r3
    3bf0:	17db      	asrs	r3, r3, #31
    3bf2:	401a      	ands	r2, r3
    3bf4:	ab16      	add	r3, sp, #88	; 0x58
    3bf6:	7fdb      	ldrb	r3, [r3, #31]
    3bf8:	9208      	str	r2, [sp, #32]
    3bfa:	4698      	mov	r8, r3
    3bfc:	2300      	movs	r3, #0
    3bfe:	950f      	str	r5, [sp, #60]	; 0x3c
    3c00:	9409      	str	r4, [sp, #36]	; 0x24
    3c02:	469a      	mov	sl, r3
    3c04:	9313      	str	r3, [sp, #76]	; 0x4c
    3c06:	e6aa      	b.n	395e <_vfprintf_r+0x2ea>
    3c08:	2308      	movs	r3, #8
    3c0a:	431c      	orrs	r4, r3
    3c0c:	9b07      	ldr	r3, [sp, #28]
    3c0e:	781b      	ldrb	r3, [r3, #0]
    3c10:	e5b9      	b.n	3786 <_vfprintf_r+0x112>
    3c12:	9312      	str	r3, [sp, #72]	; 0x48
    3c14:	2310      	movs	r3, #16
    3c16:	431c      	orrs	r4, r3
    3c18:	06a3      	lsls	r3, r4, #26
    3c1a:	d501      	bpl.n	3c20 <_vfprintf_r+0x5ac>
    3c1c:	f000 fca7 	bl	456e <_vfprintf_r+0xefa>
    3c20:	06e3      	lsls	r3, r4, #27
    3c22:	d500      	bpl.n	3c26 <_vfprintf_r+0x5b2>
    3c24:	e3ee      	b.n	4404 <_vfprintf_r+0xd90>
    3c26:	0663      	lsls	r3, r4, #25
    3c28:	d400      	bmi.n	3c2c <_vfprintf_r+0x5b8>
    3c2a:	e3eb      	b.n	4404 <_vfprintf_r+0xd90>
    3c2c:	9b0f      	ldr	r3, [sp, #60]	; 0x3c
    3c2e:	881a      	ldrh	r2, [r3, #0]
    3c30:	920c      	str	r2, [sp, #48]	; 0x30
    3c32:	2200      	movs	r2, #0
    3c34:	3304      	adds	r3, #4
    3c36:	920d      	str	r2, [sp, #52]	; 0x34
    3c38:	930f      	str	r3, [sp, #60]	; 0x3c
    3c3a:	9a0c      	ldr	r2, [sp, #48]	; 0x30
    3c3c:	2300      	movs	r3, #0
    3c3e:	e65f      	b.n	3900 <_vfprintf_r+0x28c>
    3c40:	9312      	str	r3, [sp, #72]	; 0x48
    3c42:	2310      	movs	r3, #16
    3c44:	431c      	orrs	r4, r3
    3c46:	06a3      	lsls	r3, r4, #26
    3c48:	d501      	bpl.n	3c4e <_vfprintf_r+0x5da>
    3c4a:	f000 fcba 	bl	45c2 <_vfprintf_r+0xf4e>
    3c4e:	06e3      	lsls	r3, r4, #27
    3c50:	d500      	bpl.n	3c54 <_vfprintf_r+0x5e0>
    3c52:	e3da      	b.n	440a <_vfprintf_r+0xd96>
    3c54:	0663      	lsls	r3, r4, #25
    3c56:	d400      	bmi.n	3c5a <_vfprintf_r+0x5e6>
    3c58:	e3d7      	b.n	440a <_vfprintf_r+0xd96>
    3c5a:	9b0f      	ldr	r3, [sp, #60]	; 0x3c
    3c5c:	881a      	ldrh	r2, [r3, #0]
    3c5e:	920c      	str	r2, [sp, #48]	; 0x30
    3c60:	2200      	movs	r2, #0
    3c62:	3304      	adds	r3, #4
    3c64:	920d      	str	r2, [sp, #52]	; 0x34
    3c66:	930f      	str	r3, [sp, #60]	; 0x3c
    3c68:	9a0c      	ldr	r2, [sp, #48]	; 0x30
    3c6a:	2301      	movs	r3, #1
    3c6c:	e648      	b.n	3900 <_vfprintf_r+0x28c>
    3c6e:	9312      	str	r3, [sp, #72]	; 0x48
    3c70:	2900      	cmp	r1, #0
    3c72:	d001      	beq.n	3c78 <_vfprintf_r+0x604>
    3c74:	f001 f857 	bl	4d26 <_vfprintf_r+0x16b2>
    3c78:	4b8a      	ldr	r3, [pc, #552]	; (3ea4 <_vfprintf_r+0x830>)
    3c7a:	9319      	str	r3, [sp, #100]	; 0x64
    3c7c:	e618      	b.n	38b0 <_vfprintf_r+0x23c>
    3c7e:	2301      	movs	r3, #1
    3c80:	431c      	orrs	r4, r3
    3c82:	9b07      	ldr	r3, [sp, #28]
    3c84:	781b      	ldrb	r3, [r3, #0]
    3c86:	e57e      	b.n	3786 <_vfprintf_r+0x112>
    3c88:	2380      	movs	r3, #128	; 0x80
    3c8a:	431c      	orrs	r4, r3
    3c8c:	9b07      	ldr	r3, [sp, #28]
    3c8e:	781b      	ldrb	r3, [r3, #0]
    3c90:	e579      	b.n	3786 <_vfprintf_r+0x112>
    3c92:	9b07      	ldr	r3, [sp, #28]
    3c94:	781b      	ldrb	r3, [r3, #0]
    3c96:	2800      	cmp	r0, #0
    3c98:	d000      	beq.n	3c9c <_vfprintf_r+0x628>
    3c9a:	e574      	b.n	3786 <_vfprintf_r+0x112>
    3c9c:	2101      	movs	r1, #1
    3c9e:	3020      	adds	r0, #32
    3ca0:	e571      	b.n	3786 <_vfprintf_r+0x112>
    3ca2:	9312      	str	r3, [sp, #72]	; 0x48
    3ca4:	2900      	cmp	r1, #0
    3ca6:	d001      	beq.n	3cac <_vfprintf_r+0x638>
    3ca8:	f001 f839 	bl	4d1e <_vfprintf_r+0x16aa>
    3cac:	2207      	movs	r2, #7
    3cae:	9b0f      	ldr	r3, [sp, #60]	; 0x3c
    3cb0:	3307      	adds	r3, #7
    3cb2:	4393      	bics	r3, r2
    3cb4:	3201      	adds	r2, #1
    3cb6:	4694      	mov	ip, r2
    3cb8:	449c      	add	ip, r3
    3cba:	4662      	mov	r2, ip
    3cbc:	920f      	str	r2, [sp, #60]	; 0x3c
    3cbe:	681a      	ldr	r2, [r3, #0]
    3cc0:	9216      	str	r2, [sp, #88]	; 0x58
    3cc2:	685b      	ldr	r3, [r3, #4]
    3cc4:	2201      	movs	r2, #1
    3cc6:	9315      	str	r3, [sp, #84]	; 0x54
    3cc8:	9b15      	ldr	r3, [sp, #84]	; 0x54
    3cca:	9d16      	ldr	r5, [sp, #88]	; 0x58
    3ccc:	005b      	lsls	r3, r3, #1
    3cce:	085b      	lsrs	r3, r3, #1
    3cd0:	4698      	mov	r8, r3
    3cd2:	4252      	negs	r2, r2
    3cd4:	4b74      	ldr	r3, [pc, #464]	; (3ea8 <_vfprintf_r+0x834>)
    3cd6:	0028      	movs	r0, r5
    3cd8:	4641      	mov	r1, r8
    3cda:	f004 fd3f 	bl	875c <__aeabi_dcmpun>
    3cde:	2800      	cmp	r0, #0
    3ce0:	d001      	beq.n	3ce6 <_vfprintf_r+0x672>
    3ce2:	f000 fcb4 	bl	464e <_vfprintf_r+0xfda>
    3ce6:	2201      	movs	r2, #1
    3ce8:	4b6f      	ldr	r3, [pc, #444]	; (3ea8 <_vfprintf_r+0x834>)
    3cea:	4252      	negs	r2, r2
    3cec:	0028      	movs	r0, r5
    3cee:	4641      	mov	r1, r8
    3cf0:	f7ff f992 	bl	3018 <__aeabi_dcmple>
    3cf4:	2800      	cmp	r0, #0
    3cf6:	d001      	beq.n	3cfc <_vfprintf_r+0x688>
    3cf8:	f000 fca9 	bl	464e <_vfprintf_r+0xfda>
    3cfc:	2200      	movs	r2, #0
    3cfe:	2300      	movs	r3, #0
    3d00:	9816      	ldr	r0, [sp, #88]	; 0x58
    3d02:	9915      	ldr	r1, [sp, #84]	; 0x54
    3d04:	f7ff f97e 	bl	3004 <__aeabi_dcmplt>
    3d08:	2800      	cmp	r0, #0
    3d0a:	d001      	beq.n	3d10 <_vfprintf_r+0x69c>
    3d0c:	f000 fd55 	bl	47ba <_vfprintf_r+0x1146>
    3d10:	ab16      	add	r3, sp, #88	; 0x58
    3d12:	7fdb      	ldrb	r3, [r3, #31]
    3d14:	4698      	mov	r8, r3
    3d16:	9b12      	ldr	r3, [sp, #72]	; 0x48
    3d18:	2b47      	cmp	r3, #71	; 0x47
    3d1a:	dd01      	ble.n	3d20 <_vfprintf_r+0x6ac>
    3d1c:	f000 fdb4 	bl	4888 <_vfprintf_r+0x1214>
    3d20:	4b62      	ldr	r3, [pc, #392]	; (3eac <_vfprintf_r+0x838>)
    3d22:	9311      	str	r3, [sp, #68]	; 0x44
    3d24:	2380      	movs	r3, #128	; 0x80
    3d26:	439c      	bics	r4, r3
    3d28:	3b7d      	subs	r3, #125	; 0x7d
    3d2a:	9308      	str	r3, [sp, #32]
    3d2c:	930e      	str	r3, [sp, #56]	; 0x38
    3d2e:	2300      	movs	r3, #0
    3d30:	9409      	str	r4, [sp, #36]	; 0x24
    3d32:	469a      	mov	sl, r3
    3d34:	9313      	str	r3, [sp, #76]	; 0x4c
    3d36:	e612      	b.n	395e <_vfprintf_r+0x2ea>
    3d38:	9b0f      	ldr	r3, [sp, #60]	; 0x3c
    3d3a:	1d1a      	adds	r2, r3, #4
    3d3c:	681b      	ldr	r3, [r3, #0]
    3d3e:	930b      	str	r3, [sp, #44]	; 0x2c
    3d40:	2b00      	cmp	r3, #0
    3d42:	da00      	bge.n	3d46 <_vfprintf_r+0x6d2>
    3d44:	e578      	b.n	3838 <_vfprintf_r+0x1c4>
    3d46:	9b07      	ldr	r3, [sp, #28]
    3d48:	920f      	str	r2, [sp, #60]	; 0x3c
    3d4a:	781b      	ldrb	r3, [r3, #0]
    3d4c:	e51b      	b.n	3786 <_vfprintf_r+0x112>
    3d4e:	9312      	str	r3, [sp, #72]	; 0x48
    3d50:	2900      	cmp	r1, #0
    3d52:	d001      	beq.n	3d58 <_vfprintf_r+0x6e4>
    3d54:	f000 ffcc 	bl	4cf0 <_vfprintf_r+0x167c>
    3d58:	2310      	movs	r3, #16
    3d5a:	431c      	orrs	r4, r3
    3d5c:	e69a      	b.n	3a94 <_vfprintf_r+0x420>
    3d5e:	9312      	str	r3, [sp, #72]	; 0x48
    3d60:	e771      	b.n	3c46 <_vfprintf_r+0x5d2>
    3d62:	9312      	str	r3, [sp, #72]	; 0x48
    3d64:	e758      	b.n	3c18 <_vfprintf_r+0x5a4>
    3d66:	9312      	str	r3, [sp, #72]	; 0x48
    3d68:	2900      	cmp	r1, #0
    3d6a:	d001      	beq.n	3d70 <_vfprintf_r+0x6fc>
    3d6c:	f000 ffd3 	bl	4d16 <_vfprintf_r+0x16a2>
    3d70:	9b12      	ldr	r3, [sp, #72]	; 0x48
    3d72:	2b00      	cmp	r3, #0
    3d74:	d100      	bne.n	3d78 <_vfprintf_r+0x704>
    3d76:	e18d      	b.n	4094 <_vfprintf_r+0xa20>
    3d78:	ad28      	add	r5, sp, #160	; 0xa0
    3d7a:	702b      	strb	r3, [r5, #0]
    3d7c:	2300      	movs	r3, #0
    3d7e:	aa16      	add	r2, sp, #88	; 0x58
    3d80:	77d3      	strb	r3, [r2, #31]
    3d82:	9409      	str	r4, [sp, #36]	; 0x24
    3d84:	e678      	b.n	3a78 <_vfprintf_r+0x404>
    3d86:	9a0f      	ldr	r2, [sp, #60]	; 0x3c
    3d88:	990a      	ldr	r1, [sp, #40]	; 0x28
    3d8a:	6813      	ldr	r3, [r2, #0]
    3d8c:	6019      	str	r1, [r3, #0]
    3d8e:	0013      	movs	r3, r2
    3d90:	3304      	adds	r3, #4
    3d92:	930f      	str	r3, [sp, #60]	; 0x3c
    3d94:	e4bc      	b.n	3710 <_vfprintf_r+0x9c>
    3d96:	68bc      	ldr	r4, [r7, #8]
    3d98:	4643      	mov	r3, r8
    3d9a:	2b00      	cmp	r3, #0
    3d9c:	d00f      	beq.n	3dbe <_vfprintf_r+0x74a>
    3d9e:	aa16      	add	r2, sp, #88	; 0x58
    3da0:	231f      	movs	r3, #31
    3da2:	4694      	mov	ip, r2
    3da4:	4463      	add	r3, ip
    3da6:	6033      	str	r3, [r6, #0]
    3da8:	2301      	movs	r3, #1
    3daa:	6073      	str	r3, [r6, #4]
    3dac:	687b      	ldr	r3, [r7, #4]
    3dae:	3401      	adds	r4, #1
    3db0:	3301      	adds	r3, #1
    3db2:	60bc      	str	r4, [r7, #8]
    3db4:	607b      	str	r3, [r7, #4]
    3db6:	2b07      	cmp	r3, #7
    3db8:	dd00      	ble.n	3dbc <_vfprintf_r+0x748>
    3dba:	e203      	b.n	41c4 <_vfprintf_r+0xb50>
    3dbc:	3608      	adds	r6, #8
    3dbe:	464b      	mov	r3, r9
    3dc0:	2b00      	cmp	r3, #0
    3dc2:	d00c      	beq.n	3dde <_vfprintf_r+0x76a>
    3dc4:	ab1e      	add	r3, sp, #120	; 0x78
    3dc6:	6033      	str	r3, [r6, #0]
    3dc8:	2302      	movs	r3, #2
    3dca:	6073      	str	r3, [r6, #4]
    3dcc:	687b      	ldr	r3, [r7, #4]
    3dce:	3402      	adds	r4, #2
    3dd0:	3301      	adds	r3, #1
    3dd2:	60bc      	str	r4, [r7, #8]
    3dd4:	607b      	str	r3, [r7, #4]
    3dd6:	2b07      	cmp	r3, #7
    3dd8:	dd00      	ble.n	3ddc <_vfprintf_r+0x768>
    3dda:	e1fd      	b.n	41d8 <_vfprintf_r+0xb64>
    3ddc:	3608      	adds	r6, #8
    3dde:	9b10      	ldr	r3, [sp, #64]	; 0x40
    3de0:	2b80      	cmp	r3, #128	; 0x80
    3de2:	d100      	bne.n	3de6 <_vfprintf_r+0x772>
    3de4:	e173      	b.n	40ce <_vfprintf_r+0xa5a>
    3de6:	4653      	mov	r3, sl
    3de8:	9a0e      	ldr	r2, [sp, #56]	; 0x38
    3dea:	1a9d      	subs	r5, r3, r2
    3dec:	2d00      	cmp	r5, #0
    3dee:	dd32      	ble.n	3e56 <_vfprintf_r+0x7e2>
    3df0:	4a2f      	ldr	r2, [pc, #188]	; (3eb0 <_vfprintf_r+0x83c>)
    3df2:	687b      	ldr	r3, [r7, #4]
    3df4:	4691      	mov	r9, r2
    3df6:	2d10      	cmp	r5, #16
    3df8:	dd22      	ble.n	3e40 <_vfprintf_r+0x7cc>
    3dfa:	2210      	movs	r2, #16
    3dfc:	4692      	mov	sl, r2
    3dfe:	0022      	movs	r2, r4
    3e00:	465c      	mov	r4, fp
    3e02:	e003      	b.n	3e0c <_vfprintf_r+0x798>
    3e04:	3d10      	subs	r5, #16
    3e06:	3608      	adds	r6, #8
    3e08:	2d10      	cmp	r5, #16
    3e0a:	dd17      	ble.n	3e3c <_vfprintf_r+0x7c8>
    3e0c:	4649      	mov	r1, r9
    3e0e:	6031      	str	r1, [r6, #0]
    3e10:	4651      	mov	r1, sl
    3e12:	3210      	adds	r2, #16
    3e14:	3301      	adds	r3, #1
    3e16:	6071      	str	r1, [r6, #4]
    3e18:	60ba      	str	r2, [r7, #8]
    3e1a:	607b      	str	r3, [r7, #4]
    3e1c:	2b07      	cmp	r3, #7
    3e1e:	ddf1      	ble.n	3e04 <_vfprintf_r+0x790>
    3e20:	003a      	movs	r2, r7
    3e22:	0021      	movs	r1, r4
    3e24:	9806      	ldr	r0, [sp, #24]
    3e26:	f003 fec9 	bl	7bbc <__sprint_r>
    3e2a:	2800      	cmp	r0, #0
    3e2c:	d000      	beq.n	3e30 <_vfprintf_r+0x7bc>
    3e2e:	e18a      	b.n	4146 <_vfprintf_r+0xad2>
    3e30:	3d10      	subs	r5, #16
    3e32:	68ba      	ldr	r2, [r7, #8]
    3e34:	687b      	ldr	r3, [r7, #4]
    3e36:	ae32      	add	r6, sp, #200	; 0xc8
    3e38:	2d10      	cmp	r5, #16
    3e3a:	dce7      	bgt.n	3e0c <_vfprintf_r+0x798>
    3e3c:	46a3      	mov	fp, r4
    3e3e:	0014      	movs	r4, r2
    3e40:	464a      	mov	r2, r9
    3e42:	1964      	adds	r4, r4, r5
    3e44:	3301      	adds	r3, #1
    3e46:	6032      	str	r2, [r6, #0]
    3e48:	6075      	str	r5, [r6, #4]
    3e4a:	60bc      	str	r4, [r7, #8]
    3e4c:	607b      	str	r3, [r7, #4]
    3e4e:	2b07      	cmp	r3, #7
    3e50:	dd00      	ble.n	3e54 <_vfprintf_r+0x7e0>
    3e52:	e1ad      	b.n	41b0 <_vfprintf_r+0xb3c>
    3e54:	3608      	adds	r6, #8
    3e56:	9b09      	ldr	r3, [sp, #36]	; 0x24
    3e58:	05db      	lsls	r3, r3, #23
    3e5a:	d500      	bpl.n	3e5e <_vfprintf_r+0x7ea>
    3e5c:	e0be      	b.n	3fdc <_vfprintf_r+0x968>
    3e5e:	9b11      	ldr	r3, [sp, #68]	; 0x44
    3e60:	6033      	str	r3, [r6, #0]
    3e62:	9b0e      	ldr	r3, [sp, #56]	; 0x38
    3e64:	469c      	mov	ip, r3
    3e66:	6073      	str	r3, [r6, #4]
    3e68:	687b      	ldr	r3, [r7, #4]
    3e6a:	4464      	add	r4, ip
    3e6c:	3301      	adds	r3, #1
    3e6e:	60bc      	str	r4, [r7, #8]
    3e70:	607b      	str	r3, [r7, #4]
    3e72:	2b07      	cmp	r3, #7
    3e74:	dd00      	ble.n	3e78 <_vfprintf_r+0x804>
    3e76:	e0a6      	b.n	3fc6 <_vfprintf_r+0x952>
    3e78:	3608      	adds	r6, #8
    3e7a:	9b09      	ldr	r3, [sp, #36]	; 0x24
    3e7c:	075b      	lsls	r3, r3, #29
    3e7e:	d54a      	bpl.n	3f16 <_vfprintf_r+0x8a2>
    3e80:	9b0b      	ldr	r3, [sp, #44]	; 0x2c
    3e82:	9a08      	ldr	r2, [sp, #32]
    3e84:	1a9d      	subs	r5, r3, r2
    3e86:	2d00      	cmp	r5, #0
    3e88:	dd45      	ble.n	3f16 <_vfprintf_r+0x8a2>
    3e8a:	4a0a      	ldr	r2, [pc, #40]	; (3eb4 <_vfprintf_r+0x840>)
    3e8c:	687b      	ldr	r3, [r7, #4]
    3e8e:	4690      	mov	r8, r2
    3e90:	2d10      	cmp	r5, #16
    3e92:	dd2f      	ble.n	3ef4 <_vfprintf_r+0x880>
    3e94:	2210      	movs	r2, #16
    3e96:	4691      	mov	r9, r2
    3e98:	0022      	movs	r2, r4
    3e9a:	465c      	mov	r4, fp
    3e9c:	e010      	b.n	3ec0 <_vfprintf_r+0x84c>
    3e9e:	46c0      	nop			; (mov r8, r8)
    3ea0:	00008b50 	.word	0x00008b50
    3ea4:	00008b3c 	.word	0x00008b3c
    3ea8:	7fefffff 	.word	0x7fefffff
    3eac:	00008b2c 	.word	0x00008b2c
    3eb0:	00008b80 	.word	0x00008b80
    3eb4:	00008b70 	.word	0x00008b70
    3eb8:	3d10      	subs	r5, #16
    3eba:	3608      	adds	r6, #8
    3ebc:	2d10      	cmp	r5, #16
    3ebe:	dd17      	ble.n	3ef0 <_vfprintf_r+0x87c>
    3ec0:	49d1      	ldr	r1, [pc, #836]	; (4208 <_vfprintf_r+0xb94>)
    3ec2:	3210      	adds	r2, #16
    3ec4:	6031      	str	r1, [r6, #0]
    3ec6:	4649      	mov	r1, r9
    3ec8:	3301      	adds	r3, #1
    3eca:	6071      	str	r1, [r6, #4]
    3ecc:	60ba      	str	r2, [r7, #8]
    3ece:	607b      	str	r3, [r7, #4]
    3ed0:	2b07      	cmp	r3, #7
    3ed2:	ddf1      	ble.n	3eb8 <_vfprintf_r+0x844>
    3ed4:	003a      	movs	r2, r7
    3ed6:	0021      	movs	r1, r4
    3ed8:	9806      	ldr	r0, [sp, #24]
    3eda:	f003 fe6f 	bl	7bbc <__sprint_r>
    3ede:	2800      	cmp	r0, #0
    3ee0:	d000      	beq.n	3ee4 <_vfprintf_r+0x870>
    3ee2:	e130      	b.n	4146 <_vfprintf_r+0xad2>
    3ee4:	3d10      	subs	r5, #16
    3ee6:	68ba      	ldr	r2, [r7, #8]
    3ee8:	687b      	ldr	r3, [r7, #4]
    3eea:	ae32      	add	r6, sp, #200	; 0xc8
    3eec:	2d10      	cmp	r5, #16
    3eee:	dce7      	bgt.n	3ec0 <_vfprintf_r+0x84c>
    3ef0:	46a3      	mov	fp, r4
    3ef2:	0014      	movs	r4, r2
    3ef4:	4642      	mov	r2, r8
    3ef6:	1964      	adds	r4, r4, r5
    3ef8:	3301      	adds	r3, #1
    3efa:	c624      	stmia	r6!, {r2, r5}
    3efc:	60bc      	str	r4, [r7, #8]
    3efe:	607b      	str	r3, [r7, #4]
    3f00:	2b07      	cmp	r3, #7
    3f02:	dd08      	ble.n	3f16 <_vfprintf_r+0x8a2>
    3f04:	003a      	movs	r2, r7
    3f06:	4659      	mov	r1, fp
    3f08:	9806      	ldr	r0, [sp, #24]
    3f0a:	f003 fe57 	bl	7bbc <__sprint_r>
    3f0e:	2800      	cmp	r0, #0
    3f10:	d000      	beq.n	3f14 <_vfprintf_r+0x8a0>
    3f12:	e13f      	b.n	4194 <_vfprintf_r+0xb20>
    3f14:	68bc      	ldr	r4, [r7, #8]
    3f16:	9b0b      	ldr	r3, [sp, #44]	; 0x2c
    3f18:	9908      	ldr	r1, [sp, #32]
    3f1a:	428b      	cmp	r3, r1
    3f1c:	da00      	bge.n	3f20 <_vfprintf_r+0x8ac>
    3f1e:	000b      	movs	r3, r1
    3f20:	9a0a      	ldr	r2, [sp, #40]	; 0x28
    3f22:	4694      	mov	ip, r2
    3f24:	449c      	add	ip, r3
    3f26:	4663      	mov	r3, ip
    3f28:	930a      	str	r3, [sp, #40]	; 0x28
    3f2a:	2c00      	cmp	r4, #0
    3f2c:	d000      	beq.n	3f30 <_vfprintf_r+0x8bc>
    3f2e:	e129      	b.n	4184 <_vfprintf_r+0xb10>
    3f30:	2300      	movs	r3, #0
    3f32:	ae32      	add	r6, sp, #200	; 0xc8
    3f34:	607b      	str	r3, [r7, #4]
    3f36:	f7ff fbeb 	bl	3710 <_vfprintf_r+0x9c>
    3f3a:	9b14      	ldr	r3, [sp, #80]	; 0x50
    3f3c:	2b01      	cmp	r3, #1
    3f3e:	dc00      	bgt.n	3f42 <_vfprintf_r+0x8ce>
    3f40:	e103      	b.n	414a <_vfprintf_r+0xad6>
    3f42:	9b11      	ldr	r3, [sp, #68]	; 0x44
    3f44:	3401      	adds	r4, #1
    3f46:	6033      	str	r3, [r6, #0]
    3f48:	2301      	movs	r3, #1
    3f4a:	6073      	str	r3, [r6, #4]
    3f4c:	687b      	ldr	r3, [r7, #4]
    3f4e:	60bc      	str	r4, [r7, #8]
    3f50:	3301      	adds	r3, #1
    3f52:	607b      	str	r3, [r7, #4]
    3f54:	2b07      	cmp	r3, #7
    3f56:	dd00      	ble.n	3f5a <_vfprintf_r+0x8e6>
    3f58:	e2ef      	b.n	453a <_vfprintf_r+0xec6>
    3f5a:	3608      	adds	r6, #8
    3f5c:	9a18      	ldr	r2, [sp, #96]	; 0x60
    3f5e:	3301      	adds	r3, #1
    3f60:	6032      	str	r2, [r6, #0]
    3f62:	9a17      	ldr	r2, [sp, #92]	; 0x5c
    3f64:	4698      	mov	r8, r3
    3f66:	4694      	mov	ip, r2
    3f68:	4464      	add	r4, ip
    3f6a:	6072      	str	r2, [r6, #4]
    3f6c:	60bc      	str	r4, [r7, #8]
    3f6e:	607b      	str	r3, [r7, #4]
    3f70:	2b07      	cmp	r3, #7
    3f72:	dd00      	ble.n	3f76 <_vfprintf_r+0x902>
    3f74:	e318      	b.n	45a8 <_vfprintf_r+0xf34>
    3f76:	3608      	adds	r6, #8
    3f78:	2200      	movs	r2, #0
    3f7a:	2300      	movs	r3, #0
    3f7c:	9816      	ldr	r0, [sp, #88]	; 0x58
    3f7e:	9915      	ldr	r1, [sp, #84]	; 0x54
    3f80:	f7ff f83a 	bl	2ff8 <__aeabi_dcmpeq>
    3f84:	2800      	cmp	r0, #0
    3f86:	d000      	beq.n	3f8a <_vfprintf_r+0x916>
    3f88:	e1f4      	b.n	4374 <_vfprintf_r+0xd00>
    3f8a:	9d11      	ldr	r5, [sp, #68]	; 0x44
    3f8c:	9b14      	ldr	r3, [sp, #80]	; 0x50
    3f8e:	3501      	adds	r5, #1
    3f90:	3b01      	subs	r3, #1
    3f92:	6035      	str	r5, [r6, #0]
    3f94:	6073      	str	r3, [r6, #4]
    3f96:	18e4      	adds	r4, r4, r3
    3f98:	2301      	movs	r3, #1
    3f9a:	469c      	mov	ip, r3
    3f9c:	44e0      	add	r8, ip
    3f9e:	4643      	mov	r3, r8
    3fa0:	60bc      	str	r4, [r7, #8]
    3fa2:	607b      	str	r3, [r7, #4]
    3fa4:	2b07      	cmp	r3, #7
    3fa6:	dd00      	ble.n	3faa <_vfprintf_r+0x936>
    3fa8:	e0e0      	b.n	416c <_vfprintf_r+0xaf8>
    3faa:	3608      	adds	r6, #8
    3fac:	ab21      	add	r3, sp, #132	; 0x84
    3fae:	6033      	str	r3, [r6, #0]
    3fb0:	9b1a      	ldr	r3, [sp, #104]	; 0x68
    3fb2:	469c      	mov	ip, r3
    3fb4:	6073      	str	r3, [r6, #4]
    3fb6:	4643      	mov	r3, r8
    3fb8:	4464      	add	r4, ip
    3fba:	3301      	adds	r3, #1
    3fbc:	60bc      	str	r4, [r7, #8]
    3fbe:	607b      	str	r3, [r7, #4]
    3fc0:	2b07      	cmp	r3, #7
    3fc2:	dc00      	bgt.n	3fc6 <_vfprintf_r+0x952>
    3fc4:	e758      	b.n	3e78 <_vfprintf_r+0x804>
    3fc6:	003a      	movs	r2, r7
    3fc8:	4659      	mov	r1, fp
    3fca:	9806      	ldr	r0, [sp, #24]
    3fcc:	f003 fdf6 	bl	7bbc <__sprint_r>
    3fd0:	2800      	cmp	r0, #0
    3fd2:	d000      	beq.n	3fd6 <_vfprintf_r+0x962>
    3fd4:	e0de      	b.n	4194 <_vfprintf_r+0xb20>
    3fd6:	68bc      	ldr	r4, [r7, #8]
    3fd8:	ae32      	add	r6, sp, #200	; 0xc8
    3fda:	e74e      	b.n	3e7a <_vfprintf_r+0x806>
    3fdc:	9b12      	ldr	r3, [sp, #72]	; 0x48
    3fde:	2b65      	cmp	r3, #101	; 0x65
    3fe0:	ddab      	ble.n	3f3a <_vfprintf_r+0x8c6>
    3fe2:	2200      	movs	r2, #0
    3fe4:	2300      	movs	r3, #0
    3fe6:	9816      	ldr	r0, [sp, #88]	; 0x58
    3fe8:	9915      	ldr	r1, [sp, #84]	; 0x54
    3fea:	f7ff f805 	bl	2ff8 <__aeabi_dcmpeq>
    3fee:	2800      	cmp	r0, #0
    3ff0:	d100      	bne.n	3ff4 <_vfprintf_r+0x980>
    3ff2:	e134      	b.n	425e <_vfprintf_r+0xbea>
    3ff4:	4b85      	ldr	r3, [pc, #532]	; (420c <_vfprintf_r+0xb98>)
    3ff6:	3401      	adds	r4, #1
    3ff8:	6033      	str	r3, [r6, #0]
    3ffa:	2301      	movs	r3, #1
    3ffc:	6073      	str	r3, [r6, #4]
    3ffe:	687b      	ldr	r3, [r7, #4]
    4000:	60bc      	str	r4, [r7, #8]
    4002:	3301      	adds	r3, #1
    4004:	607b      	str	r3, [r7, #4]
    4006:	2b07      	cmp	r3, #7
    4008:	dd00      	ble.n	400c <_vfprintf_r+0x998>
    400a:	e3dc      	b.n	47c6 <_vfprintf_r+0x1152>
    400c:	3608      	adds	r6, #8
    400e:	9b1f      	ldr	r3, [sp, #124]	; 0x7c
    4010:	9a14      	ldr	r2, [sp, #80]	; 0x50
    4012:	4293      	cmp	r3, r2
    4014:	db03      	blt.n	401e <_vfprintf_r+0x9aa>
    4016:	9b09      	ldr	r3, [sp, #36]	; 0x24
    4018:	07db      	lsls	r3, r3, #31
    401a:	d400      	bmi.n	401e <_vfprintf_r+0x9aa>
    401c:	e3b7      	b.n	478e <_vfprintf_r+0x111a>
    401e:	9b18      	ldr	r3, [sp, #96]	; 0x60
    4020:	68ba      	ldr	r2, [r7, #8]
    4022:	6033      	str	r3, [r6, #0]
    4024:	9b17      	ldr	r3, [sp, #92]	; 0x5c
    4026:	469c      	mov	ip, r3
    4028:	6073      	str	r3, [r6, #4]
    402a:	687b      	ldr	r3, [r7, #4]
    402c:	4462      	add	r2, ip
    402e:	3301      	adds	r3, #1
    4030:	0014      	movs	r4, r2
    4032:	60ba      	str	r2, [r7, #8]
    4034:	607b      	str	r3, [r7, #4]
    4036:	2b07      	cmp	r3, #7
    4038:	dd01      	ble.n	403e <_vfprintf_r+0x9ca>
    403a:	f000 fc19 	bl	4870 <_vfprintf_r+0x11fc>
    403e:	3608      	adds	r6, #8
    4040:	9b14      	ldr	r3, [sp, #80]	; 0x50
    4042:	1e5d      	subs	r5, r3, #1
    4044:	2d00      	cmp	r5, #0
    4046:	dc00      	bgt.n	404a <_vfprintf_r+0x9d6>
    4048:	e717      	b.n	3e7a <_vfprintf_r+0x806>
    404a:	4a71      	ldr	r2, [pc, #452]	; (4210 <_vfprintf_r+0xb9c>)
    404c:	687b      	ldr	r3, [r7, #4]
    404e:	4691      	mov	r9, r2
    4050:	2d10      	cmp	r5, #16
    4052:	dc00      	bgt.n	4056 <_vfprintf_r+0x9e2>
    4054:	e1c3      	b.n	43de <_vfprintf_r+0xd6a>
    4056:	2210      	movs	r2, #16
    4058:	4690      	mov	r8, r2
    405a:	0022      	movs	r2, r4
    405c:	464c      	mov	r4, r9
    405e:	46d9      	mov	r9, fp
    4060:	e004      	b.n	406c <_vfprintf_r+0x9f8>
    4062:	3608      	adds	r6, #8
    4064:	3d10      	subs	r5, #16
    4066:	2d10      	cmp	r5, #16
    4068:	dc00      	bgt.n	406c <_vfprintf_r+0x9f8>
    406a:	e37c      	b.n	4766 <_vfprintf_r+0x10f2>
    406c:	4641      	mov	r1, r8
    406e:	3210      	adds	r2, #16
    4070:	3301      	adds	r3, #1
    4072:	6034      	str	r4, [r6, #0]
    4074:	6071      	str	r1, [r6, #4]
    4076:	60ba      	str	r2, [r7, #8]
    4078:	607b      	str	r3, [r7, #4]
    407a:	2b07      	cmp	r3, #7
    407c:	ddf1      	ble.n	4062 <_vfprintf_r+0x9ee>
    407e:	003a      	movs	r2, r7
    4080:	4649      	mov	r1, r9
    4082:	9806      	ldr	r0, [sp, #24]
    4084:	f003 fd9a 	bl	7bbc <__sprint_r>
    4088:	2800      	cmp	r0, #0
    408a:	d10b      	bne.n	40a4 <_vfprintf_r+0xa30>
    408c:	68ba      	ldr	r2, [r7, #8]
    408e:	687b      	ldr	r3, [r7, #4]
    4090:	ae32      	add	r6, sp, #200	; 0xc8
    4092:	e7e7      	b.n	4064 <_vfprintf_r+0x9f0>
    4094:	68bb      	ldr	r3, [r7, #8]
    4096:	46d9      	mov	r9, fp
    4098:	2b00      	cmp	r3, #0
    409a:	d001      	beq.n	40a0 <_vfprintf_r+0xa2c>
    409c:	f000 fd4c 	bl	4b38 <_vfprintf_r+0x14c4>
    40a0:	2300      	movs	r3, #0
    40a2:	607b      	str	r3, [r7, #4]
    40a4:	464b      	mov	r3, r9
    40a6:	6e5b      	ldr	r3, [r3, #100]	; 0x64
    40a8:	07db      	lsls	r3, r3, #31
    40aa:	d40d      	bmi.n	40c8 <_vfprintf_r+0xa54>
    40ac:	464b      	mov	r3, r9
    40ae:	899b      	ldrh	r3, [r3, #12]
    40b0:	059a      	lsls	r2, r3, #22
    40b2:	d505      	bpl.n	40c0 <_vfprintf_r+0xa4c>
    40b4:	065b      	lsls	r3, r3, #25
    40b6:	d401      	bmi.n	40bc <_vfprintf_r+0xa48>
    40b8:	f7ff fb8d 	bl	37d6 <_vfprintf_r+0x162>
    40bc:	f7ff fb88 	bl	37d0 <_vfprintf_r+0x15c>
    40c0:	464b      	mov	r3, r9
    40c2:	6d98      	ldr	r0, [r3, #88]	; 0x58
    40c4:	f002 fbb8 	bl	6838 <__retarget_lock_release_recursive>
    40c8:	464b      	mov	r3, r9
    40ca:	899b      	ldrh	r3, [r3, #12]
    40cc:	e7f2      	b.n	40b4 <_vfprintf_r+0xa40>
    40ce:	9b0b      	ldr	r3, [sp, #44]	; 0x2c
    40d0:	9a08      	ldr	r2, [sp, #32]
    40d2:	1a9d      	subs	r5, r3, r2
    40d4:	2d00      	cmp	r5, #0
    40d6:	dc00      	bgt.n	40da <_vfprintf_r+0xa66>
    40d8:	e685      	b.n	3de6 <_vfprintf_r+0x772>
    40da:	4a4d      	ldr	r2, [pc, #308]	; (4210 <_vfprintf_r+0xb9c>)
    40dc:	687b      	ldr	r3, [r7, #4]
    40de:	4691      	mov	r9, r2
    40e0:	2d10      	cmp	r5, #16
    40e2:	dd24      	ble.n	412e <_vfprintf_r+0xaba>
    40e4:	2210      	movs	r2, #16
    40e6:	0021      	movs	r1, r4
    40e8:	4690      	mov	r8, r2
    40ea:	465c      	mov	r4, fp
    40ec:	0032      	movs	r2, r6
    40ee:	464e      	mov	r6, r9
    40f0:	e003      	b.n	40fa <_vfprintf_r+0xa86>
    40f2:	3d10      	subs	r5, #16
    40f4:	3208      	adds	r2, #8
    40f6:	2d10      	cmp	r5, #16
    40f8:	dd15      	ble.n	4126 <_vfprintf_r+0xab2>
    40fa:	4640      	mov	r0, r8
    40fc:	3110      	adds	r1, #16
    40fe:	3301      	adds	r3, #1
    4100:	6016      	str	r6, [r2, #0]
    4102:	6050      	str	r0, [r2, #4]
    4104:	60b9      	str	r1, [r7, #8]
    4106:	607b      	str	r3, [r7, #4]
    4108:	2b07      	cmp	r3, #7
    410a:	ddf2      	ble.n	40f2 <_vfprintf_r+0xa7e>
    410c:	003a      	movs	r2, r7
    410e:	0021      	movs	r1, r4
    4110:	9806      	ldr	r0, [sp, #24]
    4112:	f003 fd53 	bl	7bbc <__sprint_r>
    4116:	2800      	cmp	r0, #0
    4118:	d115      	bne.n	4146 <_vfprintf_r+0xad2>
    411a:	3d10      	subs	r5, #16
    411c:	68b9      	ldr	r1, [r7, #8]
    411e:	687b      	ldr	r3, [r7, #4]
    4120:	aa32      	add	r2, sp, #200	; 0xc8
    4122:	2d10      	cmp	r5, #16
    4124:	dce9      	bgt.n	40fa <_vfprintf_r+0xa86>
    4126:	46a3      	mov	fp, r4
    4128:	46b1      	mov	r9, r6
    412a:	000c      	movs	r4, r1
    412c:	0016      	movs	r6, r2
    412e:	464a      	mov	r2, r9
    4130:	1964      	adds	r4, r4, r5
    4132:	3301      	adds	r3, #1
    4134:	6032      	str	r2, [r6, #0]
    4136:	6075      	str	r5, [r6, #4]
    4138:	60bc      	str	r4, [r7, #8]
    413a:	607b      	str	r3, [r7, #4]
    413c:	2b07      	cmp	r3, #7
    413e:	dd00      	ble.n	4142 <_vfprintf_r+0xace>
    4140:	e263      	b.n	460a <_vfprintf_r+0xf96>
    4142:	3608      	adds	r6, #8
    4144:	e64f      	b.n	3de6 <_vfprintf_r+0x772>
    4146:	46a1      	mov	r9, r4
    4148:	e7ac      	b.n	40a4 <_vfprintf_r+0xa30>
    414a:	2301      	movs	r3, #1
    414c:	9a09      	ldr	r2, [sp, #36]	; 0x24
    414e:	4213      	tst	r3, r2
    4150:	d000      	beq.n	4154 <_vfprintf_r+0xae0>
    4152:	e6f6      	b.n	3f42 <_vfprintf_r+0x8ce>
    4154:	6073      	str	r3, [r6, #4]
    4156:	687b      	ldr	r3, [r7, #4]
    4158:	9a11      	ldr	r2, [sp, #68]	; 0x44
    415a:	3301      	adds	r3, #1
    415c:	3401      	adds	r4, #1
    415e:	6032      	str	r2, [r6, #0]
    4160:	60bc      	str	r4, [r7, #8]
    4162:	4698      	mov	r8, r3
    4164:	607b      	str	r3, [r7, #4]
    4166:	2b07      	cmp	r3, #7
    4168:	dc00      	bgt.n	416c <_vfprintf_r+0xaf8>
    416a:	e71e      	b.n	3faa <_vfprintf_r+0x936>
    416c:	003a      	movs	r2, r7
    416e:	4659      	mov	r1, fp
    4170:	9806      	ldr	r0, [sp, #24]
    4172:	f003 fd23 	bl	7bbc <__sprint_r>
    4176:	2800      	cmp	r0, #0
    4178:	d10c      	bne.n	4194 <_vfprintf_r+0xb20>
    417a:	687b      	ldr	r3, [r7, #4]
    417c:	68bc      	ldr	r4, [r7, #8]
    417e:	4698      	mov	r8, r3
    4180:	ae32      	add	r6, sp, #200	; 0xc8
    4182:	e713      	b.n	3fac <_vfprintf_r+0x938>
    4184:	003a      	movs	r2, r7
    4186:	4659      	mov	r1, fp
    4188:	9806      	ldr	r0, [sp, #24]
    418a:	f003 fd17 	bl	7bbc <__sprint_r>
    418e:	2800      	cmp	r0, #0
    4190:	d100      	bne.n	4194 <_vfprintf_r+0xb20>
    4192:	e6cd      	b.n	3f30 <_vfprintf_r+0x8bc>
    4194:	46d9      	mov	r9, fp
    4196:	e785      	b.n	40a4 <_vfprintf_r+0xa30>
    4198:	9c09      	ldr	r4, [sp, #36]	; 0x24
    419a:	2b01      	cmp	r3, #1
    419c:	d100      	bne.n	41a0 <_vfprintf_r+0xb2c>
    419e:	e148      	b.n	4432 <_vfprintf_r+0xdbe>
    41a0:	2b02      	cmp	r3, #2
    41a2:	d123      	bne.n	41ec <_vfprintf_r+0xb78>
    41a4:	9409      	str	r4, [sp, #36]	; 0x24
    41a6:	2300      	movs	r3, #0
    41a8:	2400      	movs	r4, #0
    41aa:	930c      	str	r3, [sp, #48]	; 0x30
    41ac:	940d      	str	r4, [sp, #52]	; 0x34
    41ae:	e4a1      	b.n	3af4 <_vfprintf_r+0x480>
    41b0:	003a      	movs	r2, r7
    41b2:	4659      	mov	r1, fp
    41b4:	9806      	ldr	r0, [sp, #24]
    41b6:	f003 fd01 	bl	7bbc <__sprint_r>
    41ba:	2800      	cmp	r0, #0
    41bc:	d1ea      	bne.n	4194 <_vfprintf_r+0xb20>
    41be:	68bc      	ldr	r4, [r7, #8]
    41c0:	ae32      	add	r6, sp, #200	; 0xc8
    41c2:	e648      	b.n	3e56 <_vfprintf_r+0x7e2>
    41c4:	003a      	movs	r2, r7
    41c6:	4659      	mov	r1, fp
    41c8:	9806      	ldr	r0, [sp, #24]
    41ca:	f003 fcf7 	bl	7bbc <__sprint_r>
    41ce:	2800      	cmp	r0, #0
    41d0:	d1e0      	bne.n	4194 <_vfprintf_r+0xb20>
    41d2:	68bc      	ldr	r4, [r7, #8]
    41d4:	ae32      	add	r6, sp, #200	; 0xc8
    41d6:	e5f2      	b.n	3dbe <_vfprintf_r+0x74a>
    41d8:	003a      	movs	r2, r7
    41da:	4659      	mov	r1, fp
    41dc:	9806      	ldr	r0, [sp, #24]
    41de:	f003 fced 	bl	7bbc <__sprint_r>
    41e2:	2800      	cmp	r0, #0
    41e4:	d1d6      	bne.n	4194 <_vfprintf_r+0xb20>
    41e6:	68bc      	ldr	r4, [r7, #8]
    41e8:	ae32      	add	r6, sp, #200	; 0xc8
    41ea:	e5f8      	b.n	3dde <_vfprintf_r+0x76a>
    41ec:	9409      	str	r4, [sp, #36]	; 0x24
    41ee:	2300      	movs	r3, #0
    41f0:	2400      	movs	r4, #0
    41f2:	930c      	str	r3, [sp, #48]	; 0x30
    41f4:	940d      	str	r4, [sp, #52]	; 0x34
    41f6:	980c      	ldr	r0, [sp, #48]	; 0x30
    41f8:	990d      	ldr	r1, [sp, #52]	; 0x34
    41fa:	4653      	mov	r3, sl
    41fc:	aa32      	add	r2, sp, #200	; 0xc8
    41fe:	4691      	mov	r9, r2
    4200:	9308      	str	r3, [sp, #32]
    4202:	46b2      	mov	sl, r6
    4204:	e007      	b.n	4216 <_vfprintf_r+0xba2>
    4206:	46c0      	nop			; (mov r8, r8)
    4208:	00008b70 	.word	0x00008b70
    420c:	00008b6c 	.word	0x00008b6c
    4210:	00008b80 	.word	0x00008b80
    4214:	46a1      	mov	r9, r4
    4216:	074a      	lsls	r2, r1, #29
    4218:	4694      	mov	ip, r2
    421a:	464b      	mov	r3, r9
    421c:	4665      	mov	r5, ip
    421e:	1e5c      	subs	r4, r3, #1
    4220:	08c6      	lsrs	r6, r0, #3
    4222:	2307      	movs	r3, #7
    4224:	08ca      	lsrs	r2, r1, #3
    4226:	4335      	orrs	r5, r6
    4228:	0011      	movs	r1, r2
    422a:	002a      	movs	r2, r5
    422c:	4003      	ands	r3, r0
    422e:	3330      	adds	r3, #48	; 0x30
    4230:	7023      	strb	r3, [r4, #0]
    4232:	0028      	movs	r0, r5
    4234:	430a      	orrs	r2, r1
    4236:	d1ed      	bne.n	4214 <_vfprintf_r+0xba0>
    4238:	900c      	str	r0, [sp, #48]	; 0x30
    423a:	910d      	str	r1, [sp, #52]	; 0x34
    423c:	9908      	ldr	r1, [sp, #32]
    423e:	4656      	mov	r6, sl
    4240:	468a      	mov	sl, r1
    4242:	9909      	ldr	r1, [sp, #36]	; 0x24
    4244:	464a      	mov	r2, r9
    4246:	9411      	str	r4, [sp, #68]	; 0x44
    4248:	07c9      	lsls	r1, r1, #31
    424a:	d500      	bpl.n	424e <_vfprintf_r+0xbda>
    424c:	e0e0      	b.n	4410 <_vfprintf_r+0xd9c>
    424e:	ab32      	add	r3, sp, #200	; 0xc8
    4250:	1b1b      	subs	r3, r3, r4
    4252:	930e      	str	r3, [sp, #56]	; 0x38
    4254:	f7ff fb7b 	bl	394e <_vfprintf_r+0x2da>
    4258:	9c07      	ldr	r4, [sp, #28]
    425a:	f7ff fa7d 	bl	3758 <_vfprintf_r+0xe4>
    425e:	981f      	ldr	r0, [sp, #124]	; 0x7c
    4260:	2800      	cmp	r0, #0
    4262:	dc00      	bgt.n	4266 <_vfprintf_r+0xbf2>
    4264:	e2b9      	b.n	47da <_vfprintf_r+0x1166>
    4266:	9a13      	ldr	r2, [sp, #76]	; 0x4c
    4268:	9914      	ldr	r1, [sp, #80]	; 0x50
    426a:	0013      	movs	r3, r2
    426c:	4690      	mov	r8, r2
    426e:	428b      	cmp	r3, r1
    4270:	dd00      	ble.n	4274 <_vfprintf_r+0xc00>
    4272:	4688      	mov	r8, r1
    4274:	4643      	mov	r3, r8
    4276:	2b00      	cmp	r3, #0
    4278:	dd0c      	ble.n	4294 <_vfprintf_r+0xc20>
    427a:	9b11      	ldr	r3, [sp, #68]	; 0x44
    427c:	4444      	add	r4, r8
    427e:	6033      	str	r3, [r6, #0]
    4280:	4643      	mov	r3, r8
    4282:	6073      	str	r3, [r6, #4]
    4284:	687b      	ldr	r3, [r7, #4]
    4286:	60bc      	str	r4, [r7, #8]
    4288:	3301      	adds	r3, #1
    428a:	607b      	str	r3, [r7, #4]
    428c:	2b07      	cmp	r3, #7
    428e:	dd00      	ble.n	4292 <_vfprintf_r+0xc1e>
    4290:	e389      	b.n	49a6 <_vfprintf_r+0x1332>
    4292:	3608      	adds	r6, #8
    4294:	4643      	mov	r3, r8
    4296:	43db      	mvns	r3, r3
    4298:	4642      	mov	r2, r8
    429a:	17db      	asrs	r3, r3, #31
    429c:	4013      	ands	r3, r2
    429e:	9a13      	ldr	r2, [sp, #76]	; 0x4c
    42a0:	1ad3      	subs	r3, r2, r3
    42a2:	4698      	mov	r8, r3
    42a4:	2b00      	cmp	r3, #0
    42a6:	dc00      	bgt.n	42aa <_vfprintf_r+0xc36>
    42a8:	e0eb      	b.n	4482 <_vfprintf_r+0xe0e>
    42aa:	2b10      	cmp	r3, #16
    42ac:	dc01      	bgt.n	42b2 <_vfprintf_r+0xc3e>
    42ae:	f000 fcd9 	bl	4c64 <_vfprintf_r+0x15f0>
    42b2:	4adc      	ldr	r2, [pc, #880]	; (4624 <_vfprintf_r+0xfb0>)
    42b4:	687b      	ldr	r3, [r7, #4]
    42b6:	4691      	mov	r9, r2
    42b8:	2210      	movs	r2, #16
    42ba:	464d      	mov	r5, r9
    42bc:	4692      	mov	sl, r2
    42be:	0022      	movs	r2, r4
    42c0:	4644      	mov	r4, r8
    42c2:	46d8      	mov	r8, fp
    42c4:	e004      	b.n	42d0 <_vfprintf_r+0xc5c>
    42c6:	3608      	adds	r6, #8
    42c8:	3c10      	subs	r4, #16
    42ca:	2c10      	cmp	r4, #16
    42cc:	dc00      	bgt.n	42d0 <_vfprintf_r+0xc5c>
    42ce:	e0bf      	b.n	4450 <_vfprintf_r+0xddc>
    42d0:	4651      	mov	r1, sl
    42d2:	3210      	adds	r2, #16
    42d4:	3301      	adds	r3, #1
    42d6:	6035      	str	r5, [r6, #0]
    42d8:	6071      	str	r1, [r6, #4]
    42da:	60ba      	str	r2, [r7, #8]
    42dc:	607b      	str	r3, [r7, #4]
    42de:	2b07      	cmp	r3, #7
    42e0:	ddf1      	ble.n	42c6 <_vfprintf_r+0xc52>
    42e2:	003a      	movs	r2, r7
    42e4:	4641      	mov	r1, r8
    42e6:	9806      	ldr	r0, [sp, #24]
    42e8:	f003 fc68 	bl	7bbc <__sprint_r>
    42ec:	2800      	cmp	r0, #0
    42ee:	d000      	beq.n	42f2 <_vfprintf_r+0xc7e>
    42f0:	e3b6      	b.n	4a60 <_vfprintf_r+0x13ec>
    42f2:	68ba      	ldr	r2, [r7, #8]
    42f4:	687b      	ldr	r3, [r7, #4]
    42f6:	ae32      	add	r6, sp, #200	; 0xc8
    42f8:	e7e6      	b.n	42c8 <_vfprintf_r+0xc54>
    42fa:	9b0d      	ldr	r3, [sp, #52]	; 0x34
    42fc:	2b00      	cmp	r3, #0
    42fe:	d100      	bne.n	4302 <_vfprintf_r+0xc8e>
    4300:	e092      	b.n	4428 <_vfprintf_r+0xdb4>
    4302:	9c0c      	ldr	r4, [sp, #48]	; 0x30
    4304:	9d0d      	ldr	r5, [sp, #52]	; 0x34
    4306:	ab32      	add	r3, sp, #200	; 0xc8
    4308:	46b1      	mov	r9, r6
    430a:	001e      	movs	r6, r3
    430c:	0020      	movs	r0, r4
    430e:	0029      	movs	r1, r5
    4310:	220a      	movs	r2, #10
    4312:	2300      	movs	r3, #0
    4314:	f7fd fb2c 	bl	1970 <__aeabi_uldivmod>
    4318:	3e01      	subs	r6, #1
    431a:	3230      	adds	r2, #48	; 0x30
    431c:	7032      	strb	r2, [r6, #0]
    431e:	2300      	movs	r3, #0
    4320:	0020      	movs	r0, r4
    4322:	0029      	movs	r1, r5
    4324:	220a      	movs	r2, #10
    4326:	f7fd fb23 	bl	1970 <__aeabi_uldivmod>
    432a:	0003      	movs	r3, r0
    432c:	0004      	movs	r4, r0
    432e:	000d      	movs	r5, r1
    4330:	430b      	orrs	r3, r1
    4332:	d1eb      	bne.n	430c <_vfprintf_r+0xc98>
    4334:	0032      	movs	r2, r6
    4336:	ab32      	add	r3, sp, #200	; 0xc8
    4338:	1a9b      	subs	r3, r3, r2
    433a:	9611      	str	r6, [sp, #68]	; 0x44
    433c:	940c      	str	r4, [sp, #48]	; 0x30
    433e:	950d      	str	r5, [sp, #52]	; 0x34
    4340:	464e      	mov	r6, r9
    4342:	930e      	str	r3, [sp, #56]	; 0x38
    4344:	f7ff fb03 	bl	394e <_vfprintf_r+0x2da>
    4348:	2300      	movs	r3, #0
    434a:	930e      	str	r3, [sp, #56]	; 0x38
    434c:	ab32      	add	r3, sp, #200	; 0xc8
    434e:	9311      	str	r3, [sp, #68]	; 0x44
    4350:	f7ff fafd 	bl	394e <_vfprintf_r+0x2da>
    4354:	003a      	movs	r2, r7
    4356:	4659      	mov	r1, fp
    4358:	9806      	ldr	r0, [sp, #24]
    435a:	f003 fc2f 	bl	7bbc <__sprint_r>
    435e:	2800      	cmp	r0, #0
    4360:	d000      	beq.n	4364 <_vfprintf_r+0xcf0>
    4362:	e717      	b.n	4194 <_vfprintf_r+0xb20>
    4364:	ab16      	add	r3, sp, #88	; 0x58
    4366:	7fdb      	ldrb	r3, [r3, #31]
    4368:	68bc      	ldr	r4, [r7, #8]
    436a:	4698      	mov	r8, r3
    436c:	ae32      	add	r6, sp, #200	; 0xc8
    436e:	e513      	b.n	3d98 <_vfprintf_r+0x724>
    4370:	46b1      	mov	r9, r6
    4372:	e697      	b.n	40a4 <_vfprintf_r+0xa30>
    4374:	9b14      	ldr	r3, [sp, #80]	; 0x50
    4376:	1e5d      	subs	r5, r3, #1
    4378:	2d00      	cmp	r5, #0
    437a:	dc00      	bgt.n	437e <_vfprintf_r+0xd0a>
    437c:	e616      	b.n	3fac <_vfprintf_r+0x938>
    437e:	4ba9      	ldr	r3, [pc, #676]	; (4624 <_vfprintf_r+0xfb0>)
    4380:	4699      	mov	r9, r3
    4382:	2d10      	cmp	r5, #16
    4384:	dc00      	bgt.n	4388 <_vfprintf_r+0xd14>
    4386:	e10a      	b.n	459e <_vfprintf_r+0xf2a>
    4388:	2310      	movs	r3, #16
    438a:	0022      	movs	r2, r4
    438c:	469a      	mov	sl, r3
    438e:	465c      	mov	r4, fp
    4390:	4643      	mov	r3, r8
    4392:	e004      	b.n	439e <_vfprintf_r+0xd2a>
    4394:	3608      	adds	r6, #8
    4396:	3d10      	subs	r5, #16
    4398:	2d10      	cmp	r5, #16
    439a:	dc00      	bgt.n	439e <_vfprintf_r+0xd2a>
    439c:	e0fc      	b.n	4598 <_vfprintf_r+0xf24>
    439e:	4649      	mov	r1, r9
    43a0:	6031      	str	r1, [r6, #0]
    43a2:	4651      	mov	r1, sl
    43a4:	3210      	adds	r2, #16
    43a6:	3301      	adds	r3, #1
    43a8:	6071      	str	r1, [r6, #4]
    43aa:	60ba      	str	r2, [r7, #8]
    43ac:	607b      	str	r3, [r7, #4]
    43ae:	2b07      	cmp	r3, #7
    43b0:	ddf0      	ble.n	4394 <_vfprintf_r+0xd20>
    43b2:	003a      	movs	r2, r7
    43b4:	0021      	movs	r1, r4
    43b6:	9806      	ldr	r0, [sp, #24]
    43b8:	f003 fc00 	bl	7bbc <__sprint_r>
    43bc:	2800      	cmp	r0, #0
    43be:	d000      	beq.n	43c2 <_vfprintf_r+0xd4e>
    43c0:	e6c1      	b.n	4146 <_vfprintf_r+0xad2>
    43c2:	68ba      	ldr	r2, [r7, #8]
    43c4:	687b      	ldr	r3, [r7, #4]
    43c6:	ae32      	add	r6, sp, #200	; 0xc8
    43c8:	e7e5      	b.n	4396 <_vfprintf_r+0xd22>
    43ca:	990c      	ldr	r1, [sp, #48]	; 0x30
    43cc:	9a0d      	ldr	r2, [sp, #52]	; 0x34
    43ce:	0008      	movs	r0, r1
    43d0:	4310      	orrs	r0, r2
    43d2:	2302      	movs	r3, #2
    43d4:	0002      	movs	r2, r0
    43d6:	f7ff fa93 	bl	3900 <_vfprintf_r+0x28c>
    43da:	46a3      	mov	fp, r4
    43dc:	0014      	movs	r4, r2
    43de:	464a      	mov	r2, r9
    43e0:	1964      	adds	r4, r4, r5
    43e2:	3301      	adds	r3, #1
    43e4:	6032      	str	r2, [r6, #0]
    43e6:	6075      	str	r5, [r6, #4]
    43e8:	60bc      	str	r4, [r7, #8]
    43ea:	607b      	str	r3, [r7, #4]
    43ec:	2b07      	cmp	r3, #7
    43ee:	dc00      	bgt.n	43f2 <_vfprintf_r+0xd7e>
    43f0:	e542      	b.n	3e78 <_vfprintf_r+0x804>
    43f2:	e5e8      	b.n	3fc6 <_vfprintf_r+0x952>
    43f4:	9b0f      	ldr	r3, [sp, #60]	; 0x3c
    43f6:	681a      	ldr	r2, [r3, #0]
    43f8:	f7ff fa68 	bl	38cc <_vfprintf_r+0x258>
    43fc:	6813      	ldr	r3, [r2, #0]
    43fe:	9308      	str	r3, [sp, #32]
    4400:	f7ff fb57 	bl	3ab2 <_vfprintf_r+0x43e>
    4404:	9b0f      	ldr	r3, [sp, #60]	; 0x3c
    4406:	681a      	ldr	r2, [r3, #0]
    4408:	e412      	b.n	3c30 <_vfprintf_r+0x5bc>
    440a:	9b0f      	ldr	r3, [sp, #60]	; 0x3c
    440c:	681a      	ldr	r2, [r3, #0]
    440e:	e426      	b.n	3c5e <_vfprintf_r+0x5ea>
    4410:	2b30      	cmp	r3, #48	; 0x30
    4412:	d100      	bne.n	4416 <_vfprintf_r+0xda2>
    4414:	e23c      	b.n	4890 <_vfprintf_r+0x121c>
    4416:	2330      	movs	r3, #48	; 0x30
    4418:	3a02      	subs	r2, #2
    441a:	7013      	strb	r3, [r2, #0]
    441c:	ab32      	add	r3, sp, #200	; 0xc8
    441e:	1a9b      	subs	r3, r3, r2
    4420:	930e      	str	r3, [sp, #56]	; 0x38
    4422:	9211      	str	r2, [sp, #68]	; 0x44
    4424:	f7ff fa93 	bl	394e <_vfprintf_r+0x2da>
    4428:	9b0c      	ldr	r3, [sp, #48]	; 0x30
    442a:	2b09      	cmp	r3, #9
    442c:	d900      	bls.n	4430 <_vfprintf_r+0xdbc>
    442e:	e768      	b.n	4302 <_vfprintf_r+0xc8e>
    4430:	9c09      	ldr	r4, [sp, #36]	; 0x24
    4432:	2227      	movs	r2, #39	; 0x27
    4434:	9b0c      	ldr	r3, [sp, #48]	; 0x30
    4436:	a928      	add	r1, sp, #160	; 0xa0
    4438:	3330      	adds	r3, #48	; 0x30
    443a:	548b      	strb	r3, [r1, r2]
    443c:	2301      	movs	r3, #1
    443e:	aa16      	add	r2, sp, #88	; 0x58
    4440:	4694      	mov	ip, r2
    4442:	930e      	str	r3, [sp, #56]	; 0x38
    4444:	336e      	adds	r3, #110	; 0x6e
    4446:	4463      	add	r3, ip
    4448:	9409      	str	r4, [sp, #36]	; 0x24
    444a:	9311      	str	r3, [sp, #68]	; 0x44
    444c:	f7ff fa7f 	bl	394e <_vfprintf_r+0x2da>
    4450:	46c3      	mov	fp, r8
    4452:	46a9      	mov	r9, r5
    4454:	46a0      	mov	r8, r4
    4456:	0014      	movs	r4, r2
    4458:	464a      	mov	r2, r9
    445a:	6032      	str	r2, [r6, #0]
    445c:	4642      	mov	r2, r8
    445e:	4444      	add	r4, r8
    4460:	3301      	adds	r3, #1
    4462:	6072      	str	r2, [r6, #4]
    4464:	60bc      	str	r4, [r7, #8]
    4466:	607b      	str	r3, [r7, #4]
    4468:	2b07      	cmp	r3, #7
    446a:	dc00      	bgt.n	446e <_vfprintf_r+0xdfa>
    446c:	e18d      	b.n	478a <_vfprintf_r+0x1116>
    446e:	003a      	movs	r2, r7
    4470:	4659      	mov	r1, fp
    4472:	9806      	ldr	r0, [sp, #24]
    4474:	f003 fba2 	bl	7bbc <__sprint_r>
    4478:	2800      	cmp	r0, #0
    447a:	d000      	beq.n	447e <_vfprintf_r+0xe0a>
    447c:	e68a      	b.n	4194 <_vfprintf_r+0xb20>
    447e:	68bc      	ldr	r4, [r7, #8]
    4480:	ae32      	add	r6, sp, #200	; 0xc8
    4482:	9b1f      	ldr	r3, [sp, #124]	; 0x7c
    4484:	9a14      	ldr	r2, [sp, #80]	; 0x50
    4486:	4293      	cmp	r3, r2
    4488:	db00      	blt.n	448c <_vfprintf_r+0xe18>
    448a:	e179      	b.n	4780 <_vfprintf_r+0x110c>
    448c:	9a18      	ldr	r2, [sp, #96]	; 0x60
    448e:	6032      	str	r2, [r6, #0]
    4490:	9a17      	ldr	r2, [sp, #92]	; 0x5c
    4492:	4694      	mov	ip, r2
    4494:	6072      	str	r2, [r6, #4]
    4496:	687a      	ldr	r2, [r7, #4]
    4498:	4464      	add	r4, ip
    449a:	3201      	adds	r2, #1
    449c:	60bc      	str	r4, [r7, #8]
    449e:	607a      	str	r2, [r7, #4]
    44a0:	2a07      	cmp	r2, #7
    44a2:	dd00      	ble.n	44a6 <_vfprintf_r+0xe32>
    44a4:	e176      	b.n	4794 <_vfprintf_r+0x1120>
    44a6:	3608      	adds	r6, #8
    44a8:	9a14      	ldr	r2, [sp, #80]	; 0x50
    44aa:	9913      	ldr	r1, [sp, #76]	; 0x4c
    44ac:	1ad3      	subs	r3, r2, r3
    44ae:	1a52      	subs	r2, r2, r1
    44b0:	4690      	mov	r8, r2
    44b2:	429a      	cmp	r2, r3
    44b4:	dd00      	ble.n	44b8 <_vfprintf_r+0xe44>
    44b6:	4698      	mov	r8, r3
    44b8:	4642      	mov	r2, r8
    44ba:	2a00      	cmp	r2, #0
    44bc:	dd0f      	ble.n	44de <_vfprintf_r+0xe6a>
    44be:	9913      	ldr	r1, [sp, #76]	; 0x4c
    44c0:	9a11      	ldr	r2, [sp, #68]	; 0x44
    44c2:	468c      	mov	ip, r1
    44c4:	4462      	add	r2, ip
    44c6:	6032      	str	r2, [r6, #0]
    44c8:	4642      	mov	r2, r8
    44ca:	6072      	str	r2, [r6, #4]
    44cc:	687a      	ldr	r2, [r7, #4]
    44ce:	4444      	add	r4, r8
    44d0:	3201      	adds	r2, #1
    44d2:	60bc      	str	r4, [r7, #8]
    44d4:	607a      	str	r2, [r7, #4]
    44d6:	2a07      	cmp	r2, #7
    44d8:	dd00      	ble.n	44dc <_vfprintf_r+0xe68>
    44da:	e289      	b.n	49f0 <_vfprintf_r+0x137c>
    44dc:	3608      	adds	r6, #8
    44de:	4642      	mov	r2, r8
    44e0:	43d5      	mvns	r5, r2
    44e2:	17ed      	asrs	r5, r5, #31
    44e4:	4015      	ands	r5, r2
    44e6:	1b5d      	subs	r5, r3, r5
    44e8:	2d00      	cmp	r5, #0
    44ea:	dc00      	bgt.n	44ee <_vfprintf_r+0xe7a>
    44ec:	e4c5      	b.n	3e7a <_vfprintf_r+0x806>
    44ee:	4a4d      	ldr	r2, [pc, #308]	; (4624 <_vfprintf_r+0xfb0>)
    44f0:	687b      	ldr	r3, [r7, #4]
    44f2:	4691      	mov	r9, r2
    44f4:	2d10      	cmp	r5, #16
    44f6:	dc00      	bgt.n	44fa <_vfprintf_r+0xe86>
    44f8:	e771      	b.n	43de <_vfprintf_r+0xd6a>
    44fa:	2210      	movs	r2, #16
    44fc:	4690      	mov	r8, r2
    44fe:	0022      	movs	r2, r4
    4500:	465c      	mov	r4, fp
    4502:	e004      	b.n	450e <_vfprintf_r+0xe9a>
    4504:	3608      	adds	r6, #8
    4506:	3d10      	subs	r5, #16
    4508:	2d10      	cmp	r5, #16
    450a:	dc00      	bgt.n	450e <_vfprintf_r+0xe9a>
    450c:	e765      	b.n	43da <_vfprintf_r+0xd66>
    450e:	4649      	mov	r1, r9
    4510:	6031      	str	r1, [r6, #0]
    4512:	4641      	mov	r1, r8
    4514:	3210      	adds	r2, #16
    4516:	3301      	adds	r3, #1
    4518:	6071      	str	r1, [r6, #4]
    451a:	60ba      	str	r2, [r7, #8]
    451c:	607b      	str	r3, [r7, #4]
    451e:	2b07      	cmp	r3, #7
    4520:	ddf0      	ble.n	4504 <_vfprintf_r+0xe90>
    4522:	003a      	movs	r2, r7
    4524:	0021      	movs	r1, r4
    4526:	9806      	ldr	r0, [sp, #24]
    4528:	f003 fb48 	bl	7bbc <__sprint_r>
    452c:	2800      	cmp	r0, #0
    452e:	d000      	beq.n	4532 <_vfprintf_r+0xebe>
    4530:	e609      	b.n	4146 <_vfprintf_r+0xad2>
    4532:	68ba      	ldr	r2, [r7, #8]
    4534:	687b      	ldr	r3, [r7, #4]
    4536:	ae32      	add	r6, sp, #200	; 0xc8
    4538:	e7e5      	b.n	4506 <_vfprintf_r+0xe92>
    453a:	003a      	movs	r2, r7
    453c:	4659      	mov	r1, fp
    453e:	9806      	ldr	r0, [sp, #24]
    4540:	f003 fb3c 	bl	7bbc <__sprint_r>
    4544:	2800      	cmp	r0, #0
    4546:	d000      	beq.n	454a <_vfprintf_r+0xed6>
    4548:	e624      	b.n	4194 <_vfprintf_r+0xb20>
    454a:	68bc      	ldr	r4, [r7, #8]
    454c:	687b      	ldr	r3, [r7, #4]
    454e:	ae32      	add	r6, sp, #200	; 0xc8
    4550:	e504      	b.n	3f5c <_vfprintf_r+0x8e8>
    4552:	2307      	movs	r3, #7
    4554:	3207      	adds	r2, #7
    4556:	439a      	bics	r2, r3
    4558:	3301      	adds	r3, #1
    455a:	469c      	mov	ip, r3
    455c:	4494      	add	ip, r2
    455e:	4663      	mov	r3, ip
    4560:	930f      	str	r3, [sp, #60]	; 0x3c
    4562:	6853      	ldr	r3, [r2, #4]
    4564:	6812      	ldr	r2, [r2, #0]
    4566:	930d      	str	r3, [sp, #52]	; 0x34
    4568:	920c      	str	r2, [sp, #48]	; 0x30
    456a:	f7ff faa7 	bl	3abc <_vfprintf_r+0x448>
    456e:	2207      	movs	r2, #7
    4570:	9b0f      	ldr	r3, [sp, #60]	; 0x3c
    4572:	3307      	adds	r3, #7
    4574:	4393      	bics	r3, r2
    4576:	3201      	adds	r2, #1
    4578:	4694      	mov	ip, r2
    457a:	449c      	add	ip, r3
    457c:	4662      	mov	r2, ip
    457e:	920f      	str	r2, [sp, #60]	; 0x3c
    4580:	681a      	ldr	r2, [r3, #0]
    4582:	685b      	ldr	r3, [r3, #4]
    4584:	0011      	movs	r1, r2
    4586:	001a      	movs	r2, r3
    4588:	0008      	movs	r0, r1
    458a:	4310      	orrs	r0, r2
    458c:	910c      	str	r1, [sp, #48]	; 0x30
    458e:	920d      	str	r2, [sp, #52]	; 0x34
    4590:	2300      	movs	r3, #0
    4592:	0002      	movs	r2, r0
    4594:	f7ff f9b4 	bl	3900 <_vfprintf_r+0x28c>
    4598:	46a3      	mov	fp, r4
    459a:	4698      	mov	r8, r3
    459c:	0014      	movs	r4, r2
    459e:	464b      	mov	r3, r9
    45a0:	6075      	str	r5, [r6, #4]
    45a2:	6033      	str	r3, [r6, #0]
    45a4:	1964      	adds	r4, r4, r5
    45a6:	e4f7      	b.n	3f98 <_vfprintf_r+0x924>
    45a8:	003a      	movs	r2, r7
    45aa:	4659      	mov	r1, fp
    45ac:	9806      	ldr	r0, [sp, #24]
    45ae:	f003 fb05 	bl	7bbc <__sprint_r>
    45b2:	2800      	cmp	r0, #0
    45b4:	d000      	beq.n	45b8 <_vfprintf_r+0xf44>
    45b6:	e5ed      	b.n	4194 <_vfprintf_r+0xb20>
    45b8:	687b      	ldr	r3, [r7, #4]
    45ba:	68bc      	ldr	r4, [r7, #8]
    45bc:	4698      	mov	r8, r3
    45be:	ae32      	add	r6, sp, #200	; 0xc8
    45c0:	e4da      	b.n	3f78 <_vfprintf_r+0x904>
    45c2:	2207      	movs	r2, #7
    45c4:	9b0f      	ldr	r3, [sp, #60]	; 0x3c
    45c6:	3307      	adds	r3, #7
    45c8:	4393      	bics	r3, r2
    45ca:	3201      	adds	r2, #1
    45cc:	4694      	mov	ip, r2
    45ce:	449c      	add	ip, r3
    45d0:	4662      	mov	r2, ip
    45d2:	920f      	str	r2, [sp, #60]	; 0x3c
    45d4:	681a      	ldr	r2, [r3, #0]
    45d6:	685b      	ldr	r3, [r3, #4]
    45d8:	0011      	movs	r1, r2
    45da:	001a      	movs	r2, r3
    45dc:	0008      	movs	r0, r1
    45de:	4310      	orrs	r0, r2
    45e0:	910c      	str	r1, [sp, #48]	; 0x30
    45e2:	920d      	str	r2, [sp, #52]	; 0x34
    45e4:	2301      	movs	r3, #1
    45e6:	0002      	movs	r2, r0
    45e8:	f7ff f98a 	bl	3900 <_vfprintf_r+0x28c>
    45ec:	2207      	movs	r2, #7
    45ee:	9b0f      	ldr	r3, [sp, #60]	; 0x3c
    45f0:	3307      	adds	r3, #7
    45f2:	4393      	bics	r3, r2
    45f4:	3201      	adds	r2, #1
    45f6:	4694      	mov	ip, r2
    45f8:	449c      	add	ip, r3
    45fa:	4662      	mov	r2, ip
    45fc:	920f      	str	r2, [sp, #60]	; 0x3c
    45fe:	681a      	ldr	r2, [r3, #0]
    4600:	685b      	ldr	r3, [r3, #4]
    4602:	920c      	str	r2, [sp, #48]	; 0x30
    4604:	930d      	str	r3, [sp, #52]	; 0x34
    4606:	f7ff f966 	bl	38d6 <_vfprintf_r+0x262>
    460a:	003a      	movs	r2, r7
    460c:	4659      	mov	r1, fp
    460e:	9806      	ldr	r0, [sp, #24]
    4610:	f003 fad4 	bl	7bbc <__sprint_r>
    4614:	2800      	cmp	r0, #0
    4616:	d000      	beq.n	461a <_vfprintf_r+0xfa6>
    4618:	e5bc      	b.n	4194 <_vfprintf_r+0xb20>
    461a:	68bc      	ldr	r4, [r7, #8]
    461c:	ae32      	add	r6, sp, #200	; 0xc8
    461e:	f7ff fbe2 	bl	3de6 <_vfprintf_r+0x772>
    4622:	46c0      	nop			; (mov r8, r8)
    4624:	00008b80 	.word	0x00008b80
    4628:	980c      	ldr	r0, [sp, #48]	; 0x30
    462a:	990d      	ldr	r1, [sp, #52]	; 0x34
    462c:	2300      	movs	r3, #0
    462e:	4242      	negs	r2, r0
    4630:	418b      	sbcs	r3, r1
    4632:	0011      	movs	r1, r2
    4634:	001a      	movs	r2, r3
    4636:	232d      	movs	r3, #45	; 0x2d
    4638:	a816      	add	r0, sp, #88	; 0x58
    463a:	77c3      	strb	r3, [r0, #31]
    463c:	0008      	movs	r0, r1
    463e:	4310      	orrs	r0, r2
    4640:	910c      	str	r1, [sp, #48]	; 0x30
    4642:	920d      	str	r2, [sp, #52]	; 0x34
    4644:	4698      	mov	r8, r3
    4646:	0002      	movs	r2, r0
    4648:	3b2c      	subs	r3, #44	; 0x2c
    464a:	f7ff f95d 	bl	3908 <_vfprintf_r+0x294>
    464e:	9916      	ldr	r1, [sp, #88]	; 0x58
    4650:	9d15      	ldr	r5, [sp, #84]	; 0x54
    4652:	000a      	movs	r2, r1
    4654:	0008      	movs	r0, r1
    4656:	002b      	movs	r3, r5
    4658:	0029      	movs	r1, r5
    465a:	f004 f87f 	bl	875c <__aeabi_dcmpun>
    465e:	2800      	cmp	r0, #0
    4660:	d000      	beq.n	4664 <_vfprintf_r+0xff0>
    4662:	e2c6      	b.n	4bf2 <_vfprintf_r+0x157e>
    4664:	4653      	mov	r3, sl
    4666:	3301      	adds	r3, #1
    4668:	d100      	bne.n	466c <_vfprintf_r+0xff8>
    466a:	e09f      	b.n	47ac <_vfprintf_r+0x1138>
    466c:	2320      	movs	r3, #32
    466e:	9a12      	ldr	r2, [sp, #72]	; 0x48
    4670:	439a      	bics	r2, r3
    4672:	920e      	str	r2, [sp, #56]	; 0x38
    4674:	2a47      	cmp	r2, #71	; 0x47
    4676:	d100      	bne.n	467a <_vfprintf_r+0x1006>
    4678:	e1a1      	b.n	49be <_vfprintf_r+0x134a>
    467a:	2380      	movs	r3, #128	; 0x80
    467c:	005b      	lsls	r3, r3, #1
    467e:	4323      	orrs	r3, r4
    4680:	9309      	str	r3, [sp, #36]	; 0x24
    4682:	9b15      	ldr	r3, [sp, #84]	; 0x54
    4684:	2b00      	cmp	r3, #0
    4686:	da00      	bge.n	468a <_vfprintf_r+0x1016>
    4688:	e1ed      	b.n	4a66 <_vfprintf_r+0x13f2>
    468a:	9a16      	ldr	r2, [sp, #88]	; 0x58
    468c:	9308      	str	r3, [sp, #32]
    468e:	2300      	movs	r3, #0
    4690:	4691      	mov	r9, r2
    4692:	9310      	str	r3, [sp, #64]	; 0x40
    4694:	9b12      	ldr	r3, [sp, #72]	; 0x48
    4696:	2b66      	cmp	r3, #102	; 0x66
    4698:	d100      	bne.n	469c <_vfprintf_r+0x1028>
    469a:	e1b8      	b.n	4a0e <_vfprintf_r+0x139a>
    469c:	2b46      	cmp	r3, #70	; 0x46
    469e:	d100      	bne.n	46a2 <_vfprintf_r+0x102e>
    46a0:	e237      	b.n	4b12 <_vfprintf_r+0x149e>
    46a2:	9a0e      	ldr	r2, [sp, #56]	; 0x38
    46a4:	9806      	ldr	r0, [sp, #24]
    46a6:	3a45      	subs	r2, #69	; 0x45
    46a8:	0013      	movs	r3, r2
    46aa:	4259      	negs	r1, r3
    46ac:	4159      	adcs	r1, r3
    46ae:	ab20      	add	r3, sp, #128	; 0x80
    46b0:	000d      	movs	r5, r1
    46b2:	9303      	str	r3, [sp, #12]
    46b4:	ab1f      	add	r3, sp, #124	; 0x7c
    46b6:	9302      	str	r3, [sp, #8]
    46b8:	2302      	movs	r3, #2
    46ba:	aa23      	add	r2, sp, #140	; 0x8c
    46bc:	4455      	add	r5, sl
    46be:	921b      	str	r2, [sp, #108]	; 0x6c
    46c0:	9204      	str	r2, [sp, #16]
    46c2:	9300      	str	r3, [sp, #0]
    46c4:	9501      	str	r5, [sp, #4]
    46c6:	9b08      	ldr	r3, [sp, #32]
    46c8:	464a      	mov	r2, r9
    46ca:	f000 fcab 	bl	5024 <_dtoa_r>
    46ce:	9b12      	ldr	r3, [sp, #72]	; 0x48
    46d0:	9011      	str	r0, [sp, #68]	; 0x44
    46d2:	2b67      	cmp	r3, #103	; 0x67
    46d4:	d000      	beq.n	46d8 <_vfprintf_r+0x1064>
    46d6:	e20b      	b.n	4af0 <_vfprintf_r+0x147c>
    46d8:	9b11      	ldr	r3, [sp, #68]	; 0x44
    46da:	4698      	mov	r8, r3
    46dc:	44a8      	add	r8, r5
    46de:	07e3      	lsls	r3, r4, #31
    46e0:	d400      	bmi.n	46e4 <_vfprintf_r+0x1070>
    46e2:	e277      	b.n	4bd4 <_vfprintf_r+0x1560>
    46e4:	2300      	movs	r3, #0
    46e6:	2200      	movs	r2, #0
    46e8:	4648      	mov	r0, r9
    46ea:	9908      	ldr	r1, [sp, #32]
    46ec:	f7fe fc84 	bl	2ff8 <__aeabi_dcmpeq>
    46f0:	4643      	mov	r3, r8
    46f2:	2800      	cmp	r0, #0
    46f4:	d10a      	bne.n	470c <_vfprintf_r+0x1098>
    46f6:	9b23      	ldr	r3, [sp, #140]	; 0x8c
    46f8:	4543      	cmp	r3, r8
    46fa:	d207      	bcs.n	470c <_vfprintf_r+0x1098>
    46fc:	2130      	movs	r1, #48	; 0x30
    46fe:	4640      	mov	r0, r8
    4700:	1c5a      	adds	r2, r3, #1
    4702:	9223      	str	r2, [sp, #140]	; 0x8c
    4704:	7019      	strb	r1, [r3, #0]
    4706:	9b23      	ldr	r3, [sp, #140]	; 0x8c
    4708:	4298      	cmp	r0, r3
    470a:	d8f9      	bhi.n	4700 <_vfprintf_r+0x108c>
    470c:	9a11      	ldr	r2, [sp, #68]	; 0x44
    470e:	1a9b      	subs	r3, r3, r2
    4710:	9314      	str	r3, [sp, #80]	; 0x50
    4712:	9b0e      	ldr	r3, [sp, #56]	; 0x38
    4714:	2b47      	cmp	r3, #71	; 0x47
    4716:	d100      	bne.n	471a <_vfprintf_r+0x10a6>
    4718:	e0d0      	b.n	48bc <_vfprintf_r+0x1248>
    471a:	9b12      	ldr	r3, [sp, #72]	; 0x48
    471c:	2b65      	cmp	r3, #101	; 0x65
    471e:	dc00      	bgt.n	4722 <_vfprintf_r+0x10ae>
    4720:	e2d5      	b.n	4cce <_vfprintf_r+0x165a>
    4722:	9b12      	ldr	r3, [sp, #72]	; 0x48
    4724:	2b66      	cmp	r3, #102	; 0x66
    4726:	d100      	bne.n	472a <_vfprintf_r+0x10b6>
    4728:	e1c6      	b.n	4ab8 <_vfprintf_r+0x1444>
    472a:	9b1f      	ldr	r3, [sp, #124]	; 0x7c
    472c:	9313      	str	r3, [sp, #76]	; 0x4c
    472e:	9b14      	ldr	r3, [sp, #80]	; 0x50
    4730:	9a13      	ldr	r2, [sp, #76]	; 0x4c
    4732:	0019      	movs	r1, r3
    4734:	4291      	cmp	r1, r2
    4736:	dd00      	ble.n	473a <_vfprintf_r+0x10c6>
    4738:	e1a0      	b.n	4a7c <_vfprintf_r+0x1408>
    473a:	07e3      	lsls	r3, r4, #31
    473c:	d500      	bpl.n	4740 <_vfprintf_r+0x10cc>
    473e:	e242      	b.n	4bc6 <_vfprintf_r+0x1552>
    4740:	43d3      	mvns	r3, r2
    4742:	17db      	asrs	r3, r3, #31
    4744:	0011      	movs	r1, r2
    4746:	401a      	ands	r2, r3
    4748:	2367      	movs	r3, #103	; 0x67
    474a:	9208      	str	r2, [sp, #32]
    474c:	910e      	str	r1, [sp, #56]	; 0x38
    474e:	9312      	str	r3, [sp, #72]	; 0x48
    4750:	9b10      	ldr	r3, [sp, #64]	; 0x40
    4752:	2b00      	cmp	r3, #0
    4754:	d000      	beq.n	4758 <_vfprintf_r+0x10e4>
    4756:	e0a9      	b.n	48ac <_vfprintf_r+0x1238>
    4758:	ab16      	add	r3, sp, #88	; 0x58
    475a:	7fdb      	ldrb	r3, [r3, #31]
    475c:	4698      	mov	r8, r3
    475e:	2300      	movs	r3, #0
    4760:	469a      	mov	sl, r3
    4762:	f7ff f8fc 	bl	395e <_vfprintf_r+0x2ea>
    4766:	46cb      	mov	fp, r9
    4768:	46a1      	mov	r9, r4
    476a:	0014      	movs	r4, r2
    476c:	e637      	b.n	43de <_vfprintf_r+0xd6a>
    476e:	464b      	mov	r3, r9
    4770:	6d98      	ldr	r0, [r3, #88]	; 0x58
    4772:	f002 f861 	bl	6838 <__retarget_lock_release_recursive>
    4776:	2301      	movs	r3, #1
    4778:	425b      	negs	r3, r3
    477a:	930a      	str	r3, [sp, #40]	; 0x28
    477c:	f7ff f82b 	bl	37d6 <_vfprintf_r+0x162>
    4780:	9a09      	ldr	r2, [sp, #36]	; 0x24
    4782:	07d2      	lsls	r2, r2, #31
    4784:	d400      	bmi.n	4788 <_vfprintf_r+0x1114>
    4786:	e68f      	b.n	44a8 <_vfprintf_r+0xe34>
    4788:	e680      	b.n	448c <_vfprintf_r+0xe18>
    478a:	3608      	adds	r6, #8
    478c:	e679      	b.n	4482 <_vfprintf_r+0xe0e>
    478e:	68bc      	ldr	r4, [r7, #8]
    4790:	f7ff fb73 	bl	3e7a <_vfprintf_r+0x806>
    4794:	003a      	movs	r2, r7
    4796:	4659      	mov	r1, fp
    4798:	9806      	ldr	r0, [sp, #24]
    479a:	f003 fa0f 	bl	7bbc <__sprint_r>
    479e:	2800      	cmp	r0, #0
    47a0:	d000      	beq.n	47a4 <_vfprintf_r+0x1130>
    47a2:	e4f7      	b.n	4194 <_vfprintf_r+0xb20>
    47a4:	9b1f      	ldr	r3, [sp, #124]	; 0x7c
    47a6:	68bc      	ldr	r4, [r7, #8]
    47a8:	ae32      	add	r6, sp, #200	; 0xc8
    47aa:	e67d      	b.n	44a8 <_vfprintf_r+0xe34>
    47ac:	2320      	movs	r3, #32
    47ae:	9a12      	ldr	r2, [sp, #72]	; 0x48
    47b0:	439a      	bics	r2, r3
    47b2:	3b1a      	subs	r3, #26
    47b4:	920e      	str	r2, [sp, #56]	; 0x38
    47b6:	469a      	mov	sl, r3
    47b8:	e75f      	b.n	467a <_vfprintf_r+0x1006>
    47ba:	232d      	movs	r3, #45	; 0x2d
    47bc:	aa16      	add	r2, sp, #88	; 0x58
    47be:	77d3      	strb	r3, [r2, #31]
    47c0:	4698      	mov	r8, r3
    47c2:	f7ff faa8 	bl	3d16 <_vfprintf_r+0x6a2>
    47c6:	003a      	movs	r2, r7
    47c8:	4659      	mov	r1, fp
    47ca:	9806      	ldr	r0, [sp, #24]
    47cc:	f003 f9f6 	bl	7bbc <__sprint_r>
    47d0:	2800      	cmp	r0, #0
    47d2:	d000      	beq.n	47d6 <_vfprintf_r+0x1162>
    47d4:	e4de      	b.n	4194 <_vfprintf_r+0xb20>
    47d6:	ae32      	add	r6, sp, #200	; 0xc8
    47d8:	e419      	b.n	400e <_vfprintf_r+0x99a>
    47da:	4be3      	ldr	r3, [pc, #908]	; (4b68 <_vfprintf_r+0x14f4>)
    47dc:	3401      	adds	r4, #1
    47de:	6033      	str	r3, [r6, #0]
    47e0:	2301      	movs	r3, #1
    47e2:	6073      	str	r3, [r6, #4]
    47e4:	687b      	ldr	r3, [r7, #4]
    47e6:	60bc      	str	r4, [r7, #8]
    47e8:	3301      	adds	r3, #1
    47ea:	607b      	str	r3, [r7, #4]
    47ec:	2b07      	cmp	r3, #7
    47ee:	dd00      	ble.n	47f2 <_vfprintf_r+0x117e>
    47f0:	e155      	b.n	4a9e <_vfprintf_r+0x142a>
    47f2:	3608      	adds	r6, #8
    47f4:	2800      	cmp	r0, #0
    47f6:	d107      	bne.n	4808 <_vfprintf_r+0x1194>
    47f8:	9b14      	ldr	r3, [sp, #80]	; 0x50
    47fa:	2b00      	cmp	r3, #0
    47fc:	d104      	bne.n	4808 <_vfprintf_r+0x1194>
    47fe:	9b09      	ldr	r3, [sp, #36]	; 0x24
    4800:	07db      	lsls	r3, r3, #31
    4802:	d401      	bmi.n	4808 <_vfprintf_r+0x1194>
    4804:	f7ff fb39 	bl	3e7a <_vfprintf_r+0x806>
    4808:	9b18      	ldr	r3, [sp, #96]	; 0x60
    480a:	6033      	str	r3, [r6, #0]
    480c:	9b17      	ldr	r3, [sp, #92]	; 0x5c
    480e:	1919      	adds	r1, r3, r4
    4810:	6073      	str	r3, [r6, #4]
    4812:	687b      	ldr	r3, [r7, #4]
    4814:	60b9      	str	r1, [r7, #8]
    4816:	3301      	adds	r3, #1
    4818:	607b      	str	r3, [r7, #4]
    481a:	2b07      	cmp	r3, #7
    481c:	dd00      	ble.n	4820 <_vfprintf_r+0x11ac>
    481e:	e1c4      	b.n	4baa <_vfprintf_r+0x1536>
    4820:	0032      	movs	r2, r6
    4822:	3208      	adds	r2, #8
    4824:	2800      	cmp	r0, #0
    4826:	da00      	bge.n	482a <_vfprintf_r+0x11b6>
    4828:	e195      	b.n	4b56 <_vfprintf_r+0x14e2>
    482a:	9811      	ldr	r0, [sp, #68]	; 0x44
    482c:	3301      	adds	r3, #1
    482e:	6010      	str	r0, [r2, #0]
    4830:	9814      	ldr	r0, [sp, #80]	; 0x50
    4832:	607b      	str	r3, [r7, #4]
    4834:	1844      	adds	r4, r0, r1
    4836:	6050      	str	r0, [r2, #4]
    4838:	60bc      	str	r4, [r7, #8]
    483a:	2b07      	cmp	r3, #7
    483c:	dd01      	ble.n	4842 <_vfprintf_r+0x11ce>
    483e:	f7ff fbc2 	bl	3fc6 <_vfprintf_r+0x952>
    4842:	3208      	adds	r2, #8
    4844:	0016      	movs	r6, r2
    4846:	f7ff fb18 	bl	3e7a <_vfprintf_r+0x806>
    484a:	990f      	ldr	r1, [sp, #60]	; 0x3c
    484c:	9a0a      	ldr	r2, [sp, #40]	; 0x28
    484e:	680b      	ldr	r3, [r1, #0]
    4850:	601a      	str	r2, [r3, #0]
    4852:	17d2      	asrs	r2, r2, #31
    4854:	605a      	str	r2, [r3, #4]
    4856:	000b      	movs	r3, r1
    4858:	3304      	adds	r3, #4
    485a:	930f      	str	r3, [sp, #60]	; 0x3c
    485c:	f7fe ff58 	bl	3710 <_vfprintf_r+0x9c>
    4860:	464b      	mov	r3, r9
    4862:	9a07      	ldr	r2, [sp, #28]
    4864:	431c      	orrs	r4, r3
    4866:	3201      	adds	r2, #1
    4868:	7813      	ldrb	r3, [r2, #0]
    486a:	9207      	str	r2, [sp, #28]
    486c:	f7fe ff8b 	bl	3786 <_vfprintf_r+0x112>
    4870:	003a      	movs	r2, r7
    4872:	4659      	mov	r1, fp
    4874:	9806      	ldr	r0, [sp, #24]
    4876:	f003 f9a1 	bl	7bbc <__sprint_r>
    487a:	2800      	cmp	r0, #0
    487c:	d000      	beq.n	4880 <_vfprintf_r+0x120c>
    487e:	e489      	b.n	4194 <_vfprintf_r+0xb20>
    4880:	68bc      	ldr	r4, [r7, #8]
    4882:	ae32      	add	r6, sp, #200	; 0xc8
    4884:	f7ff fbdc 	bl	4040 <_vfprintf_r+0x9cc>
    4888:	4bb8      	ldr	r3, [pc, #736]	; (4b6c <_vfprintf_r+0x14f8>)
    488a:	9311      	str	r3, [sp, #68]	; 0x44
    488c:	f7ff fa4a 	bl	3d24 <_vfprintf_r+0x6b0>
    4890:	9a11      	ldr	r2, [sp, #68]	; 0x44
    4892:	ab32      	add	r3, sp, #200	; 0xc8
    4894:	1a9b      	subs	r3, r3, r2
    4896:	930e      	str	r3, [sp, #56]	; 0x38
    4898:	f7ff f859 	bl	394e <_vfprintf_r+0x2da>
    489c:	9811      	ldr	r0, [sp, #68]	; 0x44
    489e:	f7fe feb7 	bl	3610 <strlen>
    48a2:	0002      	movs	r2, r0
    48a4:	900e      	str	r0, [sp, #56]	; 0x38
    48a6:	0003      	movs	r3, r0
    48a8:	f7ff f9a1 	bl	3bee <_vfprintf_r+0x57a>
    48ac:	232d      	movs	r3, #45	; 0x2d
    48ae:	aa16      	add	r2, sp, #88	; 0x58
    48b0:	77d3      	strb	r3, [r2, #31]
    48b2:	4698      	mov	r8, r3
    48b4:	2300      	movs	r3, #0
    48b6:	469a      	mov	sl, r3
    48b8:	f7ff f854 	bl	3964 <_vfprintf_r+0x2f0>
    48bc:	9b1f      	ldr	r3, [sp, #124]	; 0x7c
    48be:	9313      	str	r3, [sp, #76]	; 0x4c
    48c0:	1cda      	adds	r2, r3, #3
    48c2:	db02      	blt.n	48ca <_vfprintf_r+0x1256>
    48c4:	459a      	cmp	sl, r3
    48c6:	db00      	blt.n	48ca <_vfprintf_r+0x1256>
    48c8:	e731      	b.n	472e <_vfprintf_r+0x10ba>
    48ca:	9b12      	ldr	r3, [sp, #72]	; 0x48
    48cc:	3b02      	subs	r3, #2
    48ce:	9312      	str	r3, [sp, #72]	; 0x48
    48d0:	222c      	movs	r2, #44	; 0x2c
    48d2:	9b13      	ldr	r3, [sp, #76]	; 0x4c
    48d4:	2148      	movs	r1, #72	; 0x48
    48d6:	1e5d      	subs	r5, r3, #1
    48d8:	ab16      	add	r3, sp, #88	; 0x58
    48da:	189b      	adds	r3, r3, r2
    48dc:	466a      	mov	r2, sp
    48de:	1852      	adds	r2, r2, r1
    48e0:	7812      	ldrb	r2, [r2, #0]
    48e2:	951f      	str	r5, [sp, #124]	; 0x7c
    48e4:	701a      	strb	r2, [r3, #0]
    48e6:	2d00      	cmp	r5, #0
    48e8:	da00      	bge.n	48ec <_vfprintf_r+0x1278>
    48ea:	e1cb      	b.n	4c84 <_vfprintf_r+0x1610>
    48ec:	212d      	movs	r1, #45	; 0x2d
    48ee:	232b      	movs	r3, #43	; 0x2b
    48f0:	aa16      	add	r2, sp, #88	; 0x58
    48f2:	1852      	adds	r2, r2, r1
    48f4:	7013      	strb	r3, [r2, #0]
    48f6:	2d09      	cmp	r5, #9
    48f8:	dc00      	bgt.n	48fc <_vfprintf_r+0x1288>
    48fa:	e16d      	b.n	4bd8 <_vfprintf_r+0x1564>
    48fc:	aa16      	add	r2, sp, #88	; 0x58
    48fe:	233b      	movs	r3, #59	; 0x3b
    4900:	4694      	mov	ip, r2
    4902:	4463      	add	r3, ip
    4904:	469a      	mov	sl, r3
    4906:	46b1      	mov	r9, r6
    4908:	46a0      	mov	r8, r4
    490a:	4656      	mov	r6, sl
    490c:	e000      	b.n	4910 <_vfprintf_r+0x129c>
    490e:	0026      	movs	r6, r4
    4910:	0028      	movs	r0, r5
    4912:	210a      	movs	r1, #10
    4914:	f7fd f826 	bl	1964 <__aeabi_idivmod>
    4918:	1e74      	subs	r4, r6, #1
    491a:	3130      	adds	r1, #48	; 0x30
    491c:	7021      	strb	r1, [r4, #0]
    491e:	0028      	movs	r0, r5
    4920:	210a      	movs	r1, #10
    4922:	f7fc ff39 	bl	1798 <__divsi3>
    4926:	0005      	movs	r5, r0
    4928:	2809      	cmp	r0, #9
    492a:	dcf0      	bgt.n	490e <_vfprintf_r+0x129a>
    492c:	0023      	movs	r3, r4
    492e:	4644      	mov	r4, r8
    4930:	46b0      	mov	r8, r6
    4932:	464e      	mov	r6, r9
    4934:	4699      	mov	r9, r3
    4936:	0003      	movs	r3, r0
    4938:	3330      	adds	r3, #48	; 0x30
    493a:	b2d8      	uxtb	r0, r3
    493c:	4643      	mov	r3, r8
    493e:	3b02      	subs	r3, #2
    4940:	7018      	strb	r0, [r3, #0]
    4942:	459a      	cmp	sl, r3
    4944:	d800      	bhi.n	4948 <_vfprintf_r+0x12d4>
    4946:	e1f6      	b.n	4d36 <_vfprintf_r+0x16c2>
    4948:	4642      	mov	r2, r8
    494a:	9b1b      	ldr	r3, [sp, #108]	; 0x6c
    494c:	4645      	mov	r5, r8
    494e:	1a99      	subs	r1, r3, r2
    4950:	2301      	movs	r3, #1
    4952:	3107      	adds	r1, #7
    4954:	425b      	negs	r3, r3
    4956:	e001      	b.n	495c <_vfprintf_r+0x12e8>
    4958:	5ce8      	ldrb	r0, [r5, r3]
    495a:	3301      	adds	r3, #1
    495c:	aa21      	add	r2, sp, #132	; 0x84
    495e:	18d2      	adds	r2, r2, r3
    4960:	70d0      	strb	r0, [r2, #3]
    4962:	428b      	cmp	r3, r1
    4964:	d1f8      	bne.n	4958 <_vfprintf_r+0x12e4>
    4966:	a916      	add	r1, sp, #88	; 0x58
    4968:	468c      	mov	ip, r1
    496a:	222e      	movs	r2, #46	; 0x2e
    496c:	464b      	mov	r3, r9
    496e:	4462      	add	r2, ip
    4970:	4694      	mov	ip, r2
    4972:	1afb      	subs	r3, r7, r3
    4974:	4463      	add	r3, ip
    4976:	aa21      	add	r2, sp, #132	; 0x84
    4978:	9914      	ldr	r1, [sp, #80]	; 0x50
    497a:	1a9b      	subs	r3, r3, r2
    497c:	469c      	mov	ip, r3
    497e:	000a      	movs	r2, r1
    4980:	4462      	add	r2, ip
    4982:	931a      	str	r3, [sp, #104]	; 0x68
    4984:	920e      	str	r2, [sp, #56]	; 0x38
    4986:	2901      	cmp	r1, #1
    4988:	dc00      	bgt.n	498c <_vfprintf_r+0x1318>
    498a:	e170      	b.n	4c6e <_vfprintf_r+0x15fa>
    498c:	9a17      	ldr	r2, [sp, #92]	; 0x5c
    498e:	9b0e      	ldr	r3, [sp, #56]	; 0x38
    4990:	4694      	mov	ip, r2
    4992:	4463      	add	r3, ip
    4994:	001a      	movs	r2, r3
    4996:	930e      	str	r3, [sp, #56]	; 0x38
    4998:	43db      	mvns	r3, r3
    499a:	17db      	asrs	r3, r3, #31
    499c:	401a      	ands	r2, r3
    499e:	2300      	movs	r3, #0
    49a0:	9208      	str	r2, [sp, #32]
    49a2:	9313      	str	r3, [sp, #76]	; 0x4c
    49a4:	e6d4      	b.n	4750 <_vfprintf_r+0x10dc>
    49a6:	003a      	movs	r2, r7
    49a8:	4659      	mov	r1, fp
    49aa:	9806      	ldr	r0, [sp, #24]
    49ac:	f003 f906 	bl	7bbc <__sprint_r>
    49b0:	2800      	cmp	r0, #0
    49b2:	d001      	beq.n	49b8 <_vfprintf_r+0x1344>
    49b4:	f7ff fbee 	bl	4194 <_vfprintf_r+0xb20>
    49b8:	68bc      	ldr	r4, [r7, #8]
    49ba:	ae32      	add	r6, sp, #200	; 0xc8
    49bc:	e46a      	b.n	4294 <_vfprintf_r+0xc20>
    49be:	4653      	mov	r3, sl
    49c0:	2b00      	cmp	r3, #0
    49c2:	d000      	beq.n	49c6 <_vfprintf_r+0x1352>
    49c4:	e659      	b.n	467a <_vfprintf_r+0x1006>
    49c6:	3301      	adds	r3, #1
    49c8:	469a      	mov	sl, r3
    49ca:	e656      	b.n	467a <_vfprintf_r+0x1006>
    49cc:	4653      	mov	r3, sl
    49ce:	9308      	str	r3, [sp, #32]
    49d0:	2b06      	cmp	r3, #6
    49d2:	d901      	bls.n	49d8 <_vfprintf_r+0x1364>
    49d4:	2306      	movs	r3, #6
    49d6:	9308      	str	r3, [sp, #32]
    49d8:	9b08      	ldr	r3, [sp, #32]
    49da:	950f      	str	r5, [sp, #60]	; 0x3c
    49dc:	930e      	str	r3, [sp, #56]	; 0x38
    49de:	2300      	movs	r3, #0
    49e0:	4698      	mov	r8, r3
    49e2:	469a      	mov	sl, r3
    49e4:	9313      	str	r3, [sp, #76]	; 0x4c
    49e6:	4b62      	ldr	r3, [pc, #392]	; (4b70 <_vfprintf_r+0x14fc>)
    49e8:	9409      	str	r4, [sp, #36]	; 0x24
    49ea:	9311      	str	r3, [sp, #68]	; 0x44
    49ec:	f7fe ffbd 	bl	396a <_vfprintf_r+0x2f6>
    49f0:	003a      	movs	r2, r7
    49f2:	4659      	mov	r1, fp
    49f4:	9806      	ldr	r0, [sp, #24]
    49f6:	f003 f8e1 	bl	7bbc <__sprint_r>
    49fa:	2800      	cmp	r0, #0
    49fc:	d001      	beq.n	4a02 <_vfprintf_r+0x138e>
    49fe:	f7ff fbc9 	bl	4194 <_vfprintf_r+0xb20>
    4a02:	9b14      	ldr	r3, [sp, #80]	; 0x50
    4a04:	9a1f      	ldr	r2, [sp, #124]	; 0x7c
    4a06:	68bc      	ldr	r4, [r7, #8]
    4a08:	1a9b      	subs	r3, r3, r2
    4a0a:	ae32      	add	r6, sp, #200	; 0xc8
    4a0c:	e567      	b.n	44de <_vfprintf_r+0xe6a>
    4a0e:	ab23      	add	r3, sp, #140	; 0x8c
    4a10:	931b      	str	r3, [sp, #108]	; 0x6c
    4a12:	9304      	str	r3, [sp, #16]
    4a14:	ab20      	add	r3, sp, #128	; 0x80
    4a16:	9303      	str	r3, [sp, #12]
    4a18:	ab1f      	add	r3, sp, #124	; 0x7c
    4a1a:	9302      	str	r3, [sp, #8]
    4a1c:	4653      	mov	r3, sl
    4a1e:	9301      	str	r3, [sp, #4]
    4a20:	2303      	movs	r3, #3
    4a22:	464a      	mov	r2, r9
    4a24:	9300      	str	r3, [sp, #0]
    4a26:	9806      	ldr	r0, [sp, #24]
    4a28:	9b08      	ldr	r3, [sp, #32]
    4a2a:	f000 fafb 	bl	5024 <_dtoa_r>
    4a2e:	0003      	movs	r3, r0
    4a30:	4453      	add	r3, sl
    4a32:	4698      	mov	r8, r3
    4a34:	4655      	mov	r5, sl
    4a36:	9011      	str	r0, [sp, #68]	; 0x44
    4a38:	9b11      	ldr	r3, [sp, #68]	; 0x44
    4a3a:	781b      	ldrb	r3, [r3, #0]
    4a3c:	2b30      	cmp	r3, #48	; 0x30
    4a3e:	d002      	beq.n	4a46 <_vfprintf_r+0x13d2>
    4a40:	9b1f      	ldr	r3, [sp, #124]	; 0x7c
    4a42:	4498      	add	r8, r3
    4a44:	e64e      	b.n	46e4 <_vfprintf_r+0x1070>
    4a46:	2200      	movs	r2, #0
    4a48:	2300      	movs	r3, #0
    4a4a:	4648      	mov	r0, r9
    4a4c:	9908      	ldr	r1, [sp, #32]
    4a4e:	f7fe fad3 	bl	2ff8 <__aeabi_dcmpeq>
    4a52:	2800      	cmp	r0, #0
    4a54:	d1f4      	bne.n	4a40 <_vfprintf_r+0x13cc>
    4a56:	2301      	movs	r3, #1
    4a58:	1b5b      	subs	r3, r3, r5
    4a5a:	931f      	str	r3, [sp, #124]	; 0x7c
    4a5c:	4498      	add	r8, r3
    4a5e:	e641      	b.n	46e4 <_vfprintf_r+0x1070>
    4a60:	46c1      	mov	r9, r8
    4a62:	f7ff fb1f 	bl	40a4 <_vfprintf_r+0xa30>
    4a66:	2280      	movs	r2, #128	; 0x80
    4a68:	0612      	lsls	r2, r2, #24
    4a6a:	4694      	mov	ip, r2
    4a6c:	9b16      	ldr	r3, [sp, #88]	; 0x58
    4a6e:	4699      	mov	r9, r3
    4a70:	9b15      	ldr	r3, [sp, #84]	; 0x54
    4a72:	4463      	add	r3, ip
    4a74:	9308      	str	r3, [sp, #32]
    4a76:	232d      	movs	r3, #45	; 0x2d
    4a78:	9310      	str	r3, [sp, #64]	; 0x40
    4a7a:	e60b      	b.n	4694 <_vfprintf_r+0x1020>
    4a7c:	9a17      	ldr	r2, [sp, #92]	; 0x5c
    4a7e:	9b14      	ldr	r3, [sp, #80]	; 0x50
    4a80:	4694      	mov	ip, r2
    4a82:	9a13      	ldr	r2, [sp, #76]	; 0x4c
    4a84:	4463      	add	r3, ip
    4a86:	930e      	str	r3, [sp, #56]	; 0x38
    4a88:	2a00      	cmp	r2, #0
    4a8a:	dc00      	bgt.n	4a8e <_vfprintf_r+0x141a>
    4a8c:	e0e3      	b.n	4c56 <_vfprintf_r+0x15e2>
    4a8e:	001a      	movs	r2, r3
    4a90:	43db      	mvns	r3, r3
    4a92:	17db      	asrs	r3, r3, #31
    4a94:	401a      	ands	r2, r3
    4a96:	2367      	movs	r3, #103	; 0x67
    4a98:	9208      	str	r2, [sp, #32]
    4a9a:	9312      	str	r3, [sp, #72]	; 0x48
    4a9c:	e658      	b.n	4750 <_vfprintf_r+0x10dc>
    4a9e:	003a      	movs	r2, r7
    4aa0:	4659      	mov	r1, fp
    4aa2:	9806      	ldr	r0, [sp, #24]
    4aa4:	f003 f88a 	bl	7bbc <__sprint_r>
    4aa8:	2800      	cmp	r0, #0
    4aaa:	d001      	beq.n	4ab0 <_vfprintf_r+0x143c>
    4aac:	f7ff fb72 	bl	4194 <_vfprintf_r+0xb20>
    4ab0:	981f      	ldr	r0, [sp, #124]	; 0x7c
    4ab2:	68bc      	ldr	r4, [r7, #8]
    4ab4:	ae32      	add	r6, sp, #200	; 0xc8
    4ab6:	e69d      	b.n	47f4 <_vfprintf_r+0x1180>
    4ab8:	9b1f      	ldr	r3, [sp, #124]	; 0x7c
    4aba:	9313      	str	r3, [sp, #76]	; 0x4c
    4abc:	2b00      	cmp	r3, #0
    4abe:	dc00      	bgt.n	4ac2 <_vfprintf_r+0x144e>
    4ac0:	e0f2      	b.n	4ca8 <_vfprintf_r+0x1634>
    4ac2:	4652      	mov	r2, sl
    4ac4:	2a00      	cmp	r2, #0
    4ac6:	d000      	beq.n	4aca <_vfprintf_r+0x1456>
    4ac8:	e0a0      	b.n	4c0c <_vfprintf_r+0x1598>
    4aca:	07e2      	lsls	r2, r4, #31
    4acc:	d500      	bpl.n	4ad0 <_vfprintf_r+0x145c>
    4ace:	e09d      	b.n	4c0c <_vfprintf_r+0x1598>
    4ad0:	9308      	str	r3, [sp, #32]
    4ad2:	930e      	str	r3, [sp, #56]	; 0x38
    4ad4:	e63c      	b.n	4750 <_vfprintf_r+0x10dc>
    4ad6:	ab16      	add	r3, sp, #88	; 0x58
    4ad8:	7fdb      	ldrb	r3, [r3, #31]
    4ada:	950f      	str	r5, [sp, #60]	; 0x3c
    4adc:	4698      	mov	r8, r3
    4ade:	4653      	mov	r3, sl
    4ae0:	9308      	str	r3, [sp, #32]
    4ae2:	930e      	str	r3, [sp, #56]	; 0x38
    4ae4:	2300      	movs	r3, #0
    4ae6:	9409      	str	r4, [sp, #36]	; 0x24
    4ae8:	469a      	mov	sl, r3
    4aea:	9313      	str	r3, [sp, #76]	; 0x4c
    4aec:	f7fe ff37 	bl	395e <_vfprintf_r+0x2ea>
    4af0:	9b11      	ldr	r3, [sp, #68]	; 0x44
    4af2:	4698      	mov	r8, r3
    4af4:	9b12      	ldr	r3, [sp, #72]	; 0x48
    4af6:	44a8      	add	r8, r5
    4af8:	2b47      	cmp	r3, #71	; 0x47
    4afa:	d000      	beq.n	4afe <_vfprintf_r+0x148a>
    4afc:	e5f2      	b.n	46e4 <_vfprintf_r+0x1070>
    4afe:	07e3      	lsls	r3, r4, #31
    4b00:	d400      	bmi.n	4b04 <_vfprintf_r+0x1490>
    4b02:	e0dc      	b.n	4cbe <_vfprintf_r+0x164a>
    4b04:	9b11      	ldr	r3, [sp, #68]	; 0x44
    4b06:	4698      	mov	r8, r3
    4b08:	9b12      	ldr	r3, [sp, #72]	; 0x48
    4b0a:	44a8      	add	r8, r5
    4b0c:	2b46      	cmp	r3, #70	; 0x46
    4b0e:	d093      	beq.n	4a38 <_vfprintf_r+0x13c4>
    4b10:	e5e8      	b.n	46e4 <_vfprintf_r+0x1070>
    4b12:	ab23      	add	r3, sp, #140	; 0x8c
    4b14:	931b      	str	r3, [sp, #108]	; 0x6c
    4b16:	9304      	str	r3, [sp, #16]
    4b18:	ab20      	add	r3, sp, #128	; 0x80
    4b1a:	9303      	str	r3, [sp, #12]
    4b1c:	ab1f      	add	r3, sp, #124	; 0x7c
    4b1e:	9302      	str	r3, [sp, #8]
    4b20:	4653      	mov	r3, sl
    4b22:	9301      	str	r3, [sp, #4]
    4b24:	2303      	movs	r3, #3
    4b26:	464a      	mov	r2, r9
    4b28:	9300      	str	r3, [sp, #0]
    4b2a:	9806      	ldr	r0, [sp, #24]
    4b2c:	9b08      	ldr	r3, [sp, #32]
    4b2e:	f000 fa79 	bl	5024 <_dtoa_r>
    4b32:	4655      	mov	r5, sl
    4b34:	9011      	str	r0, [sp, #68]	; 0x44
    4b36:	e7e5      	b.n	4b04 <_vfprintf_r+0x1490>
    4b38:	003a      	movs	r2, r7
    4b3a:	4659      	mov	r1, fp
    4b3c:	9806      	ldr	r0, [sp, #24]
    4b3e:	f003 f83d 	bl	7bbc <__sprint_r>
    4b42:	2800      	cmp	r0, #0
    4b44:	d101      	bne.n	4b4a <_vfprintf_r+0x14d6>
    4b46:	f7ff faab 	bl	40a0 <_vfprintf_r+0xa2c>
    4b4a:	f7ff faab 	bl	40a4 <_vfprintf_r+0xa30>
    4b4e:	4642      	mov	r2, r8
    4b50:	9207      	str	r2, [sp, #28]
    4b52:	f7fe fe1b 	bl	378c <_vfprintf_r+0x118>
    4b56:	4244      	negs	r4, r0
    4b58:	3010      	adds	r0, #16
    4b5a:	db00      	blt.n	4b5e <_vfprintf_r+0x14ea>
    4b5c:	e0d8      	b.n	4d10 <_vfprintf_r+0x169c>
    4b5e:	4805      	ldr	r0, [pc, #20]	; (4b74 <_vfprintf_r+0x1500>)
    4b60:	2610      	movs	r6, #16
    4b62:	0005      	movs	r5, r0
    4b64:	e00c      	b.n	4b80 <_vfprintf_r+0x150c>
    4b66:	46c0      	nop			; (mov r8, r8)
    4b68:	00008b6c 	.word	0x00008b6c
    4b6c:	00008b30 	.word	0x00008b30
    4b70:	00008b64 	.word	0x00008b64
    4b74:	00008b80 	.word	0x00008b80
    4b78:	3208      	adds	r2, #8
    4b7a:	3c10      	subs	r4, #16
    4b7c:	2c10      	cmp	r4, #16
    4b7e:	dd51      	ble.n	4c24 <_vfprintf_r+0x15b0>
    4b80:	3110      	adds	r1, #16
    4b82:	3301      	adds	r3, #1
    4b84:	6015      	str	r5, [r2, #0]
    4b86:	6056      	str	r6, [r2, #4]
    4b88:	60b9      	str	r1, [r7, #8]
    4b8a:	607b      	str	r3, [r7, #4]
    4b8c:	2b07      	cmp	r3, #7
    4b8e:	ddf3      	ble.n	4b78 <_vfprintf_r+0x1504>
    4b90:	003a      	movs	r2, r7
    4b92:	4659      	mov	r1, fp
    4b94:	9806      	ldr	r0, [sp, #24]
    4b96:	f003 f811 	bl	7bbc <__sprint_r>
    4b9a:	2800      	cmp	r0, #0
    4b9c:	d001      	beq.n	4ba2 <_vfprintf_r+0x152e>
    4b9e:	f7ff faf9 	bl	4194 <_vfprintf_r+0xb20>
    4ba2:	68b9      	ldr	r1, [r7, #8]
    4ba4:	687b      	ldr	r3, [r7, #4]
    4ba6:	aa32      	add	r2, sp, #200	; 0xc8
    4ba8:	e7e7      	b.n	4b7a <_vfprintf_r+0x1506>
    4baa:	003a      	movs	r2, r7
    4bac:	4659      	mov	r1, fp
    4bae:	9806      	ldr	r0, [sp, #24]
    4bb0:	f003 f804 	bl	7bbc <__sprint_r>
    4bb4:	2800      	cmp	r0, #0
    4bb6:	d001      	beq.n	4bbc <_vfprintf_r+0x1548>
    4bb8:	f7ff faec 	bl	4194 <_vfprintf_r+0xb20>
    4bbc:	981f      	ldr	r0, [sp, #124]	; 0x7c
    4bbe:	68b9      	ldr	r1, [r7, #8]
    4bc0:	687b      	ldr	r3, [r7, #4]
    4bc2:	aa32      	add	r2, sp, #200	; 0xc8
    4bc4:	e62e      	b.n	4824 <_vfprintf_r+0x11b0>
    4bc6:	9a17      	ldr	r2, [sp, #92]	; 0x5c
    4bc8:	9b13      	ldr	r3, [sp, #76]	; 0x4c
    4bca:	4694      	mov	ip, r2
    4bcc:	4463      	add	r3, ip
    4bce:	001a      	movs	r2, r3
    4bd0:	930e      	str	r3, [sp, #56]	; 0x38
    4bd2:	e75d      	b.n	4a90 <_vfprintf_r+0x141c>
    4bd4:	9b23      	ldr	r3, [sp, #140]	; 0x8c
    4bd6:	e599      	b.n	470c <_vfprintf_r+0x1098>
    4bd8:	212e      	movs	r1, #46	; 0x2e
    4bda:	2330      	movs	r3, #48	; 0x30
    4bdc:	aa16      	add	r2, sp, #88	; 0x58
    4bde:	1852      	adds	r2, r2, r1
    4be0:	7013      	strb	r3, [r2, #0]
    4be2:	002b      	movs	r3, r5
    4be4:	aa16      	add	r2, sp, #88	; 0x58
    4be6:	3101      	adds	r1, #1
    4be8:	3330      	adds	r3, #48	; 0x30
    4bea:	1852      	adds	r2, r2, r1
    4bec:	7013      	strb	r3, [r2, #0]
    4bee:	ab22      	add	r3, sp, #136	; 0x88
    4bf0:	e6c1      	b.n	4976 <_vfprintf_r+0x1302>
    4bf2:	9b15      	ldr	r3, [sp, #84]	; 0x54
    4bf4:	2b00      	cmp	r3, #0
    4bf6:	db52      	blt.n	4c9e <_vfprintf_r+0x162a>
    4bf8:	ab16      	add	r3, sp, #88	; 0x58
    4bfa:	7fdb      	ldrb	r3, [r3, #31]
    4bfc:	4698      	mov	r8, r3
    4bfe:	9b12      	ldr	r3, [sp, #72]	; 0x48
    4c00:	2b47      	cmp	r3, #71	; 0x47
    4c02:	dc48      	bgt.n	4c96 <_vfprintf_r+0x1622>
    4c04:	4b4e      	ldr	r3, [pc, #312]	; (4d40 <_vfprintf_r+0x16cc>)
    4c06:	9311      	str	r3, [sp, #68]	; 0x44
    4c08:	f7ff f88c 	bl	3d24 <_vfprintf_r+0x6b0>
    4c0c:	9a17      	ldr	r2, [sp, #92]	; 0x5c
    4c0e:	9b13      	ldr	r3, [sp, #76]	; 0x4c
    4c10:	4694      	mov	ip, r2
    4c12:	4463      	add	r3, ip
    4c14:	4453      	add	r3, sl
    4c16:	001a      	movs	r2, r3
    4c18:	930e      	str	r3, [sp, #56]	; 0x38
    4c1a:	43db      	mvns	r3, r3
    4c1c:	17db      	asrs	r3, r3, #31
    4c1e:	401a      	ands	r2, r3
    4c20:	9208      	str	r2, [sp, #32]
    4c22:	e595      	b.n	4750 <_vfprintf_r+0x10dc>
    4c24:	46a9      	mov	r9, r5
    4c26:	4648      	mov	r0, r9
    4c28:	1909      	adds	r1, r1, r4
    4c2a:	3301      	adds	r3, #1
    4c2c:	6010      	str	r0, [r2, #0]
    4c2e:	6054      	str	r4, [r2, #4]
    4c30:	60b9      	str	r1, [r7, #8]
    4c32:	3208      	adds	r2, #8
    4c34:	607b      	str	r3, [r7, #4]
    4c36:	2b07      	cmp	r3, #7
    4c38:	dc00      	bgt.n	4c3c <_vfprintf_r+0x15c8>
    4c3a:	e5f6      	b.n	482a <_vfprintf_r+0x11b6>
    4c3c:	003a      	movs	r2, r7
    4c3e:	4659      	mov	r1, fp
    4c40:	9806      	ldr	r0, [sp, #24]
    4c42:	f002 ffbb 	bl	7bbc <__sprint_r>
    4c46:	2800      	cmp	r0, #0
    4c48:	d001      	beq.n	4c4e <_vfprintf_r+0x15da>
    4c4a:	f7ff faa3 	bl	4194 <_vfprintf_r+0xb20>
    4c4e:	68b9      	ldr	r1, [r7, #8]
    4c50:	687b      	ldr	r3, [r7, #4]
    4c52:	aa32      	add	r2, sp, #200	; 0xc8
    4c54:	e5e9      	b.n	482a <_vfprintf_r+0x11b6>
    4c56:	9b0e      	ldr	r3, [sp, #56]	; 0x38
    4c58:	9a13      	ldr	r2, [sp, #76]	; 0x4c
    4c5a:	1a98      	subs	r0, r3, r2
    4c5c:	1c43      	adds	r3, r0, #1
    4c5e:	001a      	movs	r2, r3
    4c60:	930e      	str	r3, [sp, #56]	; 0x38
    4c62:	e715      	b.n	4a90 <_vfprintf_r+0x141c>
    4c64:	4a37      	ldr	r2, [pc, #220]	; (4d44 <_vfprintf_r+0x16d0>)
    4c66:	687b      	ldr	r3, [r7, #4]
    4c68:	4691      	mov	r9, r2
    4c6a:	f7ff fbf5 	bl	4458 <_vfprintf_r+0xde4>
    4c6e:	2301      	movs	r3, #1
    4c70:	4023      	ands	r3, r4
    4c72:	9313      	str	r3, [sp, #76]	; 0x4c
    4c74:	d000      	beq.n	4c78 <_vfprintf_r+0x1604>
    4c76:	e689      	b.n	498c <_vfprintf_r+0x1318>
    4c78:	9a0e      	ldr	r2, [sp, #56]	; 0x38
    4c7a:	43d3      	mvns	r3, r2
    4c7c:	17db      	asrs	r3, r3, #31
    4c7e:	401a      	ands	r2, r3
    4c80:	9208      	str	r2, [sp, #32]
    4c82:	e565      	b.n	4750 <_vfprintf_r+0x10dc>
    4c84:	2301      	movs	r3, #1
    4c86:	9a13      	ldr	r2, [sp, #76]	; 0x4c
    4c88:	391b      	subs	r1, #27
    4c8a:	1a9d      	subs	r5, r3, r2
    4c8c:	aa16      	add	r2, sp, #88	; 0x58
    4c8e:	332c      	adds	r3, #44	; 0x2c
    4c90:	1852      	adds	r2, r2, r1
    4c92:	7013      	strb	r3, [r2, #0]
    4c94:	e62f      	b.n	48f6 <_vfprintf_r+0x1282>
    4c96:	4b2c      	ldr	r3, [pc, #176]	; (4d48 <_vfprintf_r+0x16d4>)
    4c98:	9311      	str	r3, [sp, #68]	; 0x44
    4c9a:	f7ff f843 	bl	3d24 <_vfprintf_r+0x6b0>
    4c9e:	232d      	movs	r3, #45	; 0x2d
    4ca0:	aa16      	add	r2, sp, #88	; 0x58
    4ca2:	77d3      	strb	r3, [r2, #31]
    4ca4:	4698      	mov	r8, r3
    4ca6:	e7aa      	b.n	4bfe <_vfprintf_r+0x158a>
    4ca8:	4653      	mov	r3, sl
    4caa:	2b00      	cmp	r3, #0
    4cac:	d101      	bne.n	4cb2 <_vfprintf_r+0x163e>
    4cae:	07e3      	lsls	r3, r4, #31
    4cb0:	d503      	bpl.n	4cba <_vfprintf_r+0x1646>
    4cb2:	9b17      	ldr	r3, [sp, #92]	; 0x5c
    4cb4:	1c58      	adds	r0, r3, #1
    4cb6:	0003      	movs	r3, r0
    4cb8:	e7ac      	b.n	4c14 <_vfprintf_r+0x15a0>
    4cba:	2301      	movs	r3, #1
    4cbc:	e708      	b.n	4ad0 <_vfprintf_r+0x145c>
    4cbe:	9b23      	ldr	r3, [sp, #140]	; 0x8c
    4cc0:	9a11      	ldr	r2, [sp, #68]	; 0x44
    4cc2:	1a9b      	subs	r3, r3, r2
    4cc4:	9314      	str	r3, [sp, #80]	; 0x50
    4cc6:	9b0e      	ldr	r3, [sp, #56]	; 0x38
    4cc8:	2b47      	cmp	r3, #71	; 0x47
    4cca:	d100      	bne.n	4cce <_vfprintf_r+0x165a>
    4ccc:	e5f6      	b.n	48bc <_vfprintf_r+0x1248>
    4cce:	9b1f      	ldr	r3, [sp, #124]	; 0x7c
    4cd0:	9313      	str	r3, [sp, #76]	; 0x4c
    4cd2:	e5fd      	b.n	48d0 <_vfprintf_r+0x125c>
    4cd4:	9b0f      	ldr	r3, [sp, #60]	; 0x3c
    4cd6:	1d1d      	adds	r5, r3, #4
    4cd8:	681b      	ldr	r3, [r3, #0]
    4cda:	46a8      	mov	r8, r5
    4cdc:	469a      	mov	sl, r3
    4cde:	2b00      	cmp	r3, #0
    4ce0:	db0a      	blt.n	4cf8 <_vfprintf_r+0x1684>
    4ce2:	4645      	mov	r5, r8
    4ce4:	9b07      	ldr	r3, [sp, #28]
    4ce6:	950f      	str	r5, [sp, #60]	; 0x3c
    4ce8:	785b      	ldrb	r3, [r3, #1]
    4cea:	9207      	str	r2, [sp, #28]
    4cec:	f7fe fd4b 	bl	3786 <_vfprintf_r+0x112>
    4cf0:	ab16      	add	r3, sp, #88	; 0x58
    4cf2:	77d8      	strb	r0, [r3, #31]
    4cf4:	f7ff f830 	bl	3d58 <_vfprintf_r+0x6e4>
    4cf8:	2301      	movs	r3, #1
    4cfa:	425b      	negs	r3, r3
    4cfc:	469a      	mov	sl, r3
    4cfe:	e7f0      	b.n	4ce2 <_vfprintf_r+0x166e>
    4d00:	ab16      	add	r3, sp, #88	; 0x58
    4d02:	77d8      	strb	r0, [r3, #31]
    4d04:	f7fe ff27 	bl	3b56 <_vfprintf_r+0x4e2>
    4d08:	ab16      	add	r3, sp, #88	; 0x58
    4d0a:	77d8      	strb	r0, [r3, #31]
    4d0c:	f7fe fdce 	bl	38ac <_vfprintf_r+0x238>
    4d10:	480c      	ldr	r0, [pc, #48]	; (4d44 <_vfprintf_r+0x16d0>)
    4d12:	4681      	mov	r9, r0
    4d14:	e787      	b.n	4c26 <_vfprintf_r+0x15b2>
    4d16:	ab16      	add	r3, sp, #88	; 0x58
    4d18:	77d8      	strb	r0, [r3, #31]
    4d1a:	f7ff f829 	bl	3d70 <_vfprintf_r+0x6fc>
    4d1e:	ab16      	add	r3, sp, #88	; 0x58
    4d20:	77d8      	strb	r0, [r3, #31]
    4d22:	f7fe ffc3 	bl	3cac <_vfprintf_r+0x638>
    4d26:	ab16      	add	r3, sp, #88	; 0x58
    4d28:	77d8      	strb	r0, [r3, #31]
    4d2a:	f7fe ffa5 	bl	3c78 <_vfprintf_r+0x604>
    4d2e:	ab16      	add	r3, sp, #88	; 0x58
    4d30:	77d8      	strb	r0, [r3, #31]
    4d32:	f7fe feaf 	bl	3a94 <_vfprintf_r+0x420>
    4d36:	aa16      	add	r2, sp, #88	; 0x58
    4d38:	232e      	movs	r3, #46	; 0x2e
    4d3a:	4694      	mov	ip, r2
    4d3c:	4463      	add	r3, ip
    4d3e:	e61a      	b.n	4976 <_vfprintf_r+0x1302>
    4d40:	00008b34 	.word	0x00008b34
    4d44:	00008b80 	.word	0x00008b80
    4d48:	00008b38 	.word	0x00008b38

00004d4c <__sbprintf>:
    4d4c:	b5f0      	push	{r4, r5, r6, r7, lr}
    4d4e:	0015      	movs	r5, r2
    4d50:	2202      	movs	r2, #2
    4d52:	4c1e      	ldr	r4, [pc, #120]	; (4dcc <__sbprintf+0x80>)
    4d54:	001f      	movs	r7, r3
    4d56:	898b      	ldrh	r3, [r1, #12]
    4d58:	44a5      	add	sp, r4
    4d5a:	4393      	bics	r3, r2
    4d5c:	466a      	mov	r2, sp
    4d5e:	8193      	strh	r3, [r2, #12]
    4d60:	6e4b      	ldr	r3, [r1, #100]	; 0x64
    4d62:	0006      	movs	r6, r0
    4d64:	9319      	str	r3, [sp, #100]	; 0x64
    4d66:	89cb      	ldrh	r3, [r1, #14]
    4d68:	a816      	add	r0, sp, #88	; 0x58
    4d6a:	81d3      	strh	r3, [r2, #14]
    4d6c:	69cb      	ldr	r3, [r1, #28]
    4d6e:	000c      	movs	r4, r1
    4d70:	9307      	str	r3, [sp, #28]
    4d72:	6a4b      	ldr	r3, [r1, #36]	; 0x24
    4d74:	9309      	str	r3, [sp, #36]	; 0x24
    4d76:	ab1a      	add	r3, sp, #104	; 0x68
    4d78:	9300      	str	r3, [sp, #0]
    4d7a:	9304      	str	r3, [sp, #16]
    4d7c:	2380      	movs	r3, #128	; 0x80
    4d7e:	00db      	lsls	r3, r3, #3
    4d80:	9302      	str	r3, [sp, #8]
    4d82:	9305      	str	r3, [sp, #20]
    4d84:	2300      	movs	r3, #0
    4d86:	9306      	str	r3, [sp, #24]
    4d88:	f001 fd50 	bl	682c <__retarget_lock_init_recursive>
    4d8c:	002a      	movs	r2, r5
    4d8e:	003b      	movs	r3, r7
    4d90:	4669      	mov	r1, sp
    4d92:	0030      	movs	r0, r6
    4d94:	f7fe fc6e 	bl	3674 <_vfprintf_r>
    4d98:	1e05      	subs	r5, r0, #0
    4d9a:	db05      	blt.n	4da8 <__sbprintf+0x5c>
    4d9c:	4669      	mov	r1, sp
    4d9e:	0030      	movs	r0, r6
    4da0:	f001 f9ac 	bl	60fc <_fflush_r>
    4da4:	2800      	cmp	r0, #0
    4da6:	d10e      	bne.n	4dc6 <__sbprintf+0x7a>
    4da8:	466b      	mov	r3, sp
    4daa:	899b      	ldrh	r3, [r3, #12]
    4dac:	065b      	lsls	r3, r3, #25
    4dae:	d503      	bpl.n	4db8 <__sbprintf+0x6c>
    4db0:	2240      	movs	r2, #64	; 0x40
    4db2:	89a3      	ldrh	r3, [r4, #12]
    4db4:	4313      	orrs	r3, r2
    4db6:	81a3      	strh	r3, [r4, #12]
    4db8:	9816      	ldr	r0, [sp, #88]	; 0x58
    4dba:	f001 fd39 	bl	6830 <__retarget_lock_close_recursive>
    4dbe:	0028      	movs	r0, r5
    4dc0:	4b03      	ldr	r3, [pc, #12]	; (4dd0 <__sbprintf+0x84>)
    4dc2:	449d      	add	sp, r3
    4dc4:	bdf0      	pop	{r4, r5, r6, r7, pc}
    4dc6:	2501      	movs	r5, #1
    4dc8:	426d      	negs	r5, r5
    4dca:	e7ed      	b.n	4da8 <__sbprintf+0x5c>
    4dcc:	fffffb94 	.word	0xfffffb94
    4dd0:	0000046c 	.word	0x0000046c

00004dd4 <__swsetup_r>:
    4dd4:	4b33      	ldr	r3, [pc, #204]	; (4ea4 <__swsetup_r+0xd0>)
    4dd6:	b570      	push	{r4, r5, r6, lr}
    4dd8:	0005      	movs	r5, r0
    4dda:	6818      	ldr	r0, [r3, #0]
    4ddc:	000c      	movs	r4, r1
    4dde:	2800      	cmp	r0, #0
    4de0:	d002      	beq.n	4de8 <__swsetup_r+0x14>
    4de2:	6b83      	ldr	r3, [r0, #56]	; 0x38
    4de4:	2b00      	cmp	r3, #0
    4de6:	d03c      	beq.n	4e62 <__swsetup_r+0x8e>
    4de8:	230c      	movs	r3, #12
    4dea:	5ee2      	ldrsh	r2, [r4, r3]
    4dec:	b293      	uxth	r3, r2
    4dee:	0719      	lsls	r1, r3, #28
    4df0:	d50d      	bpl.n	4e0e <__swsetup_r+0x3a>
    4df2:	6921      	ldr	r1, [r4, #16]
    4df4:	2900      	cmp	r1, #0
    4df6:	d015      	beq.n	4e24 <__swsetup_r+0x50>
    4df8:	07da      	lsls	r2, r3, #31
    4dfa:	d521      	bpl.n	4e40 <__swsetup_r+0x6c>
    4dfc:	2300      	movs	r3, #0
    4dfe:	60a3      	str	r3, [r4, #8]
    4e00:	6963      	ldr	r3, [r4, #20]
    4e02:	2000      	movs	r0, #0
    4e04:	425b      	negs	r3, r3
    4e06:	61a3      	str	r3, [r4, #24]
    4e08:	2900      	cmp	r1, #0
    4e0a:	d021      	beq.n	4e50 <__swsetup_r+0x7c>
    4e0c:	bd70      	pop	{r4, r5, r6, pc}
    4e0e:	06d9      	lsls	r1, r3, #27
    4e10:	d53f      	bpl.n	4e92 <__swsetup_r+0xbe>
    4e12:	075b      	lsls	r3, r3, #29
    4e14:	d428      	bmi.n	4e68 <__swsetup_r+0x94>
    4e16:	6921      	ldr	r1, [r4, #16]
    4e18:	2308      	movs	r3, #8
    4e1a:	4313      	orrs	r3, r2
    4e1c:	81a3      	strh	r3, [r4, #12]
    4e1e:	b29b      	uxth	r3, r3
    4e20:	2900      	cmp	r1, #0
    4e22:	d1e9      	bne.n	4df8 <__swsetup_r+0x24>
    4e24:	22a0      	movs	r2, #160	; 0xa0
    4e26:	2080      	movs	r0, #128	; 0x80
    4e28:	0092      	lsls	r2, r2, #2
    4e2a:	0080      	lsls	r0, r0, #2
    4e2c:	401a      	ands	r2, r3
    4e2e:	4282      	cmp	r2, r0
    4e30:	d0e2      	beq.n	4df8 <__swsetup_r+0x24>
    4e32:	0021      	movs	r1, r4
    4e34:	0028      	movs	r0, r5
    4e36:	f001 fd31 	bl	689c <__smakebuf_r>
    4e3a:	89a3      	ldrh	r3, [r4, #12]
    4e3c:	6921      	ldr	r1, [r4, #16]
    4e3e:	e7db      	b.n	4df8 <__swsetup_r+0x24>
    4e40:	2200      	movs	r2, #0
    4e42:	079b      	lsls	r3, r3, #30
    4e44:	d400      	bmi.n	4e48 <__swsetup_r+0x74>
    4e46:	6962      	ldr	r2, [r4, #20]
    4e48:	60a2      	str	r2, [r4, #8]
    4e4a:	2000      	movs	r0, #0
    4e4c:	2900      	cmp	r1, #0
    4e4e:	d1dd      	bne.n	4e0c <__swsetup_r+0x38>
    4e50:	220c      	movs	r2, #12
    4e52:	5ea3      	ldrsh	r3, [r4, r2]
    4e54:	061a      	lsls	r2, r3, #24
    4e56:	d5d9      	bpl.n	4e0c <__swsetup_r+0x38>
    4e58:	2240      	movs	r2, #64	; 0x40
    4e5a:	4313      	orrs	r3, r2
    4e5c:	81a3      	strh	r3, [r4, #12]
    4e5e:	3801      	subs	r0, #1
    4e60:	e7d4      	b.n	4e0c <__swsetup_r+0x38>
    4e62:	f001 f9a5 	bl	61b0 <__sinit>
    4e66:	e7bf      	b.n	4de8 <__swsetup_r+0x14>
    4e68:	6b21      	ldr	r1, [r4, #48]	; 0x30
    4e6a:	2900      	cmp	r1, #0
    4e6c:	d00a      	beq.n	4e84 <__swsetup_r+0xb0>
    4e6e:	0023      	movs	r3, r4
    4e70:	3340      	adds	r3, #64	; 0x40
    4e72:	4299      	cmp	r1, r3
    4e74:	d004      	beq.n	4e80 <__swsetup_r+0xac>
    4e76:	0028      	movs	r0, r5
    4e78:	f001 fa44 	bl	6304 <_free_r>
    4e7c:	230c      	movs	r3, #12
    4e7e:	5ee2      	ldrsh	r2, [r4, r3]
    4e80:	2300      	movs	r3, #0
    4e82:	6323      	str	r3, [r4, #48]	; 0x30
    4e84:	2324      	movs	r3, #36	; 0x24
    4e86:	439a      	bics	r2, r3
    4e88:	2300      	movs	r3, #0
    4e8a:	6921      	ldr	r1, [r4, #16]
    4e8c:	6063      	str	r3, [r4, #4]
    4e8e:	6021      	str	r1, [r4, #0]
    4e90:	e7c2      	b.n	4e18 <__swsetup_r+0x44>
    4e92:	2309      	movs	r3, #9
    4e94:	602b      	str	r3, [r5, #0]
    4e96:	2340      	movs	r3, #64	; 0x40
    4e98:	2001      	movs	r0, #1
    4e9a:	431a      	orrs	r2, r3
    4e9c:	81a2      	strh	r2, [r4, #12]
    4e9e:	4240      	negs	r0, r0
    4ea0:	e7b4      	b.n	4e0c <__swsetup_r+0x38>
    4ea2:	46c0      	nop			; (mov r8, r8)
    4ea4:	20000000 	.word	0x20000000

00004ea8 <register_fini>:
    4ea8:	4b03      	ldr	r3, [pc, #12]	; (4eb8 <register_fini+0x10>)
    4eaa:	b510      	push	{r4, lr}
    4eac:	2b00      	cmp	r3, #0
    4eae:	d002      	beq.n	4eb6 <register_fini+0xe>
    4eb0:	4802      	ldr	r0, [pc, #8]	; (4ebc <register_fini+0x14>)
    4eb2:	f000 f805 	bl	4ec0 <atexit>
    4eb6:	bd10      	pop	{r4, pc}
    4eb8:	00000000 	.word	0x00000000
    4ebc:	00006231 	.word	0x00006231

00004ec0 <atexit>:
    4ec0:	b510      	push	{r4, lr}
    4ec2:	0001      	movs	r1, r0
    4ec4:	2300      	movs	r3, #0
    4ec6:	2200      	movs	r2, #0
    4ec8:	2000      	movs	r0, #0
    4eca:	f002 fe95 	bl	7bf8 <__register_exitproc>
    4ece:	bd10      	pop	{r4, pc}

00004ed0 <quorem>:
    4ed0:	b5f0      	push	{r4, r5, r6, r7, lr}
    4ed2:	4645      	mov	r5, r8
    4ed4:	4680      	mov	r8, r0
    4ed6:	46de      	mov	lr, fp
    4ed8:	4657      	mov	r7, sl
    4eda:	464e      	mov	r6, r9
    4edc:	4642      	mov	r2, r8
    4ede:	b5e0      	push	{r5, r6, r7, lr}
    4ee0:	690c      	ldr	r4, [r1, #16]
    4ee2:	6912      	ldr	r2, [r2, #16]
    4ee4:	b085      	sub	sp, #20
    4ee6:	000b      	movs	r3, r1
    4ee8:	9102      	str	r1, [sp, #8]
    4eea:	2000      	movs	r0, #0
    4eec:	4294      	cmp	r4, r2
    4eee:	dd00      	ble.n	4ef2 <quorem+0x22>
    4ef0:	e090      	b.n	5014 <quorem+0x144>
    4ef2:	2214      	movs	r2, #20
    4ef4:	4694      	mov	ip, r2
    4ef6:	4463      	add	r3, ip
    4ef8:	4699      	mov	r9, r3
    4efa:	464a      	mov	r2, r9
    4efc:	3c01      	subs	r4, #1
    4efe:	00a3      	lsls	r3, r4, #2
    4f00:	18d6      	adds	r6, r2, r3
    4f02:	2214      	movs	r2, #20
    4f04:	4442      	add	r2, r8
    4f06:	4693      	mov	fp, r2
    4f08:	449b      	add	fp, r3
    4f0a:	6833      	ldr	r3, [r6, #0]
    4f0c:	0015      	movs	r5, r2
    4f0e:	1c59      	adds	r1, r3, #1
    4f10:	465b      	mov	r3, fp
    4f12:	6818      	ldr	r0, [r3, #0]
    4f14:	9201      	str	r2, [sp, #4]
    4f16:	f7fc fbb5 	bl	1684 <__udivsi3>
    4f1a:	1e03      	subs	r3, r0, #0
    4f1c:	9000      	str	r0, [sp, #0]
    4f1e:	d042      	beq.n	4fa6 <quorem+0xd6>
    4f20:	0029      	movs	r1, r5
    4f22:	2700      	movs	r7, #0
    4f24:	464d      	mov	r5, r9
    4f26:	2000      	movs	r0, #0
    4f28:	46b1      	mov	r9, r6
    4f2a:	46a2      	mov	sl, r4
    4f2c:	003e      	movs	r6, r7
    4f2e:	0004      	movs	r4, r0
    4f30:	469c      	mov	ip, r3
    4f32:	002f      	movs	r7, r5
    4f34:	0008      	movs	r0, r1
    4f36:	9503      	str	r5, [sp, #12]
    4f38:	4663      	mov	r3, ip
    4f3a:	cf04      	ldmia	r7!, {r2}
    4f3c:	0415      	lsls	r5, r2, #16
    4f3e:	0c2d      	lsrs	r5, r5, #16
    4f40:	435d      	muls	r5, r3
    4f42:	0c12      	lsrs	r2, r2, #16
    4f44:	435a      	muls	r2, r3
    4f46:	19ad      	adds	r5, r5, r6
    4f48:	0c2b      	lsrs	r3, r5, #16
    4f4a:	18d2      	adds	r2, r2, r3
    4f4c:	6803      	ldr	r3, [r0, #0]
    4f4e:	042d      	lsls	r5, r5, #16
    4f50:	0419      	lsls	r1, r3, #16
    4f52:	0c09      	lsrs	r1, r1, #16
    4f54:	1909      	adds	r1, r1, r4
    4f56:	0c16      	lsrs	r6, r2, #16
    4f58:	0c2d      	lsrs	r5, r5, #16
    4f5a:	0412      	lsls	r2, r2, #16
    4f5c:	1b49      	subs	r1, r1, r5
    4f5e:	0c12      	lsrs	r2, r2, #16
    4f60:	0c1b      	lsrs	r3, r3, #16
    4f62:	1a9b      	subs	r3, r3, r2
    4f64:	140a      	asrs	r2, r1, #16
    4f66:	189b      	adds	r3, r3, r2
    4f68:	0409      	lsls	r1, r1, #16
    4f6a:	141c      	asrs	r4, r3, #16
    4f6c:	0c09      	lsrs	r1, r1, #16
    4f6e:	041b      	lsls	r3, r3, #16
    4f70:	4319      	orrs	r1, r3
    4f72:	c002      	stmia	r0!, {r1}
    4f74:	45b9      	cmp	r9, r7
    4f76:	d2df      	bcs.n	4f38 <quorem+0x68>
    4f78:	9b03      	ldr	r3, [sp, #12]
    4f7a:	464e      	mov	r6, r9
    4f7c:	4699      	mov	r9, r3
    4f7e:	465b      	mov	r3, fp
    4f80:	681b      	ldr	r3, [r3, #0]
    4f82:	4654      	mov	r4, sl
    4f84:	2b00      	cmp	r3, #0
    4f86:	d10e      	bne.n	4fa6 <quorem+0xd6>
    4f88:	465b      	mov	r3, fp
    4f8a:	9a01      	ldr	r2, [sp, #4]
    4f8c:	3b04      	subs	r3, #4
    4f8e:	429a      	cmp	r2, r3
    4f90:	d304      	bcc.n	4f9c <quorem+0xcc>
    4f92:	e006      	b.n	4fa2 <quorem+0xd2>
    4f94:	3b04      	subs	r3, #4
    4f96:	3c01      	subs	r4, #1
    4f98:	429a      	cmp	r2, r3
    4f9a:	d202      	bcs.n	4fa2 <quorem+0xd2>
    4f9c:	6819      	ldr	r1, [r3, #0]
    4f9e:	2900      	cmp	r1, #0
    4fa0:	d0f8      	beq.n	4f94 <quorem+0xc4>
    4fa2:	4643      	mov	r3, r8
    4fa4:	611c      	str	r4, [r3, #16]
    4fa6:	9902      	ldr	r1, [sp, #8]
    4fa8:	4640      	mov	r0, r8
    4faa:	f002 fa93 	bl	74d4 <__mcmp>
    4fae:	2800      	cmp	r0, #0
    4fb0:	db2f      	blt.n	5012 <quorem+0x142>
    4fb2:	464f      	mov	r7, r9
    4fb4:	2000      	movs	r0, #0
    4fb6:	9b00      	ldr	r3, [sp, #0]
    4fb8:	9d01      	ldr	r5, [sp, #4]
    4fba:	3301      	adds	r3, #1
    4fbc:	9300      	str	r3, [sp, #0]
    4fbe:	682b      	ldr	r3, [r5, #0]
    4fc0:	cf02      	ldmia	r7!, {r1}
    4fc2:	041a      	lsls	r2, r3, #16
    4fc4:	0c12      	lsrs	r2, r2, #16
    4fc6:	1810      	adds	r0, r2, r0
    4fc8:	040a      	lsls	r2, r1, #16
    4fca:	0c12      	lsrs	r2, r2, #16
    4fcc:	1a82      	subs	r2, r0, r2
    4fce:	0c09      	lsrs	r1, r1, #16
    4fd0:	0c1b      	lsrs	r3, r3, #16
    4fd2:	1a5b      	subs	r3, r3, r1
    4fd4:	1411      	asrs	r1, r2, #16
    4fd6:	185b      	adds	r3, r3, r1
    4fd8:	0412      	lsls	r2, r2, #16
    4fda:	1418      	asrs	r0, r3, #16
    4fdc:	0c12      	lsrs	r2, r2, #16
    4fde:	041b      	lsls	r3, r3, #16
    4fe0:	4313      	orrs	r3, r2
    4fe2:	c508      	stmia	r5!, {r3}
    4fe4:	42be      	cmp	r6, r7
    4fe6:	d2ea      	bcs.n	4fbe <quorem+0xee>
    4fe8:	9901      	ldr	r1, [sp, #4]
    4fea:	00a3      	lsls	r3, r4, #2
    4fec:	468c      	mov	ip, r1
    4fee:	4463      	add	r3, ip
    4ff0:	681a      	ldr	r2, [r3, #0]
    4ff2:	2a00      	cmp	r2, #0
    4ff4:	d10d      	bne.n	5012 <quorem+0x142>
    4ff6:	3b04      	subs	r3, #4
    4ff8:	000a      	movs	r2, r1
    4ffa:	4299      	cmp	r1, r3
    4ffc:	d304      	bcc.n	5008 <quorem+0x138>
    4ffe:	e006      	b.n	500e <quorem+0x13e>
    5000:	3b04      	subs	r3, #4
    5002:	3c01      	subs	r4, #1
    5004:	429a      	cmp	r2, r3
    5006:	d202      	bcs.n	500e <quorem+0x13e>
    5008:	6819      	ldr	r1, [r3, #0]
    500a:	2900      	cmp	r1, #0
    500c:	d0f8      	beq.n	5000 <quorem+0x130>
    500e:	4643      	mov	r3, r8
    5010:	611c      	str	r4, [r3, #16]
    5012:	9800      	ldr	r0, [sp, #0]
    5014:	b005      	add	sp, #20
    5016:	bc3c      	pop	{r2, r3, r4, r5}
    5018:	4690      	mov	r8, r2
    501a:	4699      	mov	r9, r3
    501c:	46a2      	mov	sl, r4
    501e:	46ab      	mov	fp, r5
    5020:	bdf0      	pop	{r4, r5, r6, r7, pc}
    5022:	46c0      	nop			; (mov r8, r8)

00005024 <_dtoa_r>:
    5024:	b5f0      	push	{r4, r5, r6, r7, lr}
    5026:	4657      	mov	r7, sl
    5028:	464e      	mov	r6, r9
    502a:	4645      	mov	r5, r8
    502c:	46de      	mov	lr, fp
    502e:	b5e0      	push	{r5, r6, r7, lr}
    5030:	6c01      	ldr	r1, [r0, #64]	; 0x40
    5032:	b099      	sub	sp, #100	; 0x64
    5034:	4682      	mov	sl, r0
    5036:	001d      	movs	r5, r3
    5038:	0016      	movs	r6, r2
    503a:	001f      	movs	r7, r3
    503c:	2900      	cmp	r1, #0
    503e:	d009      	beq.n	5054 <_dtoa_r+0x30>
    5040:	2301      	movs	r3, #1
    5042:	6c42      	ldr	r2, [r0, #68]	; 0x44
    5044:	4093      	lsls	r3, r2
    5046:	604a      	str	r2, [r1, #4]
    5048:	608b      	str	r3, [r1, #8]
    504a:	f002 f837 	bl	70bc <_Bfree>
    504e:	2300      	movs	r3, #0
    5050:	4652      	mov	r2, sl
    5052:	6413      	str	r3, [r2, #64]	; 0x40
    5054:	46b8      	mov	r8, r7
    5056:	2f00      	cmp	r7, #0
    5058:	db37      	blt.n	50ca <_dtoa_r+0xa6>
    505a:	2300      	movs	r3, #0
    505c:	9a25      	ldr	r2, [sp, #148]	; 0x94
    505e:	6013      	str	r3, [r2, #0]
    5060:	4642      	mov	r2, r8
    5062:	4bd6      	ldr	r3, [pc, #856]	; (53bc <_dtoa_r+0x398>)
    5064:	401a      	ands	r2, r3
    5066:	429a      	cmp	r2, r3
    5068:	d018      	beq.n	509c <_dtoa_r+0x78>
    506a:	2200      	movs	r2, #0
    506c:	2300      	movs	r3, #0
    506e:	0030      	movs	r0, r6
    5070:	0039      	movs	r1, r7
    5072:	f7fd ffc1 	bl	2ff8 <__aeabi_dcmpeq>
    5076:	2800      	cmp	r0, #0
    5078:	d02f      	beq.n	50da <_dtoa_r+0xb6>
    507a:	2301      	movs	r3, #1
    507c:	9a24      	ldr	r2, [sp, #144]	; 0x90
    507e:	6013      	str	r3, [r2, #0]
    5080:	9b26      	ldr	r3, [sp, #152]	; 0x98
    5082:	2b00      	cmp	r3, #0
    5084:	d100      	bne.n	5088 <_dtoa_r+0x64>
    5086:	e22a      	b.n	54de <_dtoa_r+0x4ba>
    5088:	48cd      	ldr	r0, [pc, #820]	; (53c0 <_dtoa_r+0x39c>)
    508a:	6018      	str	r0, [r3, #0]
    508c:	3801      	subs	r0, #1
    508e:	b019      	add	sp, #100	; 0x64
    5090:	bc3c      	pop	{r2, r3, r4, r5}
    5092:	4690      	mov	r8, r2
    5094:	4699      	mov	r9, r3
    5096:	46a2      	mov	sl, r4
    5098:	46ab      	mov	fp, r5
    509a:	bdf0      	pop	{r4, r5, r6, r7, pc}
    509c:	4bc9      	ldr	r3, [pc, #804]	; (53c4 <_dtoa_r+0x3a0>)
    509e:	9a24      	ldr	r2, [sp, #144]	; 0x90
    50a0:	6013      	str	r3, [r2, #0]
    50a2:	2e00      	cmp	r6, #0
    50a4:	d10b      	bne.n	50be <_dtoa_r+0x9a>
    50a6:	4643      	mov	r3, r8
    50a8:	0318      	lsls	r0, r3, #12
    50aa:	d108      	bne.n	50be <_dtoa_r+0x9a>
    50ac:	9b26      	ldr	r3, [sp, #152]	; 0x98
    50ae:	48c6      	ldr	r0, [pc, #792]	; (53c8 <_dtoa_r+0x3a4>)
    50b0:	2b00      	cmp	r3, #0
    50b2:	d0ec      	beq.n	508e <_dtoa_r+0x6a>
    50b4:	0003      	movs	r3, r0
    50b6:	3308      	adds	r3, #8
    50b8:	9a26      	ldr	r2, [sp, #152]	; 0x98
    50ba:	6013      	str	r3, [r2, #0]
    50bc:	e7e7      	b.n	508e <_dtoa_r+0x6a>
    50be:	9b26      	ldr	r3, [sp, #152]	; 0x98
    50c0:	48c2      	ldr	r0, [pc, #776]	; (53cc <_dtoa_r+0x3a8>)
    50c2:	2b00      	cmp	r3, #0
    50c4:	d0e3      	beq.n	508e <_dtoa_r+0x6a>
    50c6:	1cc3      	adds	r3, r0, #3
    50c8:	e7f6      	b.n	50b8 <_dtoa_r+0x94>
    50ca:	2301      	movs	r3, #1
    50cc:	9a25      	ldr	r2, [sp, #148]	; 0x94
    50ce:	0068      	lsls	r0, r5, #1
    50d0:	6013      	str	r3, [r2, #0]
    50d2:	0843      	lsrs	r3, r0, #1
    50d4:	4698      	mov	r8, r3
    50d6:	001f      	movs	r7, r3
    50d8:	e7c2      	b.n	5060 <_dtoa_r+0x3c>
    50da:	ab16      	add	r3, sp, #88	; 0x58
    50dc:	9301      	str	r3, [sp, #4]
    50de:	ab17      	add	r3, sp, #92	; 0x5c
    50e0:	9300      	str	r3, [sp, #0]
    50e2:	0032      	movs	r2, r6
    50e4:	003b      	movs	r3, r7
    50e6:	4650      	mov	r0, sl
    50e8:	f002 faaa 	bl	7640 <__d2b>
    50ec:	4643      	mov	r3, r8
    50ee:	4683      	mov	fp, r0
    50f0:	0d1a      	lsrs	r2, r3, #20
    50f2:	d100      	bne.n	50f6 <_dtoa_r+0xd2>
    50f4:	e1d6      	b.n	54a4 <_dtoa_r+0x480>
    50f6:	033b      	lsls	r3, r7, #12
    50f8:	4cb5      	ldr	r4, [pc, #724]	; (53d0 <_dtoa_r+0x3ac>)
    50fa:	0b1b      	lsrs	r3, r3, #12
    50fc:	431c      	orrs	r4, r3
    50fe:	4bb5      	ldr	r3, [pc, #724]	; (53d4 <_dtoa_r+0x3b0>)
    5100:	0030      	movs	r0, r6
    5102:	4698      	mov	r8, r3
    5104:	9b16      	ldr	r3, [sp, #88]	; 0x58
    5106:	0021      	movs	r1, r4
    5108:	4699      	mov	r9, r3
    510a:	2300      	movs	r3, #0
    510c:	4490      	add	r8, r2
    510e:	930f      	str	r3, [sp, #60]	; 0x3c
    5110:	2200      	movs	r2, #0
    5112:	4bb1      	ldr	r3, [pc, #708]	; (53d8 <_dtoa_r+0x3b4>)
    5114:	f7fd fac0 	bl	2698 <__aeabi_dsub>
    5118:	4ab0      	ldr	r2, [pc, #704]	; (53dc <_dtoa_r+0x3b8>)
    511a:	4bb1      	ldr	r3, [pc, #708]	; (53e0 <_dtoa_r+0x3bc>)
    511c:	f7fd f83c 	bl	2198 <__aeabi_dmul>
    5120:	4ab0      	ldr	r2, [pc, #704]	; (53e4 <_dtoa_r+0x3c0>)
    5122:	4bb1      	ldr	r3, [pc, #708]	; (53e8 <_dtoa_r+0x3c4>)
    5124:	f003 f80a 	bl	813c <__aeabi_dadd>
    5128:	0004      	movs	r4, r0
    512a:	4640      	mov	r0, r8
    512c:	000d      	movs	r5, r1
    512e:	f7fd fdfd 	bl	2d2c <__aeabi_i2d>
    5132:	4aae      	ldr	r2, [pc, #696]	; (53ec <_dtoa_r+0x3c8>)
    5134:	4bae      	ldr	r3, [pc, #696]	; (53f0 <_dtoa_r+0x3cc>)
    5136:	f7fd f82f 	bl	2198 <__aeabi_dmul>
    513a:	0002      	movs	r2, r0
    513c:	000b      	movs	r3, r1
    513e:	0020      	movs	r0, r4
    5140:	0029      	movs	r1, r5
    5142:	f002 fffb 	bl	813c <__aeabi_dadd>
    5146:	0004      	movs	r4, r0
    5148:	000d      	movs	r5, r1
    514a:	f7fd fdbb 	bl	2cc4 <__aeabi_d2iz>
    514e:	2200      	movs	r2, #0
    5150:	9003      	str	r0, [sp, #12]
    5152:	2300      	movs	r3, #0
    5154:	0020      	movs	r0, r4
    5156:	0029      	movs	r1, r5
    5158:	f7fd ff54 	bl	3004 <__aeabi_dcmplt>
    515c:	2800      	cmp	r0, #0
    515e:	d000      	beq.n	5162 <_dtoa_r+0x13e>
    5160:	e2b1      	b.n	56c6 <_dtoa_r+0x6a2>
    5162:	2301      	movs	r3, #1
    5164:	9c03      	ldr	r4, [sp, #12]
    5166:	930c      	str	r3, [sp, #48]	; 0x30
    5168:	2c16      	cmp	r4, #22
    516a:	d810      	bhi.n	518e <_dtoa_r+0x16a>
    516c:	49a1      	ldr	r1, [pc, #644]	; (53f4 <_dtoa_r+0x3d0>)
    516e:	00e3      	lsls	r3, r4, #3
    5170:	18c9      	adds	r1, r1, r3
    5172:	0032      	movs	r2, r6
    5174:	6808      	ldr	r0, [r1, #0]
    5176:	6849      	ldr	r1, [r1, #4]
    5178:	003b      	movs	r3, r7
    517a:	f7fd ff57 	bl	302c <__aeabi_dcmpgt>
    517e:	2800      	cmp	r0, #0
    5180:	d100      	bne.n	5184 <_dtoa_r+0x160>
    5182:	e31d      	b.n	57c0 <_dtoa_r+0x79c>
    5184:	0023      	movs	r3, r4
    5186:	3b01      	subs	r3, #1
    5188:	9303      	str	r3, [sp, #12]
    518a:	2300      	movs	r3, #0
    518c:	930c      	str	r3, [sp, #48]	; 0x30
    518e:	464b      	mov	r3, r9
    5190:	4642      	mov	r2, r8
    5192:	1a9a      	subs	r2, r3, r2
    5194:	2300      	movs	r3, #0
    5196:	9306      	str	r3, [sp, #24]
    5198:	0013      	movs	r3, r2
    519a:	3b01      	subs	r3, #1
    519c:	9304      	str	r3, [sp, #16]
    519e:	d500      	bpl.n	51a2 <_dtoa_r+0x17e>
    51a0:	e2a1      	b.n	56e6 <_dtoa_r+0x6c2>
    51a2:	9b03      	ldr	r3, [sp, #12]
    51a4:	2b00      	cmp	r3, #0
    51a6:	da00      	bge.n	51aa <_dtoa_r+0x186>
    51a8:	e284      	b.n	56b4 <_dtoa_r+0x690>
    51aa:	469c      	mov	ip, r3
    51ac:	930d      	str	r3, [sp, #52]	; 0x34
    51ae:	2300      	movs	r3, #0
    51b0:	9a04      	ldr	r2, [sp, #16]
    51b2:	4699      	mov	r9, r3
    51b4:	0011      	movs	r1, r2
    51b6:	4461      	add	r1, ip
    51b8:	9104      	str	r1, [sp, #16]
    51ba:	9b22      	ldr	r3, [sp, #136]	; 0x88
    51bc:	2b09      	cmp	r3, #9
    51be:	d900      	bls.n	51c2 <_dtoa_r+0x19e>
    51c0:	e18f      	b.n	54e2 <_dtoa_r+0x4be>
    51c2:	2401      	movs	r4, #1
    51c4:	2b05      	cmp	r3, #5
    51c6:	dd02      	ble.n	51ce <_dtoa_r+0x1aa>
    51c8:	2400      	movs	r4, #0
    51ca:	3b04      	subs	r3, #4
    51cc:	9322      	str	r3, [sp, #136]	; 0x88
    51ce:	9b22      	ldr	r3, [sp, #136]	; 0x88
    51d0:	2b03      	cmp	r3, #3
    51d2:	d101      	bne.n	51d8 <_dtoa_r+0x1b4>
    51d4:	f000 fcce 	bl	5b74 <_dtoa_r+0xb50>
    51d8:	dc01      	bgt.n	51de <_dtoa_r+0x1ba>
    51da:	f000 fc92 	bl	5b02 <_dtoa_r+0xade>
    51de:	9b22      	ldr	r3, [sp, #136]	; 0x88
    51e0:	2b04      	cmp	r3, #4
    51e2:	d101      	bne.n	51e8 <_dtoa_r+0x1c4>
    51e4:	f000 fc40 	bl	5a68 <_dtoa_r+0xa44>
    51e8:	2301      	movs	r3, #1
    51ea:	930b      	str	r3, [sp, #44]	; 0x2c
    51ec:	9b22      	ldr	r3, [sp, #136]	; 0x88
    51ee:	2b05      	cmp	r3, #5
    51f0:	d001      	beq.n	51f6 <_dtoa_r+0x1d2>
    51f2:	f000 fc8b 	bl	5b0c <_dtoa_r+0xae8>
    51f6:	9a23      	ldr	r2, [sp, #140]	; 0x8c
    51f8:	9b03      	ldr	r3, [sp, #12]
    51fa:	4694      	mov	ip, r2
    51fc:	4463      	add	r3, ip
    51fe:	930e      	str	r3, [sp, #56]	; 0x38
    5200:	3301      	adds	r3, #1
    5202:	9307      	str	r3, [sp, #28]
    5204:	1e1d      	subs	r5, r3, #0
    5206:	dc01      	bgt.n	520c <_dtoa_r+0x1e8>
    5208:	f000 fd49 	bl	5c9e <_dtoa_r+0xc7a>
    520c:	9b07      	ldr	r3, [sp, #28]
    520e:	4698      	mov	r8, r3
    5210:	2300      	movs	r3, #0
    5212:	4652      	mov	r2, sl
    5214:	2100      	movs	r1, #0
    5216:	6453      	str	r3, [r2, #68]	; 0x44
    5218:	2d17      	cmp	r5, #23
    521a:	d90a      	bls.n	5232 <_dtoa_r+0x20e>
    521c:	2201      	movs	r2, #1
    521e:	3304      	adds	r3, #4
    5220:	005b      	lsls	r3, r3, #1
    5222:	0018      	movs	r0, r3
    5224:	3014      	adds	r0, #20
    5226:	0011      	movs	r1, r2
    5228:	3201      	adds	r2, #1
    522a:	4285      	cmp	r5, r0
    522c:	d2f8      	bcs.n	5220 <_dtoa_r+0x1fc>
    522e:	4653      	mov	r3, sl
    5230:	6459      	str	r1, [r3, #68]	; 0x44
    5232:	4650      	mov	r0, sl
    5234:	f001 ff1a 	bl	706c <_Balloc>
    5238:	4653      	mov	r3, sl
    523a:	6418      	str	r0, [r3, #64]	; 0x40
    523c:	4643      	mov	r3, r8
    523e:	900a      	str	r0, [sp, #40]	; 0x28
    5240:	2b0e      	cmp	r3, #14
    5242:	d900      	bls.n	5246 <_dtoa_r+0x222>
    5244:	e161      	b.n	550a <_dtoa_r+0x4e6>
    5246:	2c00      	cmp	r4, #0
    5248:	d100      	bne.n	524c <_dtoa_r+0x228>
    524a:	e15e      	b.n	550a <_dtoa_r+0x4e6>
    524c:	9610      	str	r6, [sp, #64]	; 0x40
    524e:	9711      	str	r7, [sp, #68]	; 0x44
    5250:	9e03      	ldr	r6, [sp, #12]
    5252:	2e00      	cmp	r6, #0
    5254:	dc01      	bgt.n	525a <_dtoa_r+0x236>
    5256:	f000 fd25 	bl	5ca4 <_dtoa_r+0xc80>
    525a:	0032      	movs	r2, r6
    525c:	210f      	movs	r1, #15
    525e:	4b65      	ldr	r3, [pc, #404]	; (53f4 <_dtoa_r+0x3d0>)
    5260:	400a      	ands	r2, r1
    5262:	00d2      	lsls	r2, r2, #3
    5264:	189b      	adds	r3, r3, r2
    5266:	1136      	asrs	r6, r6, #4
    5268:	681c      	ldr	r4, [r3, #0]
    526a:	685d      	ldr	r5, [r3, #4]
    526c:	06f3      	lsls	r3, r6, #27
    526e:	d401      	bmi.n	5274 <_dtoa_r+0x250>
    5270:	f000 fcca 	bl	5c08 <_dtoa_r+0xbe4>
    5274:	4b60      	ldr	r3, [pc, #384]	; (53f8 <_dtoa_r+0x3d4>)
    5276:	400e      	ands	r6, r1
    5278:	6a1a      	ldr	r2, [r3, #32]
    527a:	6a5b      	ldr	r3, [r3, #36]	; 0x24
    527c:	9810      	ldr	r0, [sp, #64]	; 0x40
    527e:	9911      	ldr	r1, [sp, #68]	; 0x44
    5280:	f7fc fc56 	bl	1b30 <__aeabi_ddiv>
    5284:	2303      	movs	r3, #3
    5286:	4698      	mov	r8, r3
    5288:	9008      	str	r0, [sp, #32]
    528a:	9109      	str	r1, [sp, #36]	; 0x24
    528c:	2e00      	cmp	r6, #0
    528e:	d011      	beq.n	52b4 <_dtoa_r+0x290>
    5290:	4f59      	ldr	r7, [pc, #356]	; (53f8 <_dtoa_r+0x3d4>)
    5292:	2301      	movs	r3, #1
    5294:	4233      	tst	r3, r6
    5296:	d009      	beq.n	52ac <_dtoa_r+0x288>
    5298:	469c      	mov	ip, r3
    529a:	683a      	ldr	r2, [r7, #0]
    529c:	687b      	ldr	r3, [r7, #4]
    529e:	0020      	movs	r0, r4
    52a0:	0029      	movs	r1, r5
    52a2:	44e0      	add	r8, ip
    52a4:	f7fc ff78 	bl	2198 <__aeabi_dmul>
    52a8:	0004      	movs	r4, r0
    52aa:	000d      	movs	r5, r1
    52ac:	1076      	asrs	r6, r6, #1
    52ae:	3708      	adds	r7, #8
    52b0:	2e00      	cmp	r6, #0
    52b2:	d1ee      	bne.n	5292 <_dtoa_r+0x26e>
    52b4:	0022      	movs	r2, r4
    52b6:	9808      	ldr	r0, [sp, #32]
    52b8:	9909      	ldr	r1, [sp, #36]	; 0x24
    52ba:	002b      	movs	r3, r5
    52bc:	f7fc fc38 	bl	1b30 <__aeabi_ddiv>
    52c0:	0006      	movs	r6, r0
    52c2:	000f      	movs	r7, r1
    52c4:	9b0c      	ldr	r3, [sp, #48]	; 0x30
    52c6:	2b00      	cmp	r3, #0
    52c8:	d009      	beq.n	52de <_dtoa_r+0x2ba>
    52ca:	2200      	movs	r2, #0
    52cc:	4b40      	ldr	r3, [pc, #256]	; (53d0 <_dtoa_r+0x3ac>)
    52ce:	0030      	movs	r0, r6
    52d0:	0039      	movs	r1, r7
    52d2:	f7fd fe97 	bl	3004 <__aeabi_dcmplt>
    52d6:	2800      	cmp	r0, #0
    52d8:	d001      	beq.n	52de <_dtoa_r+0x2ba>
    52da:	f000 fdc2 	bl	5e62 <_dtoa_r+0xe3e>
    52de:	4640      	mov	r0, r8
    52e0:	f7fd fd24 	bl	2d2c <__aeabi_i2d>
    52e4:	0032      	movs	r2, r6
    52e6:	003b      	movs	r3, r7
    52e8:	f7fc ff56 	bl	2198 <__aeabi_dmul>
    52ec:	2200      	movs	r2, #0
    52ee:	4b43      	ldr	r3, [pc, #268]	; (53fc <_dtoa_r+0x3d8>)
    52f0:	f002 ff24 	bl	813c <__aeabi_dadd>
    52f4:	4a42      	ldr	r2, [pc, #264]	; (5400 <_dtoa_r+0x3dc>)
    52f6:	000b      	movs	r3, r1
    52f8:	4694      	mov	ip, r2
    52fa:	4463      	add	r3, ip
    52fc:	9008      	str	r0, [sp, #32]
    52fe:	9109      	str	r1, [sp, #36]	; 0x24
    5300:	9309      	str	r3, [sp, #36]	; 0x24
    5302:	9b07      	ldr	r3, [sp, #28]
    5304:	2b00      	cmp	r3, #0
    5306:	d101      	bne.n	530c <_dtoa_r+0x2e8>
    5308:	f000 fc50 	bl	5bac <_dtoa_r+0xb88>
    530c:	9b03      	ldr	r3, [sp, #12]
    530e:	9313      	str	r3, [sp, #76]	; 0x4c
    5310:	9b07      	ldr	r3, [sp, #28]
    5312:	9312      	str	r3, [sp, #72]	; 0x48
    5314:	9b0b      	ldr	r3, [sp, #44]	; 0x2c
    5316:	2b00      	cmp	r3, #0
    5318:	d101      	bne.n	531e <_dtoa_r+0x2fa>
    531a:	f000 fd1d 	bl	5d58 <_dtoa_r+0xd34>
    531e:	9b12      	ldr	r3, [sp, #72]	; 0x48
    5320:	2000      	movs	r0, #0
    5322:	1e5a      	subs	r2, r3, #1
    5324:	4b33      	ldr	r3, [pc, #204]	; (53f4 <_dtoa_r+0x3d0>)
    5326:	00d2      	lsls	r2, r2, #3
    5328:	189b      	adds	r3, r3, r2
    532a:	681a      	ldr	r2, [r3, #0]
    532c:	685b      	ldr	r3, [r3, #4]
    532e:	4935      	ldr	r1, [pc, #212]	; (5404 <_dtoa_r+0x3e0>)
    5330:	f7fc fbfe 	bl	1b30 <__aeabi_ddiv>
    5334:	9a08      	ldr	r2, [sp, #32]
    5336:	9b09      	ldr	r3, [sp, #36]	; 0x24
    5338:	f7fd f9ae 	bl	2698 <__aeabi_dsub>
    533c:	9008      	str	r0, [sp, #32]
    533e:	9109      	str	r1, [sp, #36]	; 0x24
    5340:	0039      	movs	r1, r7
    5342:	0030      	movs	r0, r6
    5344:	f7fd fcbe 	bl	2cc4 <__aeabi_d2iz>
    5348:	0004      	movs	r4, r0
    534a:	f7fd fcef 	bl	2d2c <__aeabi_i2d>
    534e:	0002      	movs	r2, r0
    5350:	000b      	movs	r3, r1
    5352:	0030      	movs	r0, r6
    5354:	0039      	movs	r1, r7
    5356:	f7fd f99f 	bl	2698 <__aeabi_dsub>
    535a:	0005      	movs	r5, r0
    535c:	000e      	movs	r6, r1
    535e:	9a0a      	ldr	r2, [sp, #40]	; 0x28
    5360:	3430      	adds	r4, #48	; 0x30
    5362:	1c51      	adds	r1, r2, #1
    5364:	b2e7      	uxtb	r7, r4
    5366:	9114      	str	r1, [sp, #80]	; 0x50
    5368:	7017      	strb	r7, [r2, #0]
    536a:	0033      	movs	r3, r6
    536c:	9808      	ldr	r0, [sp, #32]
    536e:	9909      	ldr	r1, [sp, #36]	; 0x24
    5370:	002a      	movs	r2, r5
    5372:	f7fd fe5b 	bl	302c <__aeabi_dcmpgt>
    5376:	2800      	cmp	r0, #0
    5378:	d001      	beq.n	537e <_dtoa_r+0x35a>
    537a:	f000 fdfe 	bl	5f7a <_dtoa_r+0xf56>
    537e:	002a      	movs	r2, r5
    5380:	0033      	movs	r3, r6
    5382:	2000      	movs	r0, #0
    5384:	4912      	ldr	r1, [pc, #72]	; (53d0 <_dtoa_r+0x3ac>)
    5386:	f7fd f987 	bl	2698 <__aeabi_dsub>
    538a:	0002      	movs	r2, r0
    538c:	000b      	movs	r3, r1
    538e:	9808      	ldr	r0, [sp, #32]
    5390:	9909      	ldr	r1, [sp, #36]	; 0x24
    5392:	f7fd fe4b 	bl	302c <__aeabi_dcmpgt>
    5396:	2800      	cmp	r0, #0
    5398:	d001      	beq.n	539e <_dtoa_r+0x37a>
    539a:	f000 fde7 	bl	5f6c <_dtoa_r+0xf48>
    539e:	9b12      	ldr	r3, [sp, #72]	; 0x48
    53a0:	2b01      	cmp	r3, #1
    53a2:	d101      	bne.n	53a8 <_dtoa_r+0x384>
    53a4:	f000 fc78 	bl	5c98 <_dtoa_r+0xc74>
    53a8:	9a0a      	ldr	r2, [sp, #40]	; 0x28
    53aa:	9b12      	ldr	r3, [sp, #72]	; 0x48
    53ac:	4694      	mov	ip, r2
    53ae:	4463      	add	r3, ip
    53b0:	4698      	mov	r8, r3
    53b2:	464b      	mov	r3, r9
    53b4:	9312      	str	r3, [sp, #72]	; 0x48
    53b6:	9b14      	ldr	r3, [sp, #80]	; 0x50
    53b8:	4699      	mov	r9, r3
    53ba:	e038      	b.n	542e <_dtoa_r+0x40a>
    53bc:	7ff00000 	.word	0x7ff00000
    53c0:	00008b6d 	.word	0x00008b6d
    53c4:	0000270f 	.word	0x0000270f
    53c8:	00008b90 	.word	0x00008b90
    53cc:	00008b9c 	.word	0x00008b9c
    53d0:	3ff00000 	.word	0x3ff00000
    53d4:	fffffc01 	.word	0xfffffc01
    53d8:	3ff80000 	.word	0x3ff80000
    53dc:	636f4361 	.word	0x636f4361
    53e0:	3fd287a7 	.word	0x3fd287a7
    53e4:	8b60c8b3 	.word	0x8b60c8b3
    53e8:	3fc68a28 	.word	0x3fc68a28
    53ec:	509f79fb 	.word	0x509f79fb
    53f0:	3fd34413 	.word	0x3fd34413
    53f4:	00008bc8 	.word	0x00008bc8
    53f8:	00008ba0 	.word	0x00008ba0
    53fc:	401c0000 	.word	0x401c0000
    5400:	fcc00000 	.word	0xfcc00000
    5404:	3fe00000 	.word	0x3fe00000
    5408:	002a      	movs	r2, r5
    540a:	0033      	movs	r3, r6
    540c:	2000      	movs	r0, #0
    540e:	49b9      	ldr	r1, [pc, #740]	; (56f4 <_dtoa_r+0x6d0>)
    5410:	f7fd f942 	bl	2698 <__aeabi_dsub>
    5414:	9a08      	ldr	r2, [sp, #32]
    5416:	9b09      	ldr	r3, [sp, #36]	; 0x24
    5418:	f7fd fdf4 	bl	3004 <__aeabi_dcmplt>
    541c:	2800      	cmp	r0, #0
    541e:	d001      	beq.n	5424 <_dtoa_r+0x400>
    5420:	f000 fd74 	bl	5f0c <_dtoa_r+0xee8>
    5424:	46a1      	mov	r9, r4
    5426:	4544      	cmp	r4, r8
    5428:	d101      	bne.n	542e <_dtoa_r+0x40a>
    542a:	f000 fc33 	bl	5c94 <_dtoa_r+0xc70>
    542e:	9808      	ldr	r0, [sp, #32]
    5430:	9909      	ldr	r1, [sp, #36]	; 0x24
    5432:	2200      	movs	r2, #0
    5434:	4bb0      	ldr	r3, [pc, #704]	; (56f8 <_dtoa_r+0x6d4>)
    5436:	f7fc feaf 	bl	2198 <__aeabi_dmul>
    543a:	2200      	movs	r2, #0
    543c:	4bae      	ldr	r3, [pc, #696]	; (56f8 <_dtoa_r+0x6d4>)
    543e:	9008      	str	r0, [sp, #32]
    5440:	9109      	str	r1, [sp, #36]	; 0x24
    5442:	0028      	movs	r0, r5
    5444:	0031      	movs	r1, r6
    5446:	f7fc fea7 	bl	2198 <__aeabi_dmul>
    544a:	000d      	movs	r5, r1
    544c:	0004      	movs	r4, r0
    544e:	f7fd fc39 	bl	2cc4 <__aeabi_d2iz>
    5452:	0007      	movs	r7, r0
    5454:	f7fd fc6a 	bl	2d2c <__aeabi_i2d>
    5458:	0002      	movs	r2, r0
    545a:	000b      	movs	r3, r1
    545c:	0020      	movs	r0, r4
    545e:	0029      	movs	r1, r5
    5460:	f7fd f91a 	bl	2698 <__aeabi_dsub>
    5464:	464b      	mov	r3, r9
    5466:	3730      	adds	r7, #48	; 0x30
    5468:	b2ff      	uxtb	r7, r7
    546a:	1c5c      	adds	r4, r3, #1
    546c:	701f      	strb	r7, [r3, #0]
    546e:	9a08      	ldr	r2, [sp, #32]
    5470:	9b09      	ldr	r3, [sp, #36]	; 0x24
    5472:	0005      	movs	r5, r0
    5474:	000e      	movs	r6, r1
    5476:	f7fd fdc5 	bl	3004 <__aeabi_dcmplt>
    547a:	2800      	cmp	r0, #0
    547c:	d0c4      	beq.n	5408 <_dtoa_r+0x3e4>
    547e:	9b13      	ldr	r3, [sp, #76]	; 0x4c
    5480:	9303      	str	r3, [sp, #12]
    5482:	4659      	mov	r1, fp
    5484:	4650      	mov	r0, sl
    5486:	f001 fe19 	bl	70bc <_Bfree>
    548a:	2300      	movs	r3, #0
    548c:	7023      	strb	r3, [r4, #0]
    548e:	9b03      	ldr	r3, [sp, #12]
    5490:	9a24      	ldr	r2, [sp, #144]	; 0x90
    5492:	3301      	adds	r3, #1
    5494:	6013      	str	r3, [r2, #0]
    5496:	9b26      	ldr	r3, [sp, #152]	; 0x98
    5498:	2b00      	cmp	r3, #0
    549a:	d100      	bne.n	549e <_dtoa_r+0x47a>
    549c:	e3a8      	b.n	5bf0 <_dtoa_r+0xbcc>
    549e:	601c      	str	r4, [r3, #0]
    54a0:	980a      	ldr	r0, [sp, #40]	; 0x28
    54a2:	e5f4      	b.n	508e <_dtoa_r+0x6a>
    54a4:	9b16      	ldr	r3, [sp, #88]	; 0x58
    54a6:	4699      	mov	r9, r3
    54a8:	9b17      	ldr	r3, [sp, #92]	; 0x5c
    54aa:	444b      	add	r3, r9
    54ac:	001c      	movs	r4, r3
    54ae:	4b93      	ldr	r3, [pc, #588]	; (56fc <_dtoa_r+0x6d8>)
    54b0:	18e3      	adds	r3, r4, r3
    54b2:	2b20      	cmp	r3, #32
    54b4:	dc00      	bgt.n	54b8 <_dtoa_r+0x494>
    54b6:	e17e      	b.n	57b6 <_dtoa_r+0x792>
    54b8:	0031      	movs	r1, r6
    54ba:	4a91      	ldr	r2, [pc, #580]	; (5700 <_dtoa_r+0x6dc>)
    54bc:	4640      	mov	r0, r8
    54be:	18a2      	adds	r2, r4, r2
    54c0:	40d1      	lsrs	r1, r2
    54c2:	000a      	movs	r2, r1
    54c4:	2140      	movs	r1, #64	; 0x40
    54c6:	1acb      	subs	r3, r1, r3
    54c8:	4098      	lsls	r0, r3
    54ca:	4310      	orrs	r0, r2
    54cc:	f7fd fc70 	bl	2db0 <__aeabi_ui2d>
    54d0:	1e63      	subs	r3, r4, #1
    54d2:	4698      	mov	r8, r3
    54d4:	2301      	movs	r3, #1
    54d6:	4d8b      	ldr	r5, [pc, #556]	; (5704 <_dtoa_r+0x6e0>)
    54d8:	930f      	str	r3, [sp, #60]	; 0x3c
    54da:	1949      	adds	r1, r1, r5
    54dc:	e618      	b.n	5110 <_dtoa_r+0xec>
    54de:	488a      	ldr	r0, [pc, #552]	; (5708 <_dtoa_r+0x6e4>)
    54e0:	e5d5      	b.n	508e <_dtoa_r+0x6a>
    54e2:	2300      	movs	r3, #0
    54e4:	4652      	mov	r2, sl
    54e6:	2100      	movs	r1, #0
    54e8:	6453      	str	r3, [r2, #68]	; 0x44
    54ea:	4650      	mov	r0, sl
    54ec:	f001 fdbe 	bl	706c <_Balloc>
    54f0:	4653      	mov	r3, sl
    54f2:	6418      	str	r0, [r3, #64]	; 0x40
    54f4:	2301      	movs	r3, #1
    54f6:	425b      	negs	r3, r3
    54f8:	9307      	str	r3, [sp, #28]
    54fa:	930e      	str	r3, [sp, #56]	; 0x38
    54fc:	3302      	adds	r3, #2
    54fe:	2200      	movs	r2, #0
    5500:	930b      	str	r3, [sp, #44]	; 0x2c
    5502:	2300      	movs	r3, #0
    5504:	900a      	str	r0, [sp, #40]	; 0x28
    5506:	9223      	str	r2, [sp, #140]	; 0x8c
    5508:	9322      	str	r3, [sp, #136]	; 0x88
    550a:	9b17      	ldr	r3, [sp, #92]	; 0x5c
    550c:	2b00      	cmp	r3, #0
    550e:	da00      	bge.n	5512 <_dtoa_r+0x4ee>
    5510:	e0ab      	b.n	566a <_dtoa_r+0x646>
    5512:	9a03      	ldr	r2, [sp, #12]
    5514:	2a0e      	cmp	r2, #14
    5516:	dd00      	ble.n	551a <_dtoa_r+0x4f6>
    5518:	e0a7      	b.n	566a <_dtoa_r+0x646>
    551a:	4b7c      	ldr	r3, [pc, #496]	; (570c <_dtoa_r+0x6e8>)
    551c:	00d2      	lsls	r2, r2, #3
    551e:	189b      	adds	r3, r3, r2
    5520:	685c      	ldr	r4, [r3, #4]
    5522:	681b      	ldr	r3, [r3, #0]
    5524:	9304      	str	r3, [sp, #16]
    5526:	9405      	str	r4, [sp, #20]
    5528:	9b23      	ldr	r3, [sp, #140]	; 0x8c
    552a:	2b00      	cmp	r3, #0
    552c:	da00      	bge.n	5530 <_dtoa_r+0x50c>
    552e:	e2a7      	b.n	5a80 <_dtoa_r+0xa5c>
    5530:	9c04      	ldr	r4, [sp, #16]
    5532:	9d05      	ldr	r5, [sp, #20]
    5534:	0030      	movs	r0, r6
    5536:	0022      	movs	r2, r4
    5538:	002b      	movs	r3, r5
    553a:	0039      	movs	r1, r7
    553c:	f7fc faf8 	bl	1b30 <__aeabi_ddiv>
    5540:	f7fd fbc0 	bl	2cc4 <__aeabi_d2iz>
    5544:	4680      	mov	r8, r0
    5546:	f7fd fbf1 	bl	2d2c <__aeabi_i2d>
    554a:	0022      	movs	r2, r4
    554c:	002b      	movs	r3, r5
    554e:	f7fc fe23 	bl	2198 <__aeabi_dmul>
    5552:	0002      	movs	r2, r0
    5554:	000b      	movs	r3, r1
    5556:	0030      	movs	r0, r6
    5558:	0039      	movs	r1, r7
    555a:	f7fd f89d 	bl	2698 <__aeabi_dsub>
    555e:	4643      	mov	r3, r8
    5560:	9a0a      	ldr	r2, [sp, #40]	; 0x28
    5562:	3330      	adds	r3, #48	; 0x30
    5564:	7013      	strb	r3, [r2, #0]
    5566:	9b07      	ldr	r3, [sp, #28]
    5568:	0006      	movs	r6, r0
    556a:	000f      	movs	r7, r1
    556c:	1c54      	adds	r4, r2, #1
    556e:	2b01      	cmp	r3, #1
    5570:	d04e      	beq.n	5610 <_dtoa_r+0x5ec>
    5572:	2200      	movs	r2, #0
    5574:	4b60      	ldr	r3, [pc, #384]	; (56f8 <_dtoa_r+0x6d4>)
    5576:	f7fc fe0f 	bl	2198 <__aeabi_dmul>
    557a:	2200      	movs	r2, #0
    557c:	2300      	movs	r3, #0
    557e:	0006      	movs	r6, r0
    5580:	000f      	movs	r7, r1
    5582:	f7fd fd39 	bl	2ff8 <__aeabi_dcmpeq>
    5586:	2800      	cmp	r0, #0
    5588:	d000      	beq.n	558c <_dtoa_r+0x568>
    558a:	e77a      	b.n	5482 <_dtoa_r+0x45e>
    558c:	9b0a      	ldr	r3, [sp, #40]	; 0x28
    558e:	9a07      	ldr	r2, [sp, #28]
    5590:	1c9d      	adds	r5, r3, #2
    5592:	469c      	mov	ip, r3
    5594:	465b      	mov	r3, fp
    5596:	9306      	str	r3, [sp, #24]
    5598:	4653      	mov	r3, sl
    559a:	4462      	add	r2, ip
    559c:	46aa      	mov	sl, r5
    559e:	9c04      	ldr	r4, [sp, #16]
    55a0:	9d05      	ldr	r5, [sp, #20]
    55a2:	4691      	mov	r9, r2
    55a4:	9307      	str	r3, [sp, #28]
    55a6:	e00f      	b.n	55c8 <_dtoa_r+0x5a4>
    55a8:	2200      	movs	r2, #0
    55aa:	4b53      	ldr	r3, [pc, #332]	; (56f8 <_dtoa_r+0x6d4>)
    55ac:	f7fc fdf4 	bl	2198 <__aeabi_dmul>
    55b0:	2301      	movs	r3, #1
    55b2:	469c      	mov	ip, r3
    55b4:	2200      	movs	r2, #0
    55b6:	2300      	movs	r3, #0
    55b8:	0006      	movs	r6, r0
    55ba:	000f      	movs	r7, r1
    55bc:	44e2      	add	sl, ip
    55be:	f7fd fd1b 	bl	2ff8 <__aeabi_dcmpeq>
    55c2:	2800      	cmp	r0, #0
    55c4:	d000      	beq.n	55c8 <_dtoa_r+0x5a4>
    55c6:	e2d9      	b.n	5b7c <_dtoa_r+0xb58>
    55c8:	0022      	movs	r2, r4
    55ca:	002b      	movs	r3, r5
    55cc:	0030      	movs	r0, r6
    55ce:	0039      	movs	r1, r7
    55d0:	f7fc faae 	bl	1b30 <__aeabi_ddiv>
    55d4:	f7fd fb76 	bl	2cc4 <__aeabi_d2iz>
    55d8:	4680      	mov	r8, r0
    55da:	f7fd fba7 	bl	2d2c <__aeabi_i2d>
    55de:	0022      	movs	r2, r4
    55e0:	002b      	movs	r3, r5
    55e2:	f7fc fdd9 	bl	2198 <__aeabi_dmul>
    55e6:	0002      	movs	r2, r0
    55e8:	000b      	movs	r3, r1
    55ea:	0030      	movs	r0, r6
    55ec:	0039      	movs	r1, r7
    55ee:	f7fd f853 	bl	2698 <__aeabi_dsub>
    55f2:	4653      	mov	r3, sl
    55f4:	4642      	mov	r2, r8
    55f6:	3b01      	subs	r3, #1
    55f8:	3230      	adds	r2, #48	; 0x30
    55fa:	0006      	movs	r6, r0
    55fc:	000f      	movs	r7, r1
    55fe:	46d3      	mov	fp, sl
    5600:	701a      	strb	r2, [r3, #0]
    5602:	45d1      	cmp	r9, sl
    5604:	d1d0      	bne.n	55a8 <_dtoa_r+0x584>
    5606:	9b06      	ldr	r3, [sp, #24]
    5608:	4654      	mov	r4, sl
    560a:	469b      	mov	fp, r3
    560c:	9b07      	ldr	r3, [sp, #28]
    560e:	469a      	mov	sl, r3
    5610:	0032      	movs	r2, r6
    5612:	003b      	movs	r3, r7
    5614:	0030      	movs	r0, r6
    5616:	0039      	movs	r1, r7
    5618:	f002 fd90 	bl	813c <__aeabi_dadd>
    561c:	0006      	movs	r6, r0
    561e:	000f      	movs	r7, r1
    5620:	0002      	movs	r2, r0
    5622:	000b      	movs	r3, r1
    5624:	9804      	ldr	r0, [sp, #16]
    5626:	9905      	ldr	r1, [sp, #20]
    5628:	f7fd fcec 	bl	3004 <__aeabi_dcmplt>
    562c:	2800      	cmp	r0, #0
    562e:	d10c      	bne.n	564a <_dtoa_r+0x626>
    5630:	9804      	ldr	r0, [sp, #16]
    5632:	9905      	ldr	r1, [sp, #20]
    5634:	0032      	movs	r2, r6
    5636:	003b      	movs	r3, r7
    5638:	f7fd fcde 	bl	2ff8 <__aeabi_dcmpeq>
    563c:	2800      	cmp	r0, #0
    563e:	d100      	bne.n	5642 <_dtoa_r+0x61e>
    5640:	e71f      	b.n	5482 <_dtoa_r+0x45e>
    5642:	4643      	mov	r3, r8
    5644:	07db      	lsls	r3, r3, #31
    5646:	d400      	bmi.n	564a <_dtoa_r+0x626>
    5648:	e71b      	b.n	5482 <_dtoa_r+0x45e>
    564a:	1e65      	subs	r5, r4, #1
    564c:	782f      	ldrb	r7, [r5, #0]
    564e:	9b0a      	ldr	r3, [sp, #40]	; 0x28
    5650:	e006      	b.n	5660 <_dtoa_r+0x63c>
    5652:	429d      	cmp	r5, r3
    5654:	d100      	bne.n	5658 <_dtoa_r+0x634>
    5656:	e351      	b.n	5cfc <_dtoa_r+0xcd8>
    5658:	3c02      	subs	r4, #2
    565a:	7827      	ldrb	r7, [r4, #0]
    565c:	002c      	movs	r4, r5
    565e:	3d01      	subs	r5, #1
    5660:	2f39      	cmp	r7, #57	; 0x39
    5662:	d0f6      	beq.n	5652 <_dtoa_r+0x62e>
    5664:	3701      	adds	r7, #1
    5666:	702f      	strb	r7, [r5, #0]
    5668:	e70b      	b.n	5482 <_dtoa_r+0x45e>
    566a:	9a0b      	ldr	r2, [sp, #44]	; 0x2c
    566c:	2a00      	cmp	r2, #0
    566e:	d04f      	beq.n	5710 <_dtoa_r+0x6ec>
    5670:	9a22      	ldr	r2, [sp, #136]	; 0x88
    5672:	2a01      	cmp	r2, #1
    5674:	dc00      	bgt.n	5678 <_dtoa_r+0x654>
    5676:	e22c      	b.n	5ad2 <_dtoa_r+0xaae>
    5678:	9b07      	ldr	r3, [sp, #28]
    567a:	1e5c      	subs	r4, r3, #1
    567c:	464b      	mov	r3, r9
    567e:	45a1      	cmp	r9, r4
    5680:	da00      	bge.n	5684 <_dtoa_r+0x660>
    5682:	e2b8      	b.n	5bf6 <_dtoa_r+0xbd2>
    5684:	1b1c      	subs	r4, r3, r4
    5686:	9b07      	ldr	r3, [sp, #28]
    5688:	2b00      	cmp	r3, #0
    568a:	da00      	bge.n	568e <_dtoa_r+0x66a>
    568c:	e3d4      	b.n	5e38 <_dtoa_r+0xe14>
    568e:	9b06      	ldr	r3, [sp, #24]
    5690:	9308      	str	r3, [sp, #32]
    5692:	9b07      	ldr	r3, [sp, #28]
    5694:	9a06      	ldr	r2, [sp, #24]
    5696:	2101      	movs	r1, #1
    5698:	4694      	mov	ip, r2
    569a:	449c      	add	ip, r3
    569c:	4662      	mov	r2, ip
    569e:	9206      	str	r2, [sp, #24]
    56a0:	9a04      	ldr	r2, [sp, #16]
    56a2:	4650      	mov	r0, sl
    56a4:	4694      	mov	ip, r2
    56a6:	449c      	add	ip, r3
    56a8:	4663      	mov	r3, ip
    56aa:	9304      	str	r3, [sp, #16]
    56ac:	f001 fd9e 	bl	71ec <__i2b>
    56b0:	4680      	mov	r8, r0
    56b2:	e032      	b.n	571a <_dtoa_r+0x6f6>
    56b4:	9a06      	ldr	r2, [sp, #24]
    56b6:	9b03      	ldr	r3, [sp, #12]
    56b8:	1ad2      	subs	r2, r2, r3
    56ba:	425b      	negs	r3, r3
    56bc:	4699      	mov	r9, r3
    56be:	2300      	movs	r3, #0
    56c0:	9206      	str	r2, [sp, #24]
    56c2:	930d      	str	r3, [sp, #52]	; 0x34
    56c4:	e579      	b.n	51ba <_dtoa_r+0x196>
    56c6:	9803      	ldr	r0, [sp, #12]
    56c8:	f7fd fb30 	bl	2d2c <__aeabi_i2d>
    56cc:	000b      	movs	r3, r1
    56ce:	0002      	movs	r2, r0
    56d0:	0029      	movs	r1, r5
    56d2:	0020      	movs	r0, r4
    56d4:	f7fd fc90 	bl	2ff8 <__aeabi_dcmpeq>
    56d8:	0002      	movs	r2, r0
    56da:	4250      	negs	r0, r2
    56dc:	4150      	adcs	r0, r2
    56de:	9b03      	ldr	r3, [sp, #12]
    56e0:	1a1b      	subs	r3, r3, r0
    56e2:	9303      	str	r3, [sp, #12]
    56e4:	e53d      	b.n	5162 <_dtoa_r+0x13e>
    56e6:	2301      	movs	r3, #1
    56e8:	1a9b      	subs	r3, r3, r2
    56ea:	9306      	str	r3, [sp, #24]
    56ec:	2300      	movs	r3, #0
    56ee:	9304      	str	r3, [sp, #16]
    56f0:	e557      	b.n	51a2 <_dtoa_r+0x17e>
    56f2:	46c0      	nop			; (mov r8, r8)
    56f4:	3ff00000 	.word	0x3ff00000
    56f8:	40240000 	.word	0x40240000
    56fc:	00000432 	.word	0x00000432
    5700:	00000412 	.word	0x00000412
    5704:	fe100000 	.word	0xfe100000
    5708:	00008b6c 	.word	0x00008b6c
    570c:	00008bc8 	.word	0x00008bc8
    5710:	9b06      	ldr	r3, [sp, #24]
    5712:	464c      	mov	r4, r9
    5714:	9308      	str	r3, [sp, #32]
    5716:	2300      	movs	r3, #0
    5718:	4698      	mov	r8, r3
    571a:	9908      	ldr	r1, [sp, #32]
    571c:	1e0b      	subs	r3, r1, #0
    571e:	dd0e      	ble.n	573e <_dtoa_r+0x71a>
    5720:	9a04      	ldr	r2, [sp, #16]
    5722:	2a00      	cmp	r2, #0
    5724:	dd0b      	ble.n	573e <_dtoa_r+0x71a>
    5726:	4293      	cmp	r3, r2
    5728:	dd00      	ble.n	572c <_dtoa_r+0x708>
    572a:	e187      	b.n	5a3c <_dtoa_r+0xa18>
    572c:	9a06      	ldr	r2, [sp, #24]
    572e:	1ad2      	subs	r2, r2, r3
    5730:	9206      	str	r2, [sp, #24]
    5732:	9a08      	ldr	r2, [sp, #32]
    5734:	1ad2      	subs	r2, r2, r3
    5736:	9208      	str	r2, [sp, #32]
    5738:	9a04      	ldr	r2, [sp, #16]
    573a:	1ad3      	subs	r3, r2, r3
    573c:	9304      	str	r3, [sp, #16]
    573e:	464b      	mov	r3, r9
    5740:	2b00      	cmp	r3, #0
    5742:	d01a      	beq.n	577a <_dtoa_r+0x756>
    5744:	9b0b      	ldr	r3, [sp, #44]	; 0x2c
    5746:	2b00      	cmp	r3, #0
    5748:	d100      	bne.n	574c <_dtoa_r+0x728>
    574a:	e1bb      	b.n	5ac4 <_dtoa_r+0xaa0>
    574c:	2c00      	cmp	r4, #0
    574e:	dd10      	ble.n	5772 <_dtoa_r+0x74e>
    5750:	4641      	mov	r1, r8
    5752:	0022      	movs	r2, r4
    5754:	4650      	mov	r0, sl
    5756:	f001 fdfd 	bl	7354 <__pow5mult>
    575a:	465a      	mov	r2, fp
    575c:	0001      	movs	r1, r0
    575e:	4680      	mov	r8, r0
    5760:	4650      	mov	r0, sl
    5762:	f001 fd4d 	bl	7200 <__multiply>
    5766:	0005      	movs	r5, r0
    5768:	4659      	mov	r1, fp
    576a:	4650      	mov	r0, sl
    576c:	f001 fca6 	bl	70bc <_Bfree>
    5770:	46ab      	mov	fp, r5
    5772:	464b      	mov	r3, r9
    5774:	1b1a      	subs	r2, r3, r4
    5776:	d000      	beq.n	577a <_dtoa_r+0x756>
    5778:	e1a5      	b.n	5ac6 <_dtoa_r+0xaa2>
    577a:	2101      	movs	r1, #1
    577c:	4650      	mov	r0, sl
    577e:	f001 fd35 	bl	71ec <__i2b>
    5782:	9b0d      	ldr	r3, [sp, #52]	; 0x34
    5784:	4681      	mov	r9, r0
    5786:	2b00      	cmp	r3, #0
    5788:	dd1d      	ble.n	57c6 <_dtoa_r+0x7a2>
    578a:	001a      	movs	r2, r3
    578c:	0001      	movs	r1, r0
    578e:	4650      	mov	r0, sl
    5790:	f001 fde0 	bl	7354 <__pow5mult>
    5794:	9b22      	ldr	r3, [sp, #136]	; 0x88
    5796:	4681      	mov	r9, r0
    5798:	2b01      	cmp	r3, #1
    579a:	dc00      	bgt.n	579e <_dtoa_r+0x77a>
    579c:	e150      	b.n	5a40 <_dtoa_r+0xa1c>
    579e:	2400      	movs	r4, #0
    57a0:	464b      	mov	r3, r9
    57a2:	691b      	ldr	r3, [r3, #16]
    57a4:	3303      	adds	r3, #3
    57a6:	009b      	lsls	r3, r3, #2
    57a8:	444b      	add	r3, r9
    57aa:	6858      	ldr	r0, [r3, #4]
    57ac:	f001 fcd6 	bl	715c <__hi0bits>
    57b0:	2320      	movs	r3, #32
    57b2:	1a1b      	subs	r3, r3, r0
    57b4:	e010      	b.n	57d8 <_dtoa_r+0x7b4>
    57b6:	2220      	movs	r2, #32
    57b8:	0030      	movs	r0, r6
    57ba:	1ad3      	subs	r3, r2, r3
    57bc:	4098      	lsls	r0, r3
    57be:	e685      	b.n	54cc <_dtoa_r+0x4a8>
    57c0:	2300      	movs	r3, #0
    57c2:	930c      	str	r3, [sp, #48]	; 0x30
    57c4:	e4e3      	b.n	518e <_dtoa_r+0x16a>
    57c6:	9b22      	ldr	r3, [sp, #136]	; 0x88
    57c8:	2400      	movs	r4, #0
    57ca:	2b01      	cmp	r3, #1
    57cc:	dc00      	bgt.n	57d0 <_dtoa_r+0x7ac>
    57ce:	e18b      	b.n	5ae8 <_dtoa_r+0xac4>
    57d0:	9a0d      	ldr	r2, [sp, #52]	; 0x34
    57d2:	2301      	movs	r3, #1
    57d4:	2a00      	cmp	r2, #0
    57d6:	d1e3      	bne.n	57a0 <_dtoa_r+0x77c>
    57d8:	9904      	ldr	r1, [sp, #16]
    57da:	201f      	movs	r0, #31
    57dc:	468c      	mov	ip, r1
    57de:	4463      	add	r3, ip
    57e0:	4018      	ands	r0, r3
    57e2:	d100      	bne.n	57e6 <_dtoa_r+0x7c2>
    57e4:	e0ae      	b.n	5944 <_dtoa_r+0x920>
    57e6:	2320      	movs	r3, #32
    57e8:	1a1b      	subs	r3, r3, r0
    57ea:	2b04      	cmp	r3, #4
    57ec:	dc00      	bgt.n	57f0 <_dtoa_r+0x7cc>
    57ee:	e3cc      	b.n	5f8a <_dtoa_r+0xf66>
    57f0:	231c      	movs	r3, #28
    57f2:	1a18      	subs	r0, r3, r0
    57f4:	9b06      	ldr	r3, [sp, #24]
    57f6:	469c      	mov	ip, r3
    57f8:	4484      	add	ip, r0
    57fa:	4663      	mov	r3, ip
    57fc:	9306      	str	r3, [sp, #24]
    57fe:	9b08      	ldr	r3, [sp, #32]
    5800:	469c      	mov	ip, r3
    5802:	4484      	add	ip, r0
    5804:	4663      	mov	r3, ip
    5806:	468c      	mov	ip, r1
    5808:	4484      	add	ip, r0
    580a:	9308      	str	r3, [sp, #32]
    580c:	4663      	mov	r3, ip
    580e:	9304      	str	r3, [sp, #16]
    5810:	9b06      	ldr	r3, [sp, #24]
    5812:	2b00      	cmp	r3, #0
    5814:	dd05      	ble.n	5822 <_dtoa_r+0x7fe>
    5816:	4659      	mov	r1, fp
    5818:	001a      	movs	r2, r3
    581a:	4650      	mov	r0, sl
    581c:	f001 fdfa 	bl	7414 <__lshift>
    5820:	4683      	mov	fp, r0
    5822:	9b04      	ldr	r3, [sp, #16]
    5824:	2b00      	cmp	r3, #0
    5826:	dd05      	ble.n	5834 <_dtoa_r+0x810>
    5828:	4649      	mov	r1, r9
    582a:	001a      	movs	r2, r3
    582c:	4650      	mov	r0, sl
    582e:	f001 fdf1 	bl	7414 <__lshift>
    5832:	4681      	mov	r9, r0
    5834:	9b0c      	ldr	r3, [sp, #48]	; 0x30
    5836:	2b00      	cmp	r3, #0
    5838:	d000      	beq.n	583c <_dtoa_r+0x818>
    583a:	e094      	b.n	5966 <_dtoa_r+0x942>
    583c:	9b07      	ldr	r3, [sp, #28]
    583e:	2b00      	cmp	r3, #0
    5840:	dc00      	bgt.n	5844 <_dtoa_r+0x820>
    5842:	e175      	b.n	5b30 <_dtoa_r+0xb0c>
    5844:	9b0b      	ldr	r3, [sp, #44]	; 0x2c
    5846:	2b00      	cmp	r3, #0
    5848:	d100      	bne.n	584c <_dtoa_r+0x828>
    584a:	e0a6      	b.n	599a <_dtoa_r+0x976>
    584c:	9b08      	ldr	r3, [sp, #32]
    584e:	2b00      	cmp	r3, #0
    5850:	dd05      	ble.n	585e <_dtoa_r+0x83a>
    5852:	4641      	mov	r1, r8
    5854:	001a      	movs	r2, r3
    5856:	4650      	mov	r0, sl
    5858:	f001 fddc 	bl	7414 <__lshift>
    585c:	4680      	mov	r8, r0
    585e:	4643      	mov	r3, r8
    5860:	930c      	str	r3, [sp, #48]	; 0x30
    5862:	2c00      	cmp	r4, #0
    5864:	d000      	beq.n	5868 <_dtoa_r+0x844>
    5866:	e250      	b.n	5d0a <_dtoa_r+0xce6>
    5868:	9c07      	ldr	r4, [sp, #28]
    586a:	9a0a      	ldr	r2, [sp, #40]	; 0x28
    586c:	3c01      	subs	r4, #1
    586e:	0023      	movs	r3, r4
    5870:	4694      	mov	ip, r2
    5872:	4463      	add	r3, ip
    5874:	9308      	str	r3, [sp, #32]
    5876:	2301      	movs	r3, #1
    5878:	4033      	ands	r3, r6
    587a:	9307      	str	r3, [sp, #28]
    587c:	464b      	mov	r3, r9
    587e:	9306      	str	r3, [sp, #24]
    5880:	9b0c      	ldr	r3, [sp, #48]	; 0x30
    5882:	4657      	mov	r7, sl
    5884:	4645      	mov	r5, r8
    5886:	465e      	mov	r6, fp
    5888:	4692      	mov	sl, r2
    588a:	4698      	mov	r8, r3
    588c:	9b06      	ldr	r3, [sp, #24]
    588e:	0030      	movs	r0, r6
    5890:	0019      	movs	r1, r3
    5892:	4699      	mov	r9, r3
    5894:	f7ff fb1c 	bl	4ed0 <quorem>
    5898:	0003      	movs	r3, r0
    589a:	900b      	str	r0, [sp, #44]	; 0x2c
    589c:	3330      	adds	r3, #48	; 0x30
    589e:	0029      	movs	r1, r5
    58a0:	0030      	movs	r0, r6
    58a2:	9304      	str	r3, [sp, #16]
    58a4:	f001 fe16 	bl	74d4 <__mcmp>
    58a8:	4649      	mov	r1, r9
    58aa:	0004      	movs	r4, r0
    58ac:	4642      	mov	r2, r8
    58ae:	0038      	movs	r0, r7
    58b0:	f001 fe2a 	bl	7508 <__mdiff>
    58b4:	68c3      	ldr	r3, [r0, #12]
    58b6:	4681      	mov	r9, r0
    58b8:	2b00      	cmp	r3, #0
    58ba:	d000      	beq.n	58be <_dtoa_r+0x89a>
    58bc:	e11e      	b.n	5afc <_dtoa_r+0xad8>
    58be:	0001      	movs	r1, r0
    58c0:	0030      	movs	r0, r6
    58c2:	f001 fe07 	bl	74d4 <__mcmp>
    58c6:	4683      	mov	fp, r0
    58c8:	4649      	mov	r1, r9
    58ca:	0038      	movs	r0, r7
    58cc:	f001 fbf6 	bl	70bc <_Bfree>
    58d0:	465b      	mov	r3, fp
    58d2:	9a22      	ldr	r2, [sp, #136]	; 0x88
    58d4:	4313      	orrs	r3, r2
    58d6:	d103      	bne.n	58e0 <_dtoa_r+0x8bc>
    58d8:	9b07      	ldr	r3, [sp, #28]
    58da:	2b00      	cmp	r3, #0
    58dc:	d100      	bne.n	58e0 <_dtoa_r+0x8bc>
    58de:	e306      	b.n	5eee <_dtoa_r+0xeca>
    58e0:	2c00      	cmp	r4, #0
    58e2:	da00      	bge.n	58e6 <_dtoa_r+0x8c2>
    58e4:	e1a8      	b.n	5c38 <_dtoa_r+0xc14>
    58e6:	9b22      	ldr	r3, [sp, #136]	; 0x88
    58e8:	431c      	orrs	r4, r3
    58ea:	d103      	bne.n	58f4 <_dtoa_r+0x8d0>
    58ec:	9b07      	ldr	r3, [sp, #28]
    58ee:	2b00      	cmp	r3, #0
    58f0:	d100      	bne.n	58f4 <_dtoa_r+0x8d0>
    58f2:	e1a1      	b.n	5c38 <_dtoa_r+0xc14>
    58f4:	465b      	mov	r3, fp
    58f6:	2b00      	cmp	r3, #0
    58f8:	dd00      	ble.n	58fc <_dtoa_r+0x8d8>
    58fa:	e282      	b.n	5e02 <_dtoa_r+0xdde>
    58fc:	4669      	mov	r1, sp
    58fe:	4652      	mov	r2, sl
    5900:	4653      	mov	r3, sl
    5902:	7c09      	ldrb	r1, [r1, #16]
    5904:	1c5c      	adds	r4, r3, #1
    5906:	7011      	strb	r1, [r2, #0]
    5908:	9a08      	ldr	r2, [sp, #32]
    590a:	4552      	cmp	r2, sl
    590c:	d100      	bne.n	5910 <_dtoa_r+0x8ec>
    590e:	e28a      	b.n	5e26 <_dtoa_r+0xe02>
    5910:	0031      	movs	r1, r6
    5912:	2300      	movs	r3, #0
    5914:	220a      	movs	r2, #10
    5916:	0038      	movs	r0, r7
    5918:	f001 fbda 	bl	70d0 <__multadd>
    591c:	2300      	movs	r3, #0
    591e:	0006      	movs	r6, r0
    5920:	220a      	movs	r2, #10
    5922:	0029      	movs	r1, r5
    5924:	0038      	movs	r0, r7
    5926:	4545      	cmp	r5, r8
    5928:	d100      	bne.n	592c <_dtoa_r+0x908>
    592a:	e0e1      	b.n	5af0 <_dtoa_r+0xacc>
    592c:	f001 fbd0 	bl	70d0 <__multadd>
    5930:	4641      	mov	r1, r8
    5932:	0005      	movs	r5, r0
    5934:	2300      	movs	r3, #0
    5936:	220a      	movs	r2, #10
    5938:	0038      	movs	r0, r7
    593a:	f001 fbc9 	bl	70d0 <__multadd>
    593e:	46a2      	mov	sl, r4
    5940:	4680      	mov	r8, r0
    5942:	e7a3      	b.n	588c <_dtoa_r+0x868>
    5944:	201c      	movs	r0, #28
    5946:	9b06      	ldr	r3, [sp, #24]
    5948:	469c      	mov	ip, r3
    594a:	4484      	add	ip, r0
    594c:	4663      	mov	r3, ip
    594e:	9306      	str	r3, [sp, #24]
    5950:	9b08      	ldr	r3, [sp, #32]
    5952:	469c      	mov	ip, r3
    5954:	4484      	add	ip, r0
    5956:	4663      	mov	r3, ip
    5958:	9308      	str	r3, [sp, #32]
    595a:	9b04      	ldr	r3, [sp, #16]
    595c:	469c      	mov	ip, r3
    595e:	4484      	add	ip, r0
    5960:	4663      	mov	r3, ip
    5962:	9304      	str	r3, [sp, #16]
    5964:	e754      	b.n	5810 <_dtoa_r+0x7ec>
    5966:	4649      	mov	r1, r9
    5968:	4658      	mov	r0, fp
    596a:	f001 fdb3 	bl	74d4 <__mcmp>
    596e:	2800      	cmp	r0, #0
    5970:	db00      	blt.n	5974 <_dtoa_r+0x950>
    5972:	e763      	b.n	583c <_dtoa_r+0x818>
    5974:	9b03      	ldr	r3, [sp, #12]
    5976:	4659      	mov	r1, fp
    5978:	3b01      	subs	r3, #1
    597a:	9303      	str	r3, [sp, #12]
    597c:	220a      	movs	r2, #10
    597e:	2300      	movs	r3, #0
    5980:	4650      	mov	r0, sl
    5982:	f001 fba5 	bl	70d0 <__multadd>
    5986:	9b0b      	ldr	r3, [sp, #44]	; 0x2c
    5988:	4683      	mov	fp, r0
    598a:	2b00      	cmp	r3, #0
    598c:	d000      	beq.n	5990 <_dtoa_r+0x96c>
    598e:	e2ca      	b.n	5f26 <_dtoa_r+0xf02>
    5990:	9b0e      	ldr	r3, [sp, #56]	; 0x38
    5992:	2b00      	cmp	r3, #0
    5994:	dc00      	bgt.n	5998 <_dtoa_r+0x974>
    5996:	e2d8      	b.n	5f4a <_dtoa_r+0xf26>
    5998:	9307      	str	r3, [sp, #28]
    599a:	9b0a      	ldr	r3, [sp, #40]	; 0x28
    599c:	465d      	mov	r5, fp
    599e:	2400      	movs	r4, #0
    59a0:	9f07      	ldr	r7, [sp, #28]
    59a2:	469b      	mov	fp, r3
    59a4:	e006      	b.n	59b4 <_dtoa_r+0x990>
    59a6:	0029      	movs	r1, r5
    59a8:	2300      	movs	r3, #0
    59aa:	220a      	movs	r2, #10
    59ac:	4650      	mov	r0, sl
    59ae:	f001 fb8f 	bl	70d0 <__multadd>
    59b2:	0005      	movs	r5, r0
    59b4:	4649      	mov	r1, r9
    59b6:	0028      	movs	r0, r5
    59b8:	f7ff fa8a 	bl	4ed0 <quorem>
    59bc:	465b      	mov	r3, fp
    59be:	3030      	adds	r0, #48	; 0x30
    59c0:	5518      	strb	r0, [r3, r4]
    59c2:	3401      	adds	r4, #1
    59c4:	42bc      	cmp	r4, r7
    59c6:	dbee      	blt.n	59a6 <_dtoa_r+0x982>
    59c8:	46ab      	mov	fp, r5
    59ca:	0006      	movs	r6, r0
    59cc:	9c07      	ldr	r4, [sp, #28]
    59ce:	2c00      	cmp	r4, #0
    59d0:	dc00      	bgt.n	59d4 <_dtoa_r+0x9b0>
    59d2:	e237      	b.n	5e44 <_dtoa_r+0xe20>
    59d4:	9b0a      	ldr	r3, [sp, #40]	; 0x28
    59d6:	2700      	movs	r7, #0
    59d8:	469c      	mov	ip, r3
    59da:	4464      	add	r4, ip
    59dc:	4659      	mov	r1, fp
    59de:	2201      	movs	r2, #1
    59e0:	4650      	mov	r0, sl
    59e2:	f001 fd17 	bl	7414 <__lshift>
    59e6:	4649      	mov	r1, r9
    59e8:	4683      	mov	fp, r0
    59ea:	f001 fd73 	bl	74d4 <__mcmp>
    59ee:	2800      	cmp	r0, #0
    59f0:	dc00      	bgt.n	59f4 <_dtoa_r+0x9d0>
    59f2:	e144      	b.n	5c7e <_dtoa_r+0xc5a>
    59f4:	1e65      	subs	r5, r4, #1
    59f6:	782b      	ldrb	r3, [r5, #0]
    59f8:	9a0a      	ldr	r2, [sp, #40]	; 0x28
    59fa:	e006      	b.n	5a0a <_dtoa_r+0x9e6>
    59fc:	4295      	cmp	r5, r2
    59fe:	d100      	bne.n	5a02 <_dtoa_r+0x9de>
    5a00:	e0b1      	b.n	5b66 <_dtoa_r+0xb42>
    5a02:	3c02      	subs	r4, #2
    5a04:	7823      	ldrb	r3, [r4, #0]
    5a06:	002c      	movs	r4, r5
    5a08:	3d01      	subs	r5, #1
    5a0a:	2b39      	cmp	r3, #57	; 0x39
    5a0c:	d0f6      	beq.n	59fc <_dtoa_r+0x9d8>
    5a0e:	3301      	adds	r3, #1
    5a10:	702b      	strb	r3, [r5, #0]
    5a12:	4649      	mov	r1, r9
    5a14:	4650      	mov	r0, sl
    5a16:	f001 fb51 	bl	70bc <_Bfree>
    5a1a:	4643      	mov	r3, r8
    5a1c:	2b00      	cmp	r3, #0
    5a1e:	d100      	bne.n	5a22 <_dtoa_r+0x9fe>
    5a20:	e52f      	b.n	5482 <_dtoa_r+0x45e>
    5a22:	2f00      	cmp	r7, #0
    5a24:	d005      	beq.n	5a32 <_dtoa_r+0xa0e>
    5a26:	4547      	cmp	r7, r8
    5a28:	d003      	beq.n	5a32 <_dtoa_r+0xa0e>
    5a2a:	0039      	movs	r1, r7
    5a2c:	4650      	mov	r0, sl
    5a2e:	f001 fb45 	bl	70bc <_Bfree>
    5a32:	4641      	mov	r1, r8
    5a34:	4650      	mov	r0, sl
    5a36:	f001 fb41 	bl	70bc <_Bfree>
    5a3a:	e522      	b.n	5482 <_dtoa_r+0x45e>
    5a3c:	0013      	movs	r3, r2
    5a3e:	e675      	b.n	572c <_dtoa_r+0x708>
    5a40:	2e00      	cmp	r6, #0
    5a42:	d000      	beq.n	5a46 <_dtoa_r+0xa22>
    5a44:	e6ab      	b.n	579e <_dtoa_r+0x77a>
    5a46:	033b      	lsls	r3, r7, #12
    5a48:	2400      	movs	r4, #0
    5a4a:	2b00      	cmp	r3, #0
    5a4c:	d000      	beq.n	5a50 <_dtoa_r+0xa2c>
    5a4e:	e6bf      	b.n	57d0 <_dtoa_r+0x7ac>
    5a50:	4bba      	ldr	r3, [pc, #744]	; (5d3c <_dtoa_r+0xd18>)
    5a52:	423b      	tst	r3, r7
    5a54:	d100      	bne.n	5a58 <_dtoa_r+0xa34>
    5a56:	e6bb      	b.n	57d0 <_dtoa_r+0x7ac>
    5a58:	9b06      	ldr	r3, [sp, #24]
    5a5a:	3401      	adds	r4, #1
    5a5c:	3301      	adds	r3, #1
    5a5e:	9306      	str	r3, [sp, #24]
    5a60:	9b04      	ldr	r3, [sp, #16]
    5a62:	3301      	adds	r3, #1
    5a64:	9304      	str	r3, [sp, #16]
    5a66:	e6b3      	b.n	57d0 <_dtoa_r+0x7ac>
    5a68:	2301      	movs	r3, #1
    5a6a:	930b      	str	r3, [sp, #44]	; 0x2c
    5a6c:	9b23      	ldr	r3, [sp, #140]	; 0x8c
    5a6e:	2b00      	cmp	r3, #0
    5a70:	dc00      	bgt.n	5a74 <_dtoa_r+0xa50>
    5a72:	e0d1      	b.n	5c18 <_dtoa_r+0xbf4>
    5a74:	001d      	movs	r5, r3
    5a76:	4698      	mov	r8, r3
    5a78:	930e      	str	r3, [sp, #56]	; 0x38
    5a7a:	9307      	str	r3, [sp, #28]
    5a7c:	f7ff fbc8 	bl	5210 <_dtoa_r+0x1ec>
    5a80:	9b07      	ldr	r3, [sp, #28]
    5a82:	2b00      	cmp	r3, #0
    5a84:	dd00      	ble.n	5a88 <_dtoa_r+0xa64>
    5a86:	e553      	b.n	5530 <_dtoa_r+0x50c>
    5a88:	d000      	beq.n	5a8c <_dtoa_r+0xa68>
    5a8a:	e0ad      	b.n	5be8 <_dtoa_r+0xbc4>
    5a8c:	9804      	ldr	r0, [sp, #16]
    5a8e:	9905      	ldr	r1, [sp, #20]
    5a90:	2200      	movs	r2, #0
    5a92:	4bab      	ldr	r3, [pc, #684]	; (5d40 <_dtoa_r+0xd1c>)
    5a94:	f7fc fb80 	bl	2198 <__aeabi_dmul>
    5a98:	003b      	movs	r3, r7
    5a9a:	0032      	movs	r2, r6
    5a9c:	f7fd fad0 	bl	3040 <__aeabi_dcmpge>
    5aa0:	2300      	movs	r3, #0
    5aa2:	4699      	mov	r9, r3
    5aa4:	4698      	mov	r8, r3
    5aa6:	2800      	cmp	r0, #0
    5aa8:	d055      	beq.n	5b56 <_dtoa_r+0xb32>
    5aaa:	9b23      	ldr	r3, [sp, #140]	; 0x8c
    5aac:	9c0a      	ldr	r4, [sp, #40]	; 0x28
    5aae:	43db      	mvns	r3, r3
    5ab0:	9303      	str	r3, [sp, #12]
    5ab2:	4649      	mov	r1, r9
    5ab4:	4650      	mov	r0, sl
    5ab6:	f001 fb01 	bl	70bc <_Bfree>
    5aba:	4643      	mov	r3, r8
    5abc:	2b00      	cmp	r3, #0
    5abe:	d100      	bne.n	5ac2 <_dtoa_r+0xa9e>
    5ac0:	e4df      	b.n	5482 <_dtoa_r+0x45e>
    5ac2:	e7b6      	b.n	5a32 <_dtoa_r+0xa0e>
    5ac4:	464a      	mov	r2, r9
    5ac6:	4659      	mov	r1, fp
    5ac8:	4650      	mov	r0, sl
    5aca:	f001 fc43 	bl	7354 <__pow5mult>
    5ace:	4683      	mov	fp, r0
    5ad0:	e653      	b.n	577a <_dtoa_r+0x756>
    5ad2:	9a0f      	ldr	r2, [sp, #60]	; 0x3c
    5ad4:	2a00      	cmp	r2, #0
    5ad6:	d100      	bne.n	5ada <_dtoa_r+0xab6>
    5ad8:	e1b6      	b.n	5e48 <_dtoa_r+0xe24>
    5ada:	4a9a      	ldr	r2, [pc, #616]	; (5d44 <_dtoa_r+0xd20>)
    5adc:	464c      	mov	r4, r9
    5ade:	4694      	mov	ip, r2
    5ae0:	9a06      	ldr	r2, [sp, #24]
    5ae2:	4463      	add	r3, ip
    5ae4:	9208      	str	r2, [sp, #32]
    5ae6:	e5d5      	b.n	5694 <_dtoa_r+0x670>
    5ae8:	2e00      	cmp	r6, #0
    5aea:	d000      	beq.n	5aee <_dtoa_r+0xaca>
    5aec:	e670      	b.n	57d0 <_dtoa_r+0x7ac>
    5aee:	e7aa      	b.n	5a46 <_dtoa_r+0xa22>
    5af0:	f001 faee 	bl	70d0 <__multadd>
    5af4:	46a2      	mov	sl, r4
    5af6:	0005      	movs	r5, r0
    5af8:	4680      	mov	r8, r0
    5afa:	e6c7      	b.n	588c <_dtoa_r+0x868>
    5afc:	2301      	movs	r3, #1
    5afe:	469b      	mov	fp, r3
    5b00:	e6e2      	b.n	58c8 <_dtoa_r+0x8a4>
    5b02:	2300      	movs	r3, #0
    5b04:	930b      	str	r3, [sp, #44]	; 0x2c
    5b06:	9b22      	ldr	r3, [sp, #136]	; 0x88
    5b08:	2b02      	cmp	r3, #2
    5b0a:	d0af      	beq.n	5a6c <_dtoa_r+0xa48>
    5b0c:	2400      	movs	r4, #0
    5b0e:	4653      	mov	r3, sl
    5b10:	0021      	movs	r1, r4
    5b12:	645c      	str	r4, [r3, #68]	; 0x44
    5b14:	4650      	mov	r0, sl
    5b16:	f001 faa9 	bl	706c <_Balloc>
    5b1a:	4653      	mov	r3, sl
    5b1c:	6418      	str	r0, [r3, #64]	; 0x40
    5b1e:	2301      	movs	r3, #1
    5b20:	425b      	negs	r3, r3
    5b22:	9307      	str	r3, [sp, #28]
    5b24:	930e      	str	r3, [sp, #56]	; 0x38
    5b26:	3302      	adds	r3, #2
    5b28:	900a      	str	r0, [sp, #40]	; 0x28
    5b2a:	9423      	str	r4, [sp, #140]	; 0x8c
    5b2c:	930b      	str	r3, [sp, #44]	; 0x2c
    5b2e:	e4ec      	b.n	550a <_dtoa_r+0x4e6>
    5b30:	9b22      	ldr	r3, [sp, #136]	; 0x88
    5b32:	2b02      	cmp	r3, #2
    5b34:	dc00      	bgt.n	5b38 <_dtoa_r+0xb14>
    5b36:	e685      	b.n	5844 <_dtoa_r+0x820>
    5b38:	9b07      	ldr	r3, [sp, #28]
    5b3a:	2b00      	cmp	r3, #0
    5b3c:	d1b5      	bne.n	5aaa <_dtoa_r+0xa86>
    5b3e:	4649      	mov	r1, r9
    5b40:	2205      	movs	r2, #5
    5b42:	4650      	mov	r0, sl
    5b44:	f001 fac4 	bl	70d0 <__multadd>
    5b48:	4681      	mov	r9, r0
    5b4a:	0001      	movs	r1, r0
    5b4c:	4658      	mov	r0, fp
    5b4e:	f001 fcc1 	bl	74d4 <__mcmp>
    5b52:	2800      	cmp	r0, #0
    5b54:	dda9      	ble.n	5aaa <_dtoa_r+0xa86>
    5b56:	2331      	movs	r3, #49	; 0x31
    5b58:	9a0a      	ldr	r2, [sp, #40]	; 0x28
    5b5a:	7013      	strb	r3, [r2, #0]
    5b5c:	9b03      	ldr	r3, [sp, #12]
    5b5e:	1c54      	adds	r4, r2, #1
    5b60:	3301      	adds	r3, #1
    5b62:	9303      	str	r3, [sp, #12]
    5b64:	e7a5      	b.n	5ab2 <_dtoa_r+0xa8e>
    5b66:	9b03      	ldr	r3, [sp, #12]
    5b68:	9a0a      	ldr	r2, [sp, #40]	; 0x28
    5b6a:	3301      	adds	r3, #1
    5b6c:	9303      	str	r3, [sp, #12]
    5b6e:	2331      	movs	r3, #49	; 0x31
    5b70:	7013      	strb	r3, [r2, #0]
    5b72:	e74e      	b.n	5a12 <_dtoa_r+0x9ee>
    5b74:	2300      	movs	r3, #0
    5b76:	930b      	str	r3, [sp, #44]	; 0x2c
    5b78:	f7ff fb3d 	bl	51f6 <_dtoa_r+0x1d2>
    5b7c:	9b06      	ldr	r3, [sp, #24]
    5b7e:	465c      	mov	r4, fp
    5b80:	469b      	mov	fp, r3
    5b82:	9b07      	ldr	r3, [sp, #28]
    5b84:	469a      	mov	sl, r3
    5b86:	e47c      	b.n	5482 <_dtoa_r+0x45e>
    5b88:	4640      	mov	r0, r8
    5b8a:	f7fd f8cf 	bl	2d2c <__aeabi_i2d>
    5b8e:	0032      	movs	r2, r6
    5b90:	003b      	movs	r3, r7
    5b92:	f7fc fb01 	bl	2198 <__aeabi_dmul>
    5b96:	2200      	movs	r2, #0
    5b98:	4b6b      	ldr	r3, [pc, #428]	; (5d48 <_dtoa_r+0xd24>)
    5b9a:	f002 facf 	bl	813c <__aeabi_dadd>
    5b9e:	4a6b      	ldr	r2, [pc, #428]	; (5d4c <_dtoa_r+0xd28>)
    5ba0:	000b      	movs	r3, r1
    5ba2:	4694      	mov	ip, r2
    5ba4:	4463      	add	r3, ip
    5ba6:	9008      	str	r0, [sp, #32]
    5ba8:	9109      	str	r1, [sp, #36]	; 0x24
    5baa:	9309      	str	r3, [sp, #36]	; 0x24
    5bac:	2200      	movs	r2, #0
    5bae:	4b64      	ldr	r3, [pc, #400]	; (5d40 <_dtoa_r+0xd1c>)
    5bb0:	0030      	movs	r0, r6
    5bb2:	0039      	movs	r1, r7
    5bb4:	f7fc fd70 	bl	2698 <__aeabi_dsub>
    5bb8:	9e08      	ldr	r6, [sp, #32]
    5bba:	9f09      	ldr	r7, [sp, #36]	; 0x24
    5bbc:	0032      	movs	r2, r6
    5bbe:	003b      	movs	r3, r7
    5bc0:	0004      	movs	r4, r0
    5bc2:	000d      	movs	r5, r1
    5bc4:	f7fd fa32 	bl	302c <__aeabi_dcmpgt>
    5bc8:	2800      	cmp	r0, #0
    5bca:	d000      	beq.n	5bce <_dtoa_r+0xbaa>
    5bcc:	e0b2      	b.n	5d34 <_dtoa_r+0xd10>
    5bce:	2080      	movs	r0, #128	; 0x80
    5bd0:	0600      	lsls	r0, r0, #24
    5bd2:	4684      	mov	ip, r0
    5bd4:	0039      	movs	r1, r7
    5bd6:	4461      	add	r1, ip
    5bd8:	000b      	movs	r3, r1
    5bda:	0032      	movs	r2, r6
    5bdc:	0020      	movs	r0, r4
    5bde:	0029      	movs	r1, r5
    5be0:	f7fd fa10 	bl	3004 <__aeabi_dcmplt>
    5be4:	2800      	cmp	r0, #0
    5be6:	d057      	beq.n	5c98 <_dtoa_r+0xc74>
    5be8:	2300      	movs	r3, #0
    5bea:	4699      	mov	r9, r3
    5bec:	4698      	mov	r8, r3
    5bee:	e75c      	b.n	5aaa <_dtoa_r+0xa86>
    5bf0:	980a      	ldr	r0, [sp, #40]	; 0x28
    5bf2:	f7ff fa4c 	bl	508e <_dtoa_r+0x6a>
    5bf6:	1ae2      	subs	r2, r4, r3
    5bf8:	9b0d      	ldr	r3, [sp, #52]	; 0x34
    5bfa:	46a1      	mov	r9, r4
    5bfc:	469c      	mov	ip, r3
    5bfe:	4494      	add	ip, r2
    5c00:	4663      	mov	r3, ip
    5c02:	2400      	movs	r4, #0
    5c04:	930d      	str	r3, [sp, #52]	; 0x34
    5c06:	e53e      	b.n	5686 <_dtoa_r+0x662>
    5c08:	9a10      	ldr	r2, [sp, #64]	; 0x40
    5c0a:	9b11      	ldr	r3, [sp, #68]	; 0x44
    5c0c:	9208      	str	r2, [sp, #32]
    5c0e:	9309      	str	r3, [sp, #36]	; 0x24
    5c10:	2302      	movs	r3, #2
    5c12:	4698      	mov	r8, r3
    5c14:	f7ff fb3a 	bl	528c <_dtoa_r+0x268>
    5c18:	2300      	movs	r3, #0
    5c1a:	4652      	mov	r2, sl
    5c1c:	2100      	movs	r1, #0
    5c1e:	6453      	str	r3, [r2, #68]	; 0x44
    5c20:	4650      	mov	r0, sl
    5c22:	f001 fa23 	bl	706c <_Balloc>
    5c26:	4653      	mov	r3, sl
    5c28:	6418      	str	r0, [r3, #64]	; 0x40
    5c2a:	2301      	movs	r3, #1
    5c2c:	900a      	str	r0, [sp, #40]	; 0x28
    5c2e:	9307      	str	r3, [sp, #28]
    5c30:	9323      	str	r3, [sp, #140]	; 0x8c
    5c32:	930e      	str	r3, [sp, #56]	; 0x38
    5c34:	f7ff fb07 	bl	5246 <_dtoa_r+0x222>
    5c38:	4643      	mov	r3, r8
    5c3a:	930c      	str	r3, [sp, #48]	; 0x30
    5c3c:	465b      	mov	r3, fp
    5c3e:	9a06      	ldr	r2, [sp, #24]
    5c40:	46a8      	mov	r8, r5
    5c42:	46b3      	mov	fp, r6
    5c44:	4655      	mov	r5, sl
    5c46:	9e04      	ldr	r6, [sp, #16]
    5c48:	4691      	mov	r9, r2
    5c4a:	46ba      	mov	sl, r7
    5c4c:	2b00      	cmp	r3, #0
    5c4e:	dd10      	ble.n	5c72 <_dtoa_r+0xc4e>
    5c50:	4659      	mov	r1, fp
    5c52:	2201      	movs	r2, #1
    5c54:	0038      	movs	r0, r7
    5c56:	f001 fbdd 	bl	7414 <__lshift>
    5c5a:	4649      	mov	r1, r9
    5c5c:	4683      	mov	fp, r0
    5c5e:	f001 fc39 	bl	74d4 <__mcmp>
    5c62:	2800      	cmp	r0, #0
    5c64:	dc00      	bgt.n	5c68 <_dtoa_r+0xc44>
    5c66:	e157      	b.n	5f18 <_dtoa_r+0xef4>
    5c68:	2e39      	cmp	r6, #57	; 0x39
    5c6a:	d100      	bne.n	5c6e <_dtoa_r+0xc4a>
    5c6c:	e122      	b.n	5eb4 <_dtoa_r+0xe90>
    5c6e:	9e0b      	ldr	r6, [sp, #44]	; 0x2c
    5c70:	3631      	adds	r6, #49	; 0x31
    5c72:	9b0c      	ldr	r3, [sp, #48]	; 0x30
    5c74:	4647      	mov	r7, r8
    5c76:	1c6c      	adds	r4, r5, #1
    5c78:	702e      	strb	r6, [r5, #0]
    5c7a:	4698      	mov	r8, r3
    5c7c:	e6c9      	b.n	5a12 <_dtoa_r+0x9ee>
    5c7e:	2800      	cmp	r0, #0
    5c80:	d103      	bne.n	5c8a <_dtoa_r+0xc66>
    5c82:	07f3      	lsls	r3, r6, #31
    5c84:	d501      	bpl.n	5c8a <_dtoa_r+0xc66>
    5c86:	e6b5      	b.n	59f4 <_dtoa_r+0x9d0>
    5c88:	001c      	movs	r4, r3
    5c8a:	1e63      	subs	r3, r4, #1
    5c8c:	781a      	ldrb	r2, [r3, #0]
    5c8e:	2a30      	cmp	r2, #48	; 0x30
    5c90:	d0fa      	beq.n	5c88 <_dtoa_r+0xc64>
    5c92:	e6be      	b.n	5a12 <_dtoa_r+0x9ee>
    5c94:	9b12      	ldr	r3, [sp, #72]	; 0x48
    5c96:	4699      	mov	r9, r3
    5c98:	9e10      	ldr	r6, [sp, #64]	; 0x40
    5c9a:	9f11      	ldr	r7, [sp, #68]	; 0x44
    5c9c:	e435      	b.n	550a <_dtoa_r+0x4e6>
    5c9e:	2501      	movs	r5, #1
    5ca0:	f7ff fab4 	bl	520c <_dtoa_r+0x1e8>
    5ca4:	9b03      	ldr	r3, [sp, #12]
    5ca6:	2b00      	cmp	r3, #0
    5ca8:	d100      	bne.n	5cac <_dtoa_r+0xc88>
    5caa:	e0d4      	b.n	5e56 <_dtoa_r+0xe32>
    5cac:	9810      	ldr	r0, [sp, #64]	; 0x40
    5cae:	9911      	ldr	r1, [sp, #68]	; 0x44
    5cb0:	425c      	negs	r4, r3
    5cb2:	230f      	movs	r3, #15
    5cb4:	4a26      	ldr	r2, [pc, #152]	; (5d50 <_dtoa_r+0xd2c>)
    5cb6:	4023      	ands	r3, r4
    5cb8:	00db      	lsls	r3, r3, #3
    5cba:	18d3      	adds	r3, r2, r3
    5cbc:	681a      	ldr	r2, [r3, #0]
    5cbe:	685b      	ldr	r3, [r3, #4]
    5cc0:	f7fc fa6a 	bl	2198 <__aeabi_dmul>
    5cc4:	1124      	asrs	r4, r4, #4
    5cc6:	0006      	movs	r6, r0
    5cc8:	000f      	movs	r7, r1
    5cca:	2c00      	cmp	r4, #0
    5ccc:	d100      	bne.n	5cd0 <_dtoa_r+0xcac>
    5cce:	e149      	b.n	5f64 <_dtoa_r+0xf40>
    5cd0:	2302      	movs	r3, #2
    5cd2:	4698      	mov	r8, r3
    5cd4:	4d1f      	ldr	r5, [pc, #124]	; (5d54 <_dtoa_r+0xd30>)
    5cd6:	2301      	movs	r3, #1
    5cd8:	4223      	tst	r3, r4
    5cda:	d009      	beq.n	5cf0 <_dtoa_r+0xccc>
    5cdc:	469c      	mov	ip, r3
    5cde:	682a      	ldr	r2, [r5, #0]
    5ce0:	686b      	ldr	r3, [r5, #4]
    5ce2:	0030      	movs	r0, r6
    5ce4:	0039      	movs	r1, r7
    5ce6:	44e0      	add	r8, ip
    5ce8:	f7fc fa56 	bl	2198 <__aeabi_dmul>
    5cec:	0006      	movs	r6, r0
    5cee:	000f      	movs	r7, r1
    5cf0:	1064      	asrs	r4, r4, #1
    5cf2:	3508      	adds	r5, #8
    5cf4:	2c00      	cmp	r4, #0
    5cf6:	d1ee      	bne.n	5cd6 <_dtoa_r+0xcb2>
    5cf8:	f7ff fae4 	bl	52c4 <_dtoa_r+0x2a0>
    5cfc:	9b03      	ldr	r3, [sp, #12]
    5cfe:	2730      	movs	r7, #48	; 0x30
    5d00:	3301      	adds	r3, #1
    5d02:	9303      	str	r3, [sp, #12]
    5d04:	2330      	movs	r3, #48	; 0x30
    5d06:	702b      	strb	r3, [r5, #0]
    5d08:	e4ac      	b.n	5664 <_dtoa_r+0x640>
    5d0a:	6859      	ldr	r1, [r3, #4]
    5d0c:	4650      	mov	r0, sl
    5d0e:	f001 f9ad 	bl	706c <_Balloc>
    5d12:	4643      	mov	r3, r8
    5d14:	4641      	mov	r1, r8
    5d16:	0004      	movs	r4, r0
    5d18:	691b      	ldr	r3, [r3, #16]
    5d1a:	310c      	adds	r1, #12
    5d1c:	1c9a      	adds	r2, r3, #2
    5d1e:	0092      	lsls	r2, r2, #2
    5d20:	300c      	adds	r0, #12
    5d22:	f001 f901 	bl	6f28 <memcpy>
    5d26:	2201      	movs	r2, #1
    5d28:	0021      	movs	r1, r4
    5d2a:	4650      	mov	r0, sl
    5d2c:	f001 fb72 	bl	7414 <__lshift>
    5d30:	900c      	str	r0, [sp, #48]	; 0x30
    5d32:	e599      	b.n	5868 <_dtoa_r+0x844>
    5d34:	2300      	movs	r3, #0
    5d36:	4699      	mov	r9, r3
    5d38:	4698      	mov	r8, r3
    5d3a:	e70c      	b.n	5b56 <_dtoa_r+0xb32>
    5d3c:	7ff00000 	.word	0x7ff00000
    5d40:	40140000 	.word	0x40140000
    5d44:	00000433 	.word	0x00000433
    5d48:	401c0000 	.word	0x401c0000
    5d4c:	fcc00000 	.word	0xfcc00000
    5d50:	00008bc8 	.word	0x00008bc8
    5d54:	00008ba0 	.word	0x00008ba0
    5d58:	9b12      	ldr	r3, [sp, #72]	; 0x48
    5d5a:	498f      	ldr	r1, [pc, #572]	; (5f98 <_dtoa_r+0xf74>)
    5d5c:	3b01      	subs	r3, #1
    5d5e:	00db      	lsls	r3, r3, #3
    5d60:	18c9      	adds	r1, r1, r3
    5d62:	6808      	ldr	r0, [r1, #0]
    5d64:	6849      	ldr	r1, [r1, #4]
    5d66:	9a08      	ldr	r2, [sp, #32]
    5d68:	9b09      	ldr	r3, [sp, #36]	; 0x24
    5d6a:	f7fc fa15 	bl	2198 <__aeabi_dmul>
    5d6e:	9014      	str	r0, [sp, #80]	; 0x50
    5d70:	9115      	str	r1, [sp, #84]	; 0x54
    5d72:	0039      	movs	r1, r7
    5d74:	0030      	movs	r0, r6
    5d76:	f7fc ffa5 	bl	2cc4 <__aeabi_d2iz>
    5d7a:	0005      	movs	r5, r0
    5d7c:	f7fc ffd6 	bl	2d2c <__aeabi_i2d>
    5d80:	0002      	movs	r2, r0
    5d82:	000b      	movs	r3, r1
    5d84:	0030      	movs	r0, r6
    5d86:	0039      	movs	r1, r7
    5d88:	f7fc fc86 	bl	2698 <__aeabi_dsub>
    5d8c:	9b12      	ldr	r3, [sp, #72]	; 0x48
    5d8e:	9008      	str	r0, [sp, #32]
    5d90:	9109      	str	r1, [sp, #36]	; 0x24
    5d92:	990a      	ldr	r1, [sp, #40]	; 0x28
    5d94:	001a      	movs	r2, r3
    5d96:	468c      	mov	ip, r1
    5d98:	3530      	adds	r5, #48	; 0x30
    5d9a:	4462      	add	r2, ip
    5d9c:	1c4c      	adds	r4, r1, #1
    5d9e:	700d      	strb	r5, [r1, #0]
    5da0:	4690      	mov	r8, r2
    5da2:	2b01      	cmp	r3, #1
    5da4:	d01b      	beq.n	5dde <_dtoa_r+0xdba>
    5da6:	9808      	ldr	r0, [sp, #32]
    5da8:	9909      	ldr	r1, [sp, #36]	; 0x24
    5daa:	0025      	movs	r5, r4
    5dac:	2200      	movs	r2, #0
    5dae:	4b7b      	ldr	r3, [pc, #492]	; (5f9c <_dtoa_r+0xf78>)
    5db0:	f7fc f9f2 	bl	2198 <__aeabi_dmul>
    5db4:	000f      	movs	r7, r1
    5db6:	0006      	movs	r6, r0
    5db8:	f7fc ff84 	bl	2cc4 <__aeabi_d2iz>
    5dbc:	0004      	movs	r4, r0
    5dbe:	f7fc ffb5 	bl	2d2c <__aeabi_i2d>
    5dc2:	3430      	adds	r4, #48	; 0x30
    5dc4:	0002      	movs	r2, r0
    5dc6:	000b      	movs	r3, r1
    5dc8:	0030      	movs	r0, r6
    5dca:	0039      	movs	r1, r7
    5dcc:	f7fc fc64 	bl	2698 <__aeabi_dsub>
    5dd0:	702c      	strb	r4, [r5, #0]
    5dd2:	3501      	adds	r5, #1
    5dd4:	45a8      	cmp	r8, r5
    5dd6:	d1e9      	bne.n	5dac <_dtoa_r+0xd88>
    5dd8:	4644      	mov	r4, r8
    5dda:	9008      	str	r0, [sp, #32]
    5ddc:	9109      	str	r1, [sp, #36]	; 0x24
    5dde:	9814      	ldr	r0, [sp, #80]	; 0x50
    5de0:	9915      	ldr	r1, [sp, #84]	; 0x54
    5de2:	2200      	movs	r2, #0
    5de4:	4b6e      	ldr	r3, [pc, #440]	; (5fa0 <_dtoa_r+0xf7c>)
    5de6:	f002 f9a9 	bl	813c <__aeabi_dadd>
    5dea:	9a08      	ldr	r2, [sp, #32]
    5dec:	9b09      	ldr	r3, [sp, #36]	; 0x24
    5dee:	f7fd f909 	bl	3004 <__aeabi_dcmplt>
    5df2:	2800      	cmp	r0, #0
    5df4:	d067      	beq.n	5ec6 <_dtoa_r+0xea2>
    5df6:	9b13      	ldr	r3, [sp, #76]	; 0x4c
    5df8:	1e65      	subs	r5, r4, #1
    5dfa:	9303      	str	r3, [sp, #12]
    5dfc:	782f      	ldrb	r7, [r5, #0]
    5dfe:	9b0a      	ldr	r3, [sp, #40]	; 0x28
    5e00:	e42e      	b.n	5660 <_dtoa_r+0x63c>
    5e02:	4643      	mov	r3, r8
    5e04:	46b3      	mov	fp, r6
    5e06:	930c      	str	r3, [sp, #48]	; 0x30
    5e08:	9e04      	ldr	r6, [sp, #16]
    5e0a:	9b06      	ldr	r3, [sp, #24]
    5e0c:	46a8      	mov	r8, r5
    5e0e:	4699      	mov	r9, r3
    5e10:	4655      	mov	r5, sl
    5e12:	46ba      	mov	sl, r7
    5e14:	2e39      	cmp	r6, #57	; 0x39
    5e16:	d04d      	beq.n	5eb4 <_dtoa_r+0xe90>
    5e18:	9b0c      	ldr	r3, [sp, #48]	; 0x30
    5e1a:	3601      	adds	r6, #1
    5e1c:	4647      	mov	r7, r8
    5e1e:	1c6c      	adds	r4, r5, #1
    5e20:	702e      	strb	r6, [r5, #0]
    5e22:	4698      	mov	r8, r3
    5e24:	e5f5      	b.n	5a12 <_dtoa_r+0x9ee>
    5e26:	4642      	mov	r2, r8
    5e28:	9b06      	ldr	r3, [sp, #24]
    5e2a:	46b3      	mov	fp, r6
    5e2c:	46ba      	mov	sl, r7
    5e2e:	9e04      	ldr	r6, [sp, #16]
    5e30:	4699      	mov	r9, r3
    5e32:	002f      	movs	r7, r5
    5e34:	4690      	mov	r8, r2
    5e36:	e5d1      	b.n	59dc <_dtoa_r+0x9b8>
    5e38:	9b06      	ldr	r3, [sp, #24]
    5e3a:	9a07      	ldr	r2, [sp, #28]
    5e3c:	1a9b      	subs	r3, r3, r2
    5e3e:	9308      	str	r3, [sp, #32]
    5e40:	2300      	movs	r3, #0
    5e42:	e427      	b.n	5694 <_dtoa_r+0x670>
    5e44:	2401      	movs	r4, #1
    5e46:	e5c5      	b.n	59d4 <_dtoa_r+0x9b0>
    5e48:	2336      	movs	r3, #54	; 0x36
    5e4a:	9a16      	ldr	r2, [sp, #88]	; 0x58
    5e4c:	464c      	mov	r4, r9
    5e4e:	1a9b      	subs	r3, r3, r2
    5e50:	9a06      	ldr	r2, [sp, #24]
    5e52:	9208      	str	r2, [sp, #32]
    5e54:	e41e      	b.n	5694 <_dtoa_r+0x670>
    5e56:	2302      	movs	r3, #2
    5e58:	9e10      	ldr	r6, [sp, #64]	; 0x40
    5e5a:	9f11      	ldr	r7, [sp, #68]	; 0x44
    5e5c:	4698      	mov	r8, r3
    5e5e:	f7ff fa31 	bl	52c4 <_dtoa_r+0x2a0>
    5e62:	9b07      	ldr	r3, [sp, #28]
    5e64:	2b00      	cmp	r3, #0
    5e66:	d100      	bne.n	5e6a <_dtoa_r+0xe46>
    5e68:	e68e      	b.n	5b88 <_dtoa_r+0xb64>
    5e6a:	9c0e      	ldr	r4, [sp, #56]	; 0x38
    5e6c:	2c00      	cmp	r4, #0
    5e6e:	dc00      	bgt.n	5e72 <_dtoa_r+0xe4e>
    5e70:	e712      	b.n	5c98 <_dtoa_r+0xc74>
    5e72:	9b03      	ldr	r3, [sp, #12]
    5e74:	2200      	movs	r2, #0
    5e76:	3b01      	subs	r3, #1
    5e78:	9313      	str	r3, [sp, #76]	; 0x4c
    5e7a:	0030      	movs	r0, r6
    5e7c:	4b47      	ldr	r3, [pc, #284]	; (5f9c <_dtoa_r+0xf78>)
    5e7e:	0039      	movs	r1, r7
    5e80:	f7fc f98a 	bl	2198 <__aeabi_dmul>
    5e84:	0006      	movs	r6, r0
    5e86:	4640      	mov	r0, r8
    5e88:	000f      	movs	r7, r1
    5e8a:	3001      	adds	r0, #1
    5e8c:	f7fc ff4e 	bl	2d2c <__aeabi_i2d>
    5e90:	0032      	movs	r2, r6
    5e92:	003b      	movs	r3, r7
    5e94:	f7fc f980 	bl	2198 <__aeabi_dmul>
    5e98:	2200      	movs	r2, #0
    5e9a:	4b42      	ldr	r3, [pc, #264]	; (5fa4 <_dtoa_r+0xf80>)
    5e9c:	f002 f94e 	bl	813c <__aeabi_dadd>
    5ea0:	4a41      	ldr	r2, [pc, #260]	; (5fa8 <_dtoa_r+0xf84>)
    5ea2:	000b      	movs	r3, r1
    5ea4:	4694      	mov	ip, r2
    5ea6:	4463      	add	r3, ip
    5ea8:	9008      	str	r0, [sp, #32]
    5eaa:	9109      	str	r1, [sp, #36]	; 0x24
    5eac:	9412      	str	r4, [sp, #72]	; 0x48
    5eae:	9309      	str	r3, [sp, #36]	; 0x24
    5eb0:	f7ff fa30 	bl	5314 <_dtoa_r+0x2f0>
    5eb4:	2339      	movs	r3, #57	; 0x39
    5eb6:	702b      	strb	r3, [r5, #0]
    5eb8:	9b0c      	ldr	r3, [sp, #48]	; 0x30
    5eba:	4647      	mov	r7, r8
    5ebc:	1c6c      	adds	r4, r5, #1
    5ebe:	4698      	mov	r8, r3
    5ec0:	9a0a      	ldr	r2, [sp, #40]	; 0x28
    5ec2:	2339      	movs	r3, #57	; 0x39
    5ec4:	e5a1      	b.n	5a0a <_dtoa_r+0x9e6>
    5ec6:	9a14      	ldr	r2, [sp, #80]	; 0x50
    5ec8:	9b15      	ldr	r3, [sp, #84]	; 0x54
    5eca:	2000      	movs	r0, #0
    5ecc:	4934      	ldr	r1, [pc, #208]	; (5fa0 <_dtoa_r+0xf7c>)
    5ece:	f7fc fbe3 	bl	2698 <__aeabi_dsub>
    5ed2:	9a08      	ldr	r2, [sp, #32]
    5ed4:	9b09      	ldr	r3, [sp, #36]	; 0x24
    5ed6:	f7fd f8a9 	bl	302c <__aeabi_dcmpgt>
    5eda:	2800      	cmp	r0, #0
    5edc:	d101      	bne.n	5ee2 <_dtoa_r+0xebe>
    5ede:	e6db      	b.n	5c98 <_dtoa_r+0xc74>
    5ee0:	001c      	movs	r4, r3
    5ee2:	1e63      	subs	r3, r4, #1
    5ee4:	781a      	ldrb	r2, [r3, #0]
    5ee6:	2a30      	cmp	r2, #48	; 0x30
    5ee8:	d0fa      	beq.n	5ee0 <_dtoa_r+0xebc>
    5eea:	f7ff fac8 	bl	547e <_dtoa_r+0x45a>
    5eee:	4643      	mov	r3, r8
    5ef0:	46b3      	mov	fp, r6
    5ef2:	930c      	str	r3, [sp, #48]	; 0x30
    5ef4:	9e04      	ldr	r6, [sp, #16]
    5ef6:	9b06      	ldr	r3, [sp, #24]
    5ef8:	46a8      	mov	r8, r5
    5efa:	4699      	mov	r9, r3
    5efc:	4655      	mov	r5, sl
    5efe:	46ba      	mov	sl, r7
    5f00:	2e39      	cmp	r6, #57	; 0x39
    5f02:	d0d7      	beq.n	5eb4 <_dtoa_r+0xe90>
    5f04:	2c00      	cmp	r4, #0
    5f06:	dd00      	ble.n	5f0a <_dtoa_r+0xee6>
    5f08:	e6b1      	b.n	5c6e <_dtoa_r+0xc4a>
    5f0a:	e6b2      	b.n	5c72 <_dtoa_r+0xc4e>
    5f0c:	9a13      	ldr	r2, [sp, #76]	; 0x4c
    5f0e:	464d      	mov	r5, r9
    5f10:	9203      	str	r2, [sp, #12]
    5f12:	9b0a      	ldr	r3, [sp, #40]	; 0x28
    5f14:	f7ff fba4 	bl	5660 <_dtoa_r+0x63c>
    5f18:	2800      	cmp	r0, #0
    5f1a:	d000      	beq.n	5f1e <_dtoa_r+0xefa>
    5f1c:	e6a9      	b.n	5c72 <_dtoa_r+0xc4e>
    5f1e:	07f3      	lsls	r3, r6, #31
    5f20:	d400      	bmi.n	5f24 <_dtoa_r+0xf00>
    5f22:	e6a6      	b.n	5c72 <_dtoa_r+0xc4e>
    5f24:	e6a0      	b.n	5c68 <_dtoa_r+0xc44>
    5f26:	2300      	movs	r3, #0
    5f28:	4641      	mov	r1, r8
    5f2a:	220a      	movs	r2, #10
    5f2c:	4650      	mov	r0, sl
    5f2e:	f001 f8cf 	bl	70d0 <__multadd>
    5f32:	9b0e      	ldr	r3, [sp, #56]	; 0x38
    5f34:	4680      	mov	r8, r0
    5f36:	2b00      	cmp	r3, #0
    5f38:	dd01      	ble.n	5f3e <_dtoa_r+0xf1a>
    5f3a:	9307      	str	r3, [sp, #28]
    5f3c:	e486      	b.n	584c <_dtoa_r+0x828>
    5f3e:	9b22      	ldr	r3, [sp, #136]	; 0x88
    5f40:	2b02      	cmp	r3, #2
    5f42:	dc1f      	bgt.n	5f84 <_dtoa_r+0xf60>
    5f44:	9b0e      	ldr	r3, [sp, #56]	; 0x38
    5f46:	9307      	str	r3, [sp, #28]
    5f48:	e480      	b.n	584c <_dtoa_r+0x828>
    5f4a:	9b22      	ldr	r3, [sp, #136]	; 0x88
    5f4c:	2b02      	cmp	r3, #2
    5f4e:	dc19      	bgt.n	5f84 <_dtoa_r+0xf60>
    5f50:	4649      	mov	r1, r9
    5f52:	f7fe ffbd 	bl	4ed0 <quorem>
    5f56:	9b0a      	ldr	r3, [sp, #40]	; 0x28
    5f58:	3030      	adds	r0, #48	; 0x30
    5f5a:	7018      	strb	r0, [r3, #0]
    5f5c:	9b0e      	ldr	r3, [sp, #56]	; 0x38
    5f5e:	0006      	movs	r6, r0
    5f60:	9307      	str	r3, [sp, #28]
    5f62:	e533      	b.n	59cc <_dtoa_r+0x9a8>
    5f64:	2302      	movs	r3, #2
    5f66:	4698      	mov	r8, r3
    5f68:	f7ff f9ac 	bl	52c4 <_dtoa_r+0x2a0>
    5f6c:	9b13      	ldr	r3, [sp, #76]	; 0x4c
    5f6e:	9c14      	ldr	r4, [sp, #80]	; 0x50
    5f70:	9303      	str	r3, [sp, #12]
    5f72:	9b0a      	ldr	r3, [sp, #40]	; 0x28
    5f74:	001d      	movs	r5, r3
    5f76:	f7ff fb73 	bl	5660 <_dtoa_r+0x63c>
    5f7a:	9b13      	ldr	r3, [sp, #76]	; 0x4c
    5f7c:	9c14      	ldr	r4, [sp, #80]	; 0x50
    5f7e:	9303      	str	r3, [sp, #12]
    5f80:	f7ff fa7f 	bl	5482 <_dtoa_r+0x45e>
    5f84:	9b0e      	ldr	r3, [sp, #56]	; 0x38
    5f86:	9307      	str	r3, [sp, #28]
    5f88:	e5d6      	b.n	5b38 <_dtoa_r+0xb14>
    5f8a:	2b04      	cmp	r3, #4
    5f8c:	d100      	bne.n	5f90 <_dtoa_r+0xf6c>
    5f8e:	e43f      	b.n	5810 <_dtoa_r+0x7ec>
    5f90:	233c      	movs	r3, #60	; 0x3c
    5f92:	1a18      	subs	r0, r3, r0
    5f94:	e4d7      	b.n	5946 <_dtoa_r+0x922>
    5f96:	46c0      	nop			; (mov r8, r8)
    5f98:	00008bc8 	.word	0x00008bc8
    5f9c:	40240000 	.word	0x40240000
    5fa0:	3fe00000 	.word	0x3fe00000
    5fa4:	401c0000 	.word	0x401c0000
    5fa8:	fcc00000 	.word	0xfcc00000

00005fac <__sflush_r>:
    5fac:	b5f0      	push	{r4, r5, r6, r7, lr}
    5fae:	46c6      	mov	lr, r8
    5fb0:	b500      	push	{lr}
    5fb2:	230c      	movs	r3, #12
    5fb4:	5eca      	ldrsh	r2, [r1, r3]
    5fb6:	4680      	mov	r8, r0
    5fb8:	b293      	uxth	r3, r2
    5fba:	000c      	movs	r4, r1
    5fbc:	0719      	lsls	r1, r3, #28
    5fbe:	d440      	bmi.n	6042 <__sflush_r+0x96>
    5fc0:	2380      	movs	r3, #128	; 0x80
    5fc2:	011b      	lsls	r3, r3, #4
    5fc4:	4313      	orrs	r3, r2
    5fc6:	6862      	ldr	r2, [r4, #4]
    5fc8:	81a3      	strh	r3, [r4, #12]
    5fca:	2a00      	cmp	r2, #0
    5fcc:	dc00      	bgt.n	5fd0 <__sflush_r+0x24>
    5fce:	e070      	b.n	60b2 <__sflush_r+0x106>
    5fd0:	6aa6      	ldr	r6, [r4, #40]	; 0x28
    5fd2:	2e00      	cmp	r6, #0
    5fd4:	d031      	beq.n	603a <__sflush_r+0x8e>
    5fd6:	4642      	mov	r2, r8
    5fd8:	4641      	mov	r1, r8
    5fda:	6815      	ldr	r5, [r2, #0]
    5fdc:	2200      	movs	r2, #0
    5fde:	b29b      	uxth	r3, r3
    5fe0:	600a      	str	r2, [r1, #0]
    5fe2:	04da      	lsls	r2, r3, #19
    5fe4:	d400      	bmi.n	5fe8 <__sflush_r+0x3c>
    5fe6:	e069      	b.n	60bc <__sflush_r+0x110>
    5fe8:	6d22      	ldr	r2, [r4, #80]	; 0x50
    5fea:	075b      	lsls	r3, r3, #29
    5fec:	d506      	bpl.n	5ffc <__sflush_r+0x50>
    5fee:	6863      	ldr	r3, [r4, #4]
    5ff0:	1ad2      	subs	r2, r2, r3
    5ff2:	6b23      	ldr	r3, [r4, #48]	; 0x30
    5ff4:	2b00      	cmp	r3, #0
    5ff6:	d001      	beq.n	5ffc <__sflush_r+0x50>
    5ff8:	6be3      	ldr	r3, [r4, #60]	; 0x3c
    5ffa:	1ad2      	subs	r2, r2, r3
    5ffc:	2300      	movs	r3, #0
    5ffe:	69e1      	ldr	r1, [r4, #28]
    6000:	4640      	mov	r0, r8
    6002:	47b0      	blx	r6
    6004:	1c43      	adds	r3, r0, #1
    6006:	d03d      	beq.n	6084 <__sflush_r+0xd8>
    6008:	89a3      	ldrh	r3, [r4, #12]
    600a:	4a3a      	ldr	r2, [pc, #232]	; (60f4 <__sflush_r+0x148>)
    600c:	4013      	ands	r3, r2
    600e:	2200      	movs	r2, #0
    6010:	6062      	str	r2, [r4, #4]
    6012:	6922      	ldr	r2, [r4, #16]
    6014:	b21b      	sxth	r3, r3
    6016:	81a3      	strh	r3, [r4, #12]
    6018:	6022      	str	r2, [r4, #0]
    601a:	04db      	lsls	r3, r3, #19
    601c:	d447      	bmi.n	60ae <__sflush_r+0x102>
    601e:	4643      	mov	r3, r8
    6020:	6b21      	ldr	r1, [r4, #48]	; 0x30
    6022:	601d      	str	r5, [r3, #0]
    6024:	2900      	cmp	r1, #0
    6026:	d008      	beq.n	603a <__sflush_r+0x8e>
    6028:	0023      	movs	r3, r4
    602a:	3340      	adds	r3, #64	; 0x40
    602c:	4299      	cmp	r1, r3
    602e:	d002      	beq.n	6036 <__sflush_r+0x8a>
    6030:	4640      	mov	r0, r8
    6032:	f000 f967 	bl	6304 <_free_r>
    6036:	2300      	movs	r3, #0
    6038:	6323      	str	r3, [r4, #48]	; 0x30
    603a:	2000      	movs	r0, #0
    603c:	bc04      	pop	{r2}
    603e:	4690      	mov	r8, r2
    6040:	bdf0      	pop	{r4, r5, r6, r7, pc}
    6042:	6926      	ldr	r6, [r4, #16]
    6044:	2e00      	cmp	r6, #0
    6046:	d0f8      	beq.n	603a <__sflush_r+0x8e>
    6048:	6822      	ldr	r2, [r4, #0]
    604a:	6026      	str	r6, [r4, #0]
    604c:	1b95      	subs	r5, r2, r6
    604e:	2200      	movs	r2, #0
    6050:	079b      	lsls	r3, r3, #30
    6052:	d100      	bne.n	6056 <__sflush_r+0xaa>
    6054:	6962      	ldr	r2, [r4, #20]
    6056:	60a2      	str	r2, [r4, #8]
    6058:	2d00      	cmp	r5, #0
    605a:	dc04      	bgt.n	6066 <__sflush_r+0xba>
    605c:	e7ed      	b.n	603a <__sflush_r+0x8e>
    605e:	1836      	adds	r6, r6, r0
    6060:	1a2d      	subs	r5, r5, r0
    6062:	2d00      	cmp	r5, #0
    6064:	dde9      	ble.n	603a <__sflush_r+0x8e>
    6066:	002b      	movs	r3, r5
    6068:	0032      	movs	r2, r6
    606a:	69e1      	ldr	r1, [r4, #28]
    606c:	4640      	mov	r0, r8
    606e:	6a67      	ldr	r7, [r4, #36]	; 0x24
    6070:	47b8      	blx	r7
    6072:	2800      	cmp	r0, #0
    6074:	dcf3      	bgt.n	605e <__sflush_r+0xb2>
    6076:	2240      	movs	r2, #64	; 0x40
    6078:	2001      	movs	r0, #1
    607a:	89a3      	ldrh	r3, [r4, #12]
    607c:	4240      	negs	r0, r0
    607e:	4313      	orrs	r3, r2
    6080:	81a3      	strh	r3, [r4, #12]
    6082:	e7db      	b.n	603c <__sflush_r+0x90>
    6084:	4643      	mov	r3, r8
    6086:	6819      	ldr	r1, [r3, #0]
    6088:	291d      	cmp	r1, #29
    608a:	d8f4      	bhi.n	6076 <__sflush_r+0xca>
    608c:	4b1a      	ldr	r3, [pc, #104]	; (60f8 <__sflush_r+0x14c>)
    608e:	2201      	movs	r2, #1
    6090:	40cb      	lsrs	r3, r1
    6092:	439a      	bics	r2, r3
    6094:	d1ef      	bne.n	6076 <__sflush_r+0xca>
    6096:	89a3      	ldrh	r3, [r4, #12]
    6098:	4e16      	ldr	r6, [pc, #88]	; (60f4 <__sflush_r+0x148>)
    609a:	6062      	str	r2, [r4, #4]
    609c:	4033      	ands	r3, r6
    609e:	6922      	ldr	r2, [r4, #16]
    60a0:	b21b      	sxth	r3, r3
    60a2:	81a3      	strh	r3, [r4, #12]
    60a4:	6022      	str	r2, [r4, #0]
    60a6:	04db      	lsls	r3, r3, #19
    60a8:	d5b9      	bpl.n	601e <__sflush_r+0x72>
    60aa:	2900      	cmp	r1, #0
    60ac:	d1b7      	bne.n	601e <__sflush_r+0x72>
    60ae:	6520      	str	r0, [r4, #80]	; 0x50
    60b0:	e7b5      	b.n	601e <__sflush_r+0x72>
    60b2:	6be2      	ldr	r2, [r4, #60]	; 0x3c
    60b4:	2a00      	cmp	r2, #0
    60b6:	dd00      	ble.n	60ba <__sflush_r+0x10e>
    60b8:	e78a      	b.n	5fd0 <__sflush_r+0x24>
    60ba:	e7be      	b.n	603a <__sflush_r+0x8e>
    60bc:	2200      	movs	r2, #0
    60be:	2301      	movs	r3, #1
    60c0:	69e1      	ldr	r1, [r4, #28]
    60c2:	4640      	mov	r0, r8
    60c4:	47b0      	blx	r6
    60c6:	0002      	movs	r2, r0
    60c8:	1c43      	adds	r3, r0, #1
    60ca:	d002      	beq.n	60d2 <__sflush_r+0x126>
    60cc:	89a3      	ldrh	r3, [r4, #12]
    60ce:	6aa6      	ldr	r6, [r4, #40]	; 0x28
    60d0:	e78b      	b.n	5fea <__sflush_r+0x3e>
    60d2:	4643      	mov	r3, r8
    60d4:	681b      	ldr	r3, [r3, #0]
    60d6:	2b00      	cmp	r3, #0
    60d8:	d0f8      	beq.n	60cc <__sflush_r+0x120>
    60da:	2b1d      	cmp	r3, #29
    60dc:	d001      	beq.n	60e2 <__sflush_r+0x136>
    60de:	2b16      	cmp	r3, #22
    60e0:	d103      	bne.n	60ea <__sflush_r+0x13e>
    60e2:	4643      	mov	r3, r8
    60e4:	2000      	movs	r0, #0
    60e6:	601d      	str	r5, [r3, #0]
    60e8:	e7a8      	b.n	603c <__sflush_r+0x90>
    60ea:	2140      	movs	r1, #64	; 0x40
    60ec:	89a3      	ldrh	r3, [r4, #12]
    60ee:	430b      	orrs	r3, r1
    60f0:	81a3      	strh	r3, [r4, #12]
    60f2:	e7a3      	b.n	603c <__sflush_r+0x90>
    60f4:	fffff7ff 	.word	0xfffff7ff
    60f8:	20400001 	.word	0x20400001

000060fc <_fflush_r>:
    60fc:	b570      	push	{r4, r5, r6, lr}
    60fe:	0005      	movs	r5, r0
    6100:	000c      	movs	r4, r1
    6102:	2800      	cmp	r0, #0
    6104:	d002      	beq.n	610c <_fflush_r+0x10>
    6106:	6b83      	ldr	r3, [r0, #56]	; 0x38
    6108:	2b00      	cmp	r3, #0
    610a:	d016      	beq.n	613a <_fflush_r+0x3e>
    610c:	220c      	movs	r2, #12
    610e:	5ea3      	ldrsh	r3, [r4, r2]
    6110:	2600      	movs	r6, #0
    6112:	2b00      	cmp	r3, #0
    6114:	d00f      	beq.n	6136 <_fflush_r+0x3a>
    6116:	6e62      	ldr	r2, [r4, #100]	; 0x64
    6118:	07d2      	lsls	r2, r2, #31
    611a:	d401      	bmi.n	6120 <_fflush_r+0x24>
    611c:	059b      	lsls	r3, r3, #22
    611e:	d513      	bpl.n	6148 <_fflush_r+0x4c>
    6120:	0021      	movs	r1, r4
    6122:	0028      	movs	r0, r5
    6124:	f7ff ff42 	bl	5fac <__sflush_r>
    6128:	6e63      	ldr	r3, [r4, #100]	; 0x64
    612a:	0006      	movs	r6, r0
    612c:	07db      	lsls	r3, r3, #31
    612e:	d402      	bmi.n	6136 <_fflush_r+0x3a>
    6130:	89a3      	ldrh	r3, [r4, #12]
    6132:	059b      	lsls	r3, r3, #22
    6134:	d504      	bpl.n	6140 <_fflush_r+0x44>
    6136:	0030      	movs	r0, r6
    6138:	bd70      	pop	{r4, r5, r6, pc}
    613a:	f000 f839 	bl	61b0 <__sinit>
    613e:	e7e5      	b.n	610c <_fflush_r+0x10>
    6140:	6da0      	ldr	r0, [r4, #88]	; 0x58
    6142:	f000 fb79 	bl	6838 <__retarget_lock_release_recursive>
    6146:	e7f6      	b.n	6136 <_fflush_r+0x3a>
    6148:	6da0      	ldr	r0, [r4, #88]	; 0x58
    614a:	f000 fb73 	bl	6834 <__retarget_lock_acquire_recursive>
    614e:	e7e7      	b.n	6120 <_fflush_r+0x24>

00006150 <_cleanup_r>:
    6150:	b510      	push	{r4, lr}
    6152:	4902      	ldr	r1, [pc, #8]	; (615c <_cleanup_r+0xc>)
    6154:	f000 fb36 	bl	67c4 <_fwalk_reent>
    6158:	bd10      	pop	{r4, pc}
    615a:	46c0      	nop			; (mov r8, r8)
    615c:	00007d69 	.word	0x00007d69

00006160 <std.isra.0>:
    6160:	2300      	movs	r3, #0
    6162:	b510      	push	{r4, lr}
    6164:	0004      	movs	r4, r0
    6166:	6003      	str	r3, [r0, #0]
    6168:	6043      	str	r3, [r0, #4]
    616a:	6083      	str	r3, [r0, #8]
    616c:	8181      	strh	r1, [r0, #12]
    616e:	6643      	str	r3, [r0, #100]	; 0x64
    6170:	81c2      	strh	r2, [r0, #14]
    6172:	6103      	str	r3, [r0, #16]
    6174:	6143      	str	r3, [r0, #20]
    6176:	6183      	str	r3, [r0, #24]
    6178:	2208      	movs	r2, #8
    617a:	2100      	movs	r1, #0
    617c:	305c      	adds	r0, #92	; 0x5c
    617e:	f7fd f8b7 	bl	32f0 <memset>
    6182:	0020      	movs	r0, r4
    6184:	4b06      	ldr	r3, [pc, #24]	; (61a0 <std.isra.0+0x40>)
    6186:	61e4      	str	r4, [r4, #28]
    6188:	6223      	str	r3, [r4, #32]
    618a:	4b06      	ldr	r3, [pc, #24]	; (61a4 <std.isra.0+0x44>)
    618c:	3058      	adds	r0, #88	; 0x58
    618e:	6263      	str	r3, [r4, #36]	; 0x24
    6190:	4b05      	ldr	r3, [pc, #20]	; (61a8 <std.isra.0+0x48>)
    6192:	62a3      	str	r3, [r4, #40]	; 0x28
    6194:	4b05      	ldr	r3, [pc, #20]	; (61ac <std.isra.0+0x4c>)
    6196:	62e3      	str	r3, [r4, #44]	; 0x2c
    6198:	f000 fb48 	bl	682c <__retarget_lock_init_recursive>
    619c:	bd10      	pop	{r4, pc}
    619e:	46c0      	nop			; (mov r8, r8)
    61a0:	00007a9d 	.word	0x00007a9d
    61a4:	00007ac5 	.word	0x00007ac5
    61a8:	00007b01 	.word	0x00007b01
    61ac:	00007b2d 	.word	0x00007b2d

000061b0 <__sinit>:
    61b0:	b570      	push	{r4, r5, r6, lr}
    61b2:	0004      	movs	r4, r0
    61b4:	4d14      	ldr	r5, [pc, #80]	; (6208 <__sinit+0x58>)
    61b6:	0028      	movs	r0, r5
    61b8:	f000 fb3c 	bl	6834 <__retarget_lock_acquire_recursive>
    61bc:	6ba3      	ldr	r3, [r4, #56]	; 0x38
    61be:	2b00      	cmp	r3, #0
    61c0:	d11d      	bne.n	61fe <__sinit+0x4e>
    61c2:	4a12      	ldr	r2, [pc, #72]	; (620c <__sinit+0x5c>)
    61c4:	2104      	movs	r1, #4
    61c6:	63e2      	str	r2, [r4, #60]	; 0x3c
    61c8:	22b8      	movs	r2, #184	; 0xb8
    61ca:	0092      	lsls	r2, r2, #2
    61cc:	50a3      	str	r3, [r4, r2]
    61ce:	23b9      	movs	r3, #185	; 0xb9
    61d0:	2203      	movs	r2, #3
    61d2:	009b      	lsls	r3, r3, #2
    61d4:	50e2      	str	r2, [r4, r3]
    61d6:	3308      	adds	r3, #8
    61d8:	18e2      	adds	r2, r4, r3
    61da:	3b04      	subs	r3, #4
    61dc:	50e2      	str	r2, [r4, r3]
    61de:	6860      	ldr	r0, [r4, #4]
    61e0:	2200      	movs	r2, #0
    61e2:	f7ff ffbd 	bl	6160 <std.isra.0>
    61e6:	2201      	movs	r2, #1
    61e8:	2109      	movs	r1, #9
    61ea:	68a0      	ldr	r0, [r4, #8]
    61ec:	f7ff ffb8 	bl	6160 <std.isra.0>
    61f0:	2202      	movs	r2, #2
    61f2:	2112      	movs	r1, #18
    61f4:	68e0      	ldr	r0, [r4, #12]
    61f6:	f7ff ffb3 	bl	6160 <std.isra.0>
    61fa:	2301      	movs	r3, #1
    61fc:	63a3      	str	r3, [r4, #56]	; 0x38
    61fe:	0028      	movs	r0, r5
    6200:	f000 fb1a 	bl	6838 <__retarget_lock_release_recursive>
    6204:	bd70      	pop	{r4, r5, r6, pc}
    6206:	46c0      	nop			; (mov r8, r8)
    6208:	20000a78 	.word	0x20000a78
    620c:	00006151 	.word	0x00006151

00006210 <__sfp_lock_acquire>:
    6210:	b510      	push	{r4, lr}
    6212:	4802      	ldr	r0, [pc, #8]	; (621c <__sfp_lock_acquire+0xc>)
    6214:	f000 fb0e 	bl	6834 <__retarget_lock_acquire_recursive>
    6218:	bd10      	pop	{r4, pc}
    621a:	46c0      	nop			; (mov r8, r8)
    621c:	20000a8c 	.word	0x20000a8c

00006220 <__sfp_lock_release>:
    6220:	b510      	push	{r4, lr}
    6222:	4802      	ldr	r0, [pc, #8]	; (622c <__sfp_lock_release+0xc>)
    6224:	f000 fb08 	bl	6838 <__retarget_lock_release_recursive>
    6228:	bd10      	pop	{r4, pc}
    622a:	46c0      	nop			; (mov r8, r8)
    622c:	20000a8c 	.word	0x20000a8c

00006230 <__libc_fini_array>:
    6230:	b570      	push	{r4, r5, r6, lr}
    6232:	4b09      	ldr	r3, [pc, #36]	; (6258 <__libc_fini_array+0x28>)
    6234:	4c09      	ldr	r4, [pc, #36]	; (625c <__libc_fini_array+0x2c>)
    6236:	1ae4      	subs	r4, r4, r3
    6238:	10a4      	asrs	r4, r4, #2
    623a:	d009      	beq.n	6250 <__libc_fini_array+0x20>
    623c:	4a08      	ldr	r2, [pc, #32]	; (6260 <__libc_fini_array+0x30>)
    623e:	18a5      	adds	r5, r4, r2
    6240:	00ad      	lsls	r5, r5, #2
    6242:	18ed      	adds	r5, r5, r3
    6244:	682b      	ldr	r3, [r5, #0]
    6246:	3c01      	subs	r4, #1
    6248:	4798      	blx	r3
    624a:	3d04      	subs	r5, #4
    624c:	2c00      	cmp	r4, #0
    624e:	d1f9      	bne.n	6244 <__libc_fini_array+0x14>
    6250:	f002 fdb8 	bl	8dc4 <_fini>
    6254:	bd70      	pop	{r4, r5, r6, pc}
    6256:	46c0      	nop			; (mov r8, r8)
    6258:	00008dd0 	.word	0x00008dd0
    625c:	00008dd4 	.word	0x00008dd4
    6260:	3fffffff 	.word	0x3fffffff

00006264 <_malloc_trim_r>:
    6264:	b5f8      	push	{r3, r4, r5, r6, r7, lr}
    6266:	000c      	movs	r4, r1
    6268:	0006      	movs	r6, r0
    626a:	f000 feef 	bl	704c <__malloc_lock>
    626e:	4f20      	ldr	r7, [pc, #128]	; (62f0 <_malloc_trim_r+0x8c>)
    6270:	68bb      	ldr	r3, [r7, #8]
    6272:	685d      	ldr	r5, [r3, #4]
    6274:	2303      	movs	r3, #3
    6276:	439d      	bics	r5, r3
    6278:	4b1e      	ldr	r3, [pc, #120]	; (62f4 <_malloc_trim_r+0x90>)
    627a:	1b2c      	subs	r4, r5, r4
    627c:	469c      	mov	ip, r3
    627e:	4464      	add	r4, ip
    6280:	0b24      	lsrs	r4, r4, #12
    6282:	4b1d      	ldr	r3, [pc, #116]	; (62f8 <_malloc_trim_r+0x94>)
    6284:	3c01      	subs	r4, #1
    6286:	0324      	lsls	r4, r4, #12
    6288:	429c      	cmp	r4, r3
    628a:	dd07      	ble.n	629c <_malloc_trim_r+0x38>
    628c:	2100      	movs	r1, #0
    628e:	0030      	movs	r0, r6
    6290:	f001 fbf2 	bl	7a78 <_sbrk_r>
    6294:	68bb      	ldr	r3, [r7, #8]
    6296:	195b      	adds	r3, r3, r5
    6298:	4298      	cmp	r0, r3
    629a:	d004      	beq.n	62a6 <_malloc_trim_r+0x42>
    629c:	0030      	movs	r0, r6
    629e:	f000 fedd 	bl	705c <__malloc_unlock>
    62a2:	2000      	movs	r0, #0
    62a4:	bdf8      	pop	{r3, r4, r5, r6, r7, pc}
    62a6:	4261      	negs	r1, r4
    62a8:	0030      	movs	r0, r6
    62aa:	f001 fbe5 	bl	7a78 <_sbrk_r>
    62ae:	1c43      	adds	r3, r0, #1
    62b0:	d00d      	beq.n	62ce <_malloc_trim_r+0x6a>
    62b2:	2201      	movs	r2, #1
    62b4:	68bb      	ldr	r3, [r7, #8]
    62b6:	1b2d      	subs	r5, r5, r4
    62b8:	4315      	orrs	r5, r2
    62ba:	605d      	str	r5, [r3, #4]
    62bc:	4b0f      	ldr	r3, [pc, #60]	; (62fc <_malloc_trim_r+0x98>)
    62be:	0030      	movs	r0, r6
    62c0:	681a      	ldr	r2, [r3, #0]
    62c2:	1b14      	subs	r4, r2, r4
    62c4:	601c      	str	r4, [r3, #0]
    62c6:	f000 fec9 	bl	705c <__malloc_unlock>
    62ca:	2001      	movs	r0, #1
    62cc:	e7ea      	b.n	62a4 <_malloc_trim_r+0x40>
    62ce:	2100      	movs	r1, #0
    62d0:	0030      	movs	r0, r6
    62d2:	f001 fbd1 	bl	7a78 <_sbrk_r>
    62d6:	68ba      	ldr	r2, [r7, #8]
    62d8:	1a83      	subs	r3, r0, r2
    62da:	2b0f      	cmp	r3, #15
    62dc:	ddde      	ble.n	629c <_malloc_trim_r+0x38>
    62de:	4908      	ldr	r1, [pc, #32]	; (6300 <_malloc_trim_r+0x9c>)
    62e0:	6809      	ldr	r1, [r1, #0]
    62e2:	1a40      	subs	r0, r0, r1
    62e4:	4905      	ldr	r1, [pc, #20]	; (62fc <_malloc_trim_r+0x98>)
    62e6:	6008      	str	r0, [r1, #0]
    62e8:	2101      	movs	r1, #1
    62ea:	430b      	orrs	r3, r1
    62ec:	6053      	str	r3, [r2, #4]
    62ee:	e7d5      	b.n	629c <_malloc_trim_r+0x38>
    62f0:	20000434 	.word	0x20000434
    62f4:	00000fef 	.word	0x00000fef
    62f8:	00000fff 	.word	0x00000fff
    62fc:	200009e0 	.word	0x200009e0
    6300:	2000083c 	.word	0x2000083c

00006304 <_free_r>:
    6304:	b5f8      	push	{r3, r4, r5, r6, r7, lr}
    6306:	0004      	movs	r4, r0
    6308:	1e0d      	subs	r5, r1, #0
    630a:	d03c      	beq.n	6386 <_free_r+0x82>
    630c:	f000 fe9e 	bl	704c <__malloc_lock>
    6310:	0029      	movs	r1, r5
    6312:	3908      	subs	r1, #8
    6314:	6848      	ldr	r0, [r1, #4]
    6316:	2301      	movs	r3, #1
    6318:	0005      	movs	r5, r0
    631a:	2603      	movs	r6, #3
    631c:	439d      	bics	r5, r3
    631e:	194a      	adds	r2, r1, r5
    6320:	469c      	mov	ip, r3
    6322:	4f61      	ldr	r7, [pc, #388]	; (64a8 <_free_r+0x1a4>)
    6324:	6853      	ldr	r3, [r2, #4]
    6326:	43b3      	bics	r3, r6
    6328:	68be      	ldr	r6, [r7, #8]
    632a:	42b2      	cmp	r2, r6
    632c:	d056      	beq.n	63dc <_free_r+0xd8>
    632e:	4666      	mov	r6, ip
    6330:	6053      	str	r3, [r2, #4]
    6332:	4206      	tst	r6, r0
    6334:	d10a      	bne.n	634c <_free_r+0x48>
    6336:	003e      	movs	r6, r7
    6338:	6808      	ldr	r0, [r1, #0]
    633a:	3608      	adds	r6, #8
    633c:	1a09      	subs	r1, r1, r0
    633e:	182d      	adds	r5, r5, r0
    6340:	6888      	ldr	r0, [r1, #8]
    6342:	42b0      	cmp	r0, r6
    6344:	d065      	beq.n	6412 <_free_r+0x10e>
    6346:	68ce      	ldr	r6, [r1, #12]
    6348:	60c6      	str	r6, [r0, #12]
    634a:	60b0      	str	r0, [r6, #8]
    634c:	2001      	movs	r0, #1
    634e:	18d6      	adds	r6, r2, r3
    6350:	6876      	ldr	r6, [r6, #4]
    6352:	4206      	tst	r6, r0
    6354:	d033      	beq.n	63be <_free_r+0xba>
    6356:	4b55      	ldr	r3, [pc, #340]	; (64ac <_free_r+0x1a8>)
    6358:	4328      	orrs	r0, r5
    635a:	6048      	str	r0, [r1, #4]
    635c:	514d      	str	r5, [r1, r5]
    635e:	429d      	cmp	r5, r3
    6360:	d812      	bhi.n	6388 <_free_r+0x84>
    6362:	08ed      	lsrs	r5, r5, #3
    6364:	3bff      	subs	r3, #255	; 0xff
    6366:	10aa      	asrs	r2, r5, #2
    6368:	3bff      	subs	r3, #255	; 0xff
    636a:	4093      	lsls	r3, r2
    636c:	687a      	ldr	r2, [r7, #4]
    636e:	00ed      	lsls	r5, r5, #3
    6370:	4313      	orrs	r3, r2
    6372:	607b      	str	r3, [r7, #4]
    6374:	19ef      	adds	r7, r5, r7
    6376:	68bb      	ldr	r3, [r7, #8]
    6378:	60cf      	str	r7, [r1, #12]
    637a:	608b      	str	r3, [r1, #8]
    637c:	60b9      	str	r1, [r7, #8]
    637e:	60d9      	str	r1, [r3, #12]
    6380:	0020      	movs	r0, r4
    6382:	f000 fe6b 	bl	705c <__malloc_unlock>
    6386:	bdf8      	pop	{r3, r4, r5, r6, r7, pc}
    6388:	0a68      	lsrs	r0, r5, #9
    638a:	2804      	cmp	r0, #4
    638c:	d850      	bhi.n	6430 <_free_r+0x12c>
    638e:	09a8      	lsrs	r0, r5, #6
    6390:	0002      	movs	r2, r0
    6392:	3039      	adds	r0, #57	; 0x39
    6394:	3238      	adds	r2, #56	; 0x38
    6396:	00c0      	lsls	r0, r0, #3
    6398:	1838      	adds	r0, r7, r0
    639a:	3808      	subs	r0, #8
    639c:	6883      	ldr	r3, [r0, #8]
    639e:	2603      	movs	r6, #3
    63a0:	4298      	cmp	r0, r3
    63a2:	d04c      	beq.n	643e <_free_r+0x13a>
    63a4:	685a      	ldr	r2, [r3, #4]
    63a6:	43b2      	bics	r2, r6
    63a8:	4295      	cmp	r5, r2
    63aa:	d230      	bcs.n	640e <_free_r+0x10a>
    63ac:	689b      	ldr	r3, [r3, #8]
    63ae:	4298      	cmp	r0, r3
    63b0:	d1f8      	bne.n	63a4 <_free_r+0xa0>
    63b2:	68c3      	ldr	r3, [r0, #12]
    63b4:	60cb      	str	r3, [r1, #12]
    63b6:	6088      	str	r0, [r1, #8]
    63b8:	6099      	str	r1, [r3, #8]
    63ba:	60c1      	str	r1, [r0, #12]
    63bc:	e7e0      	b.n	6380 <_free_r+0x7c>
    63be:	18ed      	adds	r5, r5, r3
    63c0:	4e3b      	ldr	r6, [pc, #236]	; (64b0 <_free_r+0x1ac>)
    63c2:	6893      	ldr	r3, [r2, #8]
    63c4:	42b3      	cmp	r3, r6
    63c6:	d042      	beq.n	644e <_free_r+0x14a>
    63c8:	68d2      	ldr	r2, [r2, #12]
    63ca:	4328      	orrs	r0, r5
    63cc:	60da      	str	r2, [r3, #12]
    63ce:	6093      	str	r3, [r2, #8]
    63d0:	4b36      	ldr	r3, [pc, #216]	; (64ac <_free_r+0x1a8>)
    63d2:	6048      	str	r0, [r1, #4]
    63d4:	514d      	str	r5, [r1, r5]
    63d6:	429d      	cmp	r5, r3
    63d8:	d8d6      	bhi.n	6388 <_free_r+0x84>
    63da:	e7c2      	b.n	6362 <_free_r+0x5e>
    63dc:	4662      	mov	r2, ip
    63de:	18eb      	adds	r3, r5, r3
    63e0:	4202      	tst	r2, r0
    63e2:	d106      	bne.n	63f2 <_free_r+0xee>
    63e4:	680a      	ldr	r2, [r1, #0]
    63e6:	1a89      	subs	r1, r1, r2
    63e8:	6888      	ldr	r0, [r1, #8]
    63ea:	189b      	adds	r3, r3, r2
    63ec:	68ca      	ldr	r2, [r1, #12]
    63ee:	60c2      	str	r2, [r0, #12]
    63f0:	6090      	str	r0, [r2, #8]
    63f2:	2201      	movs	r2, #1
    63f4:	431a      	orrs	r2, r3
    63f6:	604a      	str	r2, [r1, #4]
    63f8:	4a2e      	ldr	r2, [pc, #184]	; (64b4 <_free_r+0x1b0>)
    63fa:	60b9      	str	r1, [r7, #8]
    63fc:	6812      	ldr	r2, [r2, #0]
    63fe:	4293      	cmp	r3, r2
    6400:	d3be      	bcc.n	6380 <_free_r+0x7c>
    6402:	4b2d      	ldr	r3, [pc, #180]	; (64b8 <_free_r+0x1b4>)
    6404:	0020      	movs	r0, r4
    6406:	6819      	ldr	r1, [r3, #0]
    6408:	f7ff ff2c 	bl	6264 <_malloc_trim_r>
    640c:	e7b8      	b.n	6380 <_free_r+0x7c>
    640e:	0018      	movs	r0, r3
    6410:	e7cf      	b.n	63b2 <_free_r+0xae>
    6412:	4666      	mov	r6, ip
    6414:	18d0      	adds	r0, r2, r3
    6416:	6840      	ldr	r0, [r0, #4]
    6418:	4230      	tst	r0, r6
    641a:	d13f      	bne.n	649c <_free_r+0x198>
    641c:	6890      	ldr	r0, [r2, #8]
    641e:	195d      	adds	r5, r3, r5
    6420:	68d3      	ldr	r3, [r2, #12]
    6422:	60c3      	str	r3, [r0, #12]
    6424:	6098      	str	r0, [r3, #8]
    6426:	4663      	mov	r3, ip
    6428:	432b      	orrs	r3, r5
    642a:	604b      	str	r3, [r1, #4]
    642c:	514d      	str	r5, [r1, r5]
    642e:	e7a7      	b.n	6380 <_free_r+0x7c>
    6430:	2814      	cmp	r0, #20
    6432:	d814      	bhi.n	645e <_free_r+0x15a>
    6434:	0002      	movs	r2, r0
    6436:	305c      	adds	r0, #92	; 0x5c
    6438:	325b      	adds	r2, #91	; 0x5b
    643a:	00c0      	lsls	r0, r0, #3
    643c:	e7ac      	b.n	6398 <_free_r+0x94>
    643e:	2301      	movs	r3, #1
    6440:	1092      	asrs	r2, r2, #2
    6442:	4093      	lsls	r3, r2
    6444:	687a      	ldr	r2, [r7, #4]
    6446:	4313      	orrs	r3, r2
    6448:	607b      	str	r3, [r7, #4]
    644a:	0003      	movs	r3, r0
    644c:	e7b2      	b.n	63b4 <_free_r+0xb0>
    644e:	4328      	orrs	r0, r5
    6450:	60d9      	str	r1, [r3, #12]
    6452:	6099      	str	r1, [r3, #8]
    6454:	60cb      	str	r3, [r1, #12]
    6456:	608b      	str	r3, [r1, #8]
    6458:	6048      	str	r0, [r1, #4]
    645a:	514d      	str	r5, [r1, r5]
    645c:	e790      	b.n	6380 <_free_r+0x7c>
    645e:	2854      	cmp	r0, #84	; 0x54
    6460:	d805      	bhi.n	646e <_free_r+0x16a>
    6462:	0b28      	lsrs	r0, r5, #12
    6464:	0002      	movs	r2, r0
    6466:	306f      	adds	r0, #111	; 0x6f
    6468:	326e      	adds	r2, #110	; 0x6e
    646a:	00c0      	lsls	r0, r0, #3
    646c:	e794      	b.n	6398 <_free_r+0x94>
    646e:	22aa      	movs	r2, #170	; 0xaa
    6470:	0052      	lsls	r2, r2, #1
    6472:	4290      	cmp	r0, r2
    6474:	d805      	bhi.n	6482 <_free_r+0x17e>
    6476:	0be8      	lsrs	r0, r5, #15
    6478:	0002      	movs	r2, r0
    647a:	3078      	adds	r0, #120	; 0x78
    647c:	3277      	adds	r2, #119	; 0x77
    647e:	00c0      	lsls	r0, r0, #3
    6480:	e78a      	b.n	6398 <_free_r+0x94>
    6482:	4a0e      	ldr	r2, [pc, #56]	; (64bc <_free_r+0x1b8>)
    6484:	4290      	cmp	r0, r2
    6486:	d805      	bhi.n	6494 <_free_r+0x190>
    6488:	0ca8      	lsrs	r0, r5, #18
    648a:	0002      	movs	r2, r0
    648c:	307d      	adds	r0, #125	; 0x7d
    648e:	327c      	adds	r2, #124	; 0x7c
    6490:	00c0      	lsls	r0, r0, #3
    6492:	e781      	b.n	6398 <_free_r+0x94>
    6494:	20fe      	movs	r0, #254	; 0xfe
    6496:	227e      	movs	r2, #126	; 0x7e
    6498:	0080      	lsls	r0, r0, #2
    649a:	e77d      	b.n	6398 <_free_r+0x94>
    649c:	4663      	mov	r3, ip
    649e:	432b      	orrs	r3, r5
    64a0:	604b      	str	r3, [r1, #4]
    64a2:	6015      	str	r5, [r2, #0]
    64a4:	e76c      	b.n	6380 <_free_r+0x7c>
    64a6:	46c0      	nop			; (mov r8, r8)
    64a8:	20000434 	.word	0x20000434
    64ac:	000001ff 	.word	0x000001ff
    64b0:	2000043c 	.word	0x2000043c
    64b4:	20000840 	.word	0x20000840
    64b8:	20000a10 	.word	0x20000a10
    64bc:	00000554 	.word	0x00000554

000064c0 <__sfvwrite_r>:
    64c0:	b5f0      	push	{r4, r5, r6, r7, lr}
    64c2:	464e      	mov	r6, r9
    64c4:	46de      	mov	lr, fp
    64c6:	4657      	mov	r7, sl
    64c8:	4645      	mov	r5, r8
    64ca:	b5e0      	push	{r5, r6, r7, lr}
    64cc:	6893      	ldr	r3, [r2, #8]
    64ce:	b083      	sub	sp, #12
    64d0:	9000      	str	r0, [sp, #0]
    64d2:	000c      	movs	r4, r1
    64d4:	0016      	movs	r6, r2
    64d6:	2b00      	cmp	r3, #0
    64d8:	d025      	beq.n	6526 <__sfvwrite_r+0x66>
    64da:	898b      	ldrh	r3, [r1, #12]
    64dc:	071a      	lsls	r2, r3, #28
    64de:	d52a      	bpl.n	6536 <__sfvwrite_r+0x76>
    64e0:	690a      	ldr	r2, [r1, #16]
    64e2:	2a00      	cmp	r2, #0
    64e4:	d027      	beq.n	6536 <__sfvwrite_r+0x76>
    64e6:	6832      	ldr	r2, [r6, #0]
    64e8:	4693      	mov	fp, r2
    64ea:	079a      	lsls	r2, r3, #30
    64ec:	d52f      	bpl.n	654e <__sfvwrite_r+0x8e>
    64ee:	4bb2      	ldr	r3, [pc, #712]	; (67b8 <__sfvwrite_r+0x2f8>)
    64f0:	2700      	movs	r7, #0
    64f2:	2500      	movs	r5, #0
    64f4:	4698      	mov	r8, r3
    64f6:	46b1      	mov	r9, r6
    64f8:	2d00      	cmp	r5, #0
    64fa:	d100      	bne.n	64fe <__sfvwrite_r+0x3e>
    64fc:	e072      	b.n	65e4 <__sfvwrite_r+0x124>
    64fe:	002b      	movs	r3, r5
    6500:	4545      	cmp	r5, r8
    6502:	d900      	bls.n	6506 <__sfvwrite_r+0x46>
    6504:	4bac      	ldr	r3, [pc, #688]	; (67b8 <__sfvwrite_r+0x2f8>)
    6506:	003a      	movs	r2, r7
    6508:	69e1      	ldr	r1, [r4, #28]
    650a:	9800      	ldr	r0, [sp, #0]
    650c:	6a66      	ldr	r6, [r4, #36]	; 0x24
    650e:	47b0      	blx	r6
    6510:	2800      	cmp	r0, #0
    6512:	dc00      	bgt.n	6516 <__sfvwrite_r+0x56>
    6514:	e073      	b.n	65fe <__sfvwrite_r+0x13e>
    6516:	464b      	mov	r3, r9
    6518:	689b      	ldr	r3, [r3, #8]
    651a:	183f      	adds	r7, r7, r0
    651c:	1a2d      	subs	r5, r5, r0
    651e:	1a18      	subs	r0, r3, r0
    6520:	464b      	mov	r3, r9
    6522:	6098      	str	r0, [r3, #8]
    6524:	d1e8      	bne.n	64f8 <__sfvwrite_r+0x38>
    6526:	2000      	movs	r0, #0
    6528:	b003      	add	sp, #12
    652a:	bc3c      	pop	{r2, r3, r4, r5}
    652c:	4690      	mov	r8, r2
    652e:	4699      	mov	r9, r3
    6530:	46a2      	mov	sl, r4
    6532:	46ab      	mov	fp, r5
    6534:	bdf0      	pop	{r4, r5, r6, r7, pc}
    6536:	0021      	movs	r1, r4
    6538:	9800      	ldr	r0, [sp, #0]
    653a:	f7fe fc4b 	bl	4dd4 <__swsetup_r>
    653e:	2800      	cmp	r0, #0
    6540:	d000      	beq.n	6544 <__sfvwrite_r+0x84>
    6542:	e130      	b.n	67a6 <__sfvwrite_r+0x2e6>
    6544:	6832      	ldr	r2, [r6, #0]
    6546:	89a3      	ldrh	r3, [r4, #12]
    6548:	4693      	mov	fp, r2
    654a:	079a      	lsls	r2, r3, #30
    654c:	d4cf      	bmi.n	64ee <__sfvwrite_r+0x2e>
    654e:	07da      	lsls	r2, r3, #31
    6550:	d55d      	bpl.n	660e <__sfvwrite_r+0x14e>
    6552:	2300      	movs	r3, #0
    6554:	2000      	movs	r0, #0
    6556:	469a      	mov	sl, r3
    6558:	2700      	movs	r7, #0
    655a:	001d      	movs	r5, r3
    655c:	46b1      	mov	r9, r6
    655e:	e029      	b.n	65b4 <__sfvwrite_r+0xf4>
    6560:	2800      	cmp	r0, #0
    6562:	d033      	beq.n	65cc <__sfvwrite_r+0x10c>
    6564:	46a8      	mov	r8, r5
    6566:	42bd      	cmp	r5, r7
    6568:	d900      	bls.n	656c <__sfvwrite_r+0xac>
    656a:	46b8      	mov	r8, r7
    656c:	6820      	ldr	r0, [r4, #0]
    656e:	6922      	ldr	r2, [r4, #16]
    6570:	4646      	mov	r6, r8
    6572:	6963      	ldr	r3, [r4, #20]
    6574:	4290      	cmp	r0, r2
    6576:	d907      	bls.n	6588 <__sfvwrite_r+0xc8>
    6578:	68a2      	ldr	r2, [r4, #8]
    657a:	4694      	mov	ip, r2
    657c:	449c      	add	ip, r3
    657e:	4662      	mov	r2, ip
    6580:	9201      	str	r2, [sp, #4]
    6582:	45e0      	cmp	r8, ip
    6584:	dd00      	ble.n	6588 <__sfvwrite_r+0xc8>
    6586:	e0e9      	b.n	675c <__sfvwrite_r+0x29c>
    6588:	4598      	cmp	r8, r3
    658a:	da00      	bge.n	658e <__sfvwrite_r+0xce>
    658c:	e08f      	b.n	66ae <__sfvwrite_r+0x1ee>
    658e:	6a66      	ldr	r6, [r4, #36]	; 0x24
    6590:	4652      	mov	r2, sl
    6592:	69e1      	ldr	r1, [r4, #28]
    6594:	9800      	ldr	r0, [sp, #0]
    6596:	47b0      	blx	r6
    6598:	1e06      	subs	r6, r0, #0
    659a:	dd30      	ble.n	65fe <__sfvwrite_r+0x13e>
    659c:	1bad      	subs	r5, r5, r6
    659e:	2001      	movs	r0, #1
    65a0:	2d00      	cmp	r5, #0
    65a2:	d026      	beq.n	65f2 <__sfvwrite_r+0x132>
    65a4:	464b      	mov	r3, r9
    65a6:	689b      	ldr	r3, [r3, #8]
    65a8:	44b2      	add	sl, r6
    65aa:	1bbf      	subs	r7, r7, r6
    65ac:	1b9e      	subs	r6, r3, r6
    65ae:	464b      	mov	r3, r9
    65b0:	609e      	str	r6, [r3, #8]
    65b2:	d0b8      	beq.n	6526 <__sfvwrite_r+0x66>
    65b4:	2f00      	cmp	r7, #0
    65b6:	d1d3      	bne.n	6560 <__sfvwrite_r+0xa0>
    65b8:	465b      	mov	r3, fp
    65ba:	681b      	ldr	r3, [r3, #0]
    65bc:	469a      	mov	sl, r3
    65be:	465b      	mov	r3, fp
    65c0:	685f      	ldr	r7, [r3, #4]
    65c2:	2308      	movs	r3, #8
    65c4:	469c      	mov	ip, r3
    65c6:	44e3      	add	fp, ip
    65c8:	2f00      	cmp	r7, #0
    65ca:	d0f5      	beq.n	65b8 <__sfvwrite_r+0xf8>
    65cc:	003a      	movs	r2, r7
    65ce:	210a      	movs	r1, #10
    65d0:	4650      	mov	r0, sl
    65d2:	f000 fc69 	bl	6ea8 <memchr>
    65d6:	2800      	cmp	r0, #0
    65d8:	d100      	bne.n	65dc <__sfvwrite_r+0x11c>
    65da:	e0e2      	b.n	67a2 <__sfvwrite_r+0x2e2>
    65dc:	4653      	mov	r3, sl
    65de:	3001      	adds	r0, #1
    65e0:	1ac5      	subs	r5, r0, r3
    65e2:	e7bf      	b.n	6564 <__sfvwrite_r+0xa4>
    65e4:	465b      	mov	r3, fp
    65e6:	681f      	ldr	r7, [r3, #0]
    65e8:	685d      	ldr	r5, [r3, #4]
    65ea:	2308      	movs	r3, #8
    65ec:	469c      	mov	ip, r3
    65ee:	44e3      	add	fp, ip
    65f0:	e782      	b.n	64f8 <__sfvwrite_r+0x38>
    65f2:	0021      	movs	r1, r4
    65f4:	9800      	ldr	r0, [sp, #0]
    65f6:	f7ff fd81 	bl	60fc <_fflush_r>
    65fa:	2800      	cmp	r0, #0
    65fc:	d0d2      	beq.n	65a4 <__sfvwrite_r+0xe4>
    65fe:	220c      	movs	r2, #12
    6600:	5ea3      	ldrsh	r3, [r4, r2]
    6602:	2240      	movs	r2, #64	; 0x40
    6604:	2001      	movs	r0, #1
    6606:	4313      	orrs	r3, r2
    6608:	81a3      	strh	r3, [r4, #12]
    660a:	4240      	negs	r0, r0
    660c:	e78c      	b.n	6528 <__sfvwrite_r+0x68>
    660e:	2200      	movs	r2, #0
    6610:	4691      	mov	r9, r2
    6612:	464d      	mov	r5, r9
    6614:	2d00      	cmp	r5, #0
    6616:	d023      	beq.n	6660 <__sfvwrite_r+0x1a0>
    6618:	68a2      	ldr	r2, [r4, #8]
    661a:	4690      	mov	r8, r2
    661c:	2280      	movs	r2, #128	; 0x80
    661e:	0092      	lsls	r2, r2, #2
    6620:	4213      	tst	r3, r2
    6622:	d026      	beq.n	6672 <__sfvwrite_r+0x1b2>
    6624:	46c2      	mov	sl, r8
    6626:	4545      	cmp	r5, r8
    6628:	d34d      	bcc.n	66c6 <__sfvwrite_r+0x206>
    662a:	2290      	movs	r2, #144	; 0x90
    662c:	00d2      	lsls	r2, r2, #3
    662e:	4213      	tst	r3, r2
    6630:	d14e      	bne.n	66d0 <__sfvwrite_r+0x210>
    6632:	002f      	movs	r7, r5
    6634:	6820      	ldr	r0, [r4, #0]
    6636:	4652      	mov	r2, sl
    6638:	4649      	mov	r1, r9
    663a:	f000 fcb7 	bl	6fac <memmove>
    663e:	4642      	mov	r2, r8
    6640:	68a3      	ldr	r3, [r4, #8]
    6642:	1a98      	subs	r0, r3, r2
    6644:	6823      	ldr	r3, [r4, #0]
    6646:	60a0      	str	r0, [r4, #8]
    6648:	4453      	add	r3, sl
    664a:	6023      	str	r3, [r4, #0]
    664c:	68b3      	ldr	r3, [r6, #8]
    664e:	44b9      	add	r9, r7
    6650:	1bed      	subs	r5, r5, r7
    6652:	1bdf      	subs	r7, r3, r7
    6654:	60b7      	str	r7, [r6, #8]
    6656:	d100      	bne.n	665a <__sfvwrite_r+0x19a>
    6658:	e765      	b.n	6526 <__sfvwrite_r+0x66>
    665a:	89a3      	ldrh	r3, [r4, #12]
    665c:	2d00      	cmp	r5, #0
    665e:	d1db      	bne.n	6618 <__sfvwrite_r+0x158>
    6660:	465a      	mov	r2, fp
    6662:	6812      	ldr	r2, [r2, #0]
    6664:	4691      	mov	r9, r2
    6666:	465a      	mov	r2, fp
    6668:	6855      	ldr	r5, [r2, #4]
    666a:	2208      	movs	r2, #8
    666c:	4694      	mov	ip, r2
    666e:	44e3      	add	fp, ip
    6670:	e7d0      	b.n	6614 <__sfvwrite_r+0x154>
    6672:	6820      	ldr	r0, [r4, #0]
    6674:	6923      	ldr	r3, [r4, #16]
    6676:	4298      	cmp	r0, r3
    6678:	d802      	bhi.n	6680 <__sfvwrite_r+0x1c0>
    667a:	6967      	ldr	r7, [r4, #20]
    667c:	42bd      	cmp	r5, r7
    667e:	d259      	bcs.n	6734 <__sfvwrite_r+0x274>
    6680:	4647      	mov	r7, r8
    6682:	42af      	cmp	r7, r5
    6684:	d900      	bls.n	6688 <__sfvwrite_r+0x1c8>
    6686:	002f      	movs	r7, r5
    6688:	003a      	movs	r2, r7
    668a:	4649      	mov	r1, r9
    668c:	f000 fc8e 	bl	6fac <memmove>
    6690:	68a3      	ldr	r3, [r4, #8]
    6692:	6822      	ldr	r2, [r4, #0]
    6694:	1bdb      	subs	r3, r3, r7
    6696:	19d2      	adds	r2, r2, r7
    6698:	60a3      	str	r3, [r4, #8]
    669a:	6022      	str	r2, [r4, #0]
    669c:	2b00      	cmp	r3, #0
    669e:	d1d5      	bne.n	664c <__sfvwrite_r+0x18c>
    66a0:	0021      	movs	r1, r4
    66a2:	9800      	ldr	r0, [sp, #0]
    66a4:	f7ff fd2a 	bl	60fc <_fflush_r>
    66a8:	2800      	cmp	r0, #0
    66aa:	d0cf      	beq.n	664c <__sfvwrite_r+0x18c>
    66ac:	e7a7      	b.n	65fe <__sfvwrite_r+0x13e>
    66ae:	4642      	mov	r2, r8
    66b0:	4651      	mov	r1, sl
    66b2:	f000 fc7b 	bl	6fac <memmove>
    66b6:	4642      	mov	r2, r8
    66b8:	68a3      	ldr	r3, [r4, #8]
    66ba:	1a9b      	subs	r3, r3, r2
    66bc:	60a3      	str	r3, [r4, #8]
    66be:	6823      	ldr	r3, [r4, #0]
    66c0:	4443      	add	r3, r8
    66c2:	6023      	str	r3, [r4, #0]
    66c4:	e76a      	b.n	659c <__sfvwrite_r+0xdc>
    66c6:	46a8      	mov	r8, r5
    66c8:	6820      	ldr	r0, [r4, #0]
    66ca:	002f      	movs	r7, r5
    66cc:	46aa      	mov	sl, r5
    66ce:	e7b2      	b.n	6636 <__sfvwrite_r+0x176>
    66d0:	6921      	ldr	r1, [r4, #16]
    66d2:	6822      	ldr	r2, [r4, #0]
    66d4:	1a52      	subs	r2, r2, r1
    66d6:	4692      	mov	sl, r2
    66d8:	6962      	ldr	r2, [r4, #20]
    66da:	0057      	lsls	r7, r2, #1
    66dc:	18bf      	adds	r7, r7, r2
    66de:	0ffa      	lsrs	r2, r7, #31
    66e0:	19d7      	adds	r7, r2, r7
    66e2:	4652      	mov	r2, sl
    66e4:	1c50      	adds	r0, r2, #1
    66e6:	107f      	asrs	r7, r7, #1
    66e8:	1940      	adds	r0, r0, r5
    66ea:	003a      	movs	r2, r7
    66ec:	42b8      	cmp	r0, r7
    66ee:	d901      	bls.n	66f4 <__sfvwrite_r+0x234>
    66f0:	0007      	movs	r7, r0
    66f2:	0002      	movs	r2, r0
    66f4:	055b      	lsls	r3, r3, #21
    66f6:	d542      	bpl.n	677e <__sfvwrite_r+0x2be>
    66f8:	0011      	movs	r1, r2
    66fa:	9800      	ldr	r0, [sp, #0]
    66fc:	f000 f920 	bl	6940 <_malloc_r>
    6700:	4680      	mov	r8, r0
    6702:	1e03      	subs	r3, r0, #0
    6704:	d052      	beq.n	67ac <__sfvwrite_r+0x2ec>
    6706:	4652      	mov	r2, sl
    6708:	6921      	ldr	r1, [r4, #16]
    670a:	f000 fc0d 	bl	6f28 <memcpy>
    670e:	89a3      	ldrh	r3, [r4, #12]
    6710:	4a2a      	ldr	r2, [pc, #168]	; (67bc <__sfvwrite_r+0x2fc>)
    6712:	4013      	ands	r3, r2
    6714:	2280      	movs	r2, #128	; 0x80
    6716:	4313      	orrs	r3, r2
    6718:	81a3      	strh	r3, [r4, #12]
    671a:	4643      	mov	r3, r8
    671c:	4640      	mov	r0, r8
    671e:	6123      	str	r3, [r4, #16]
    6720:	4653      	mov	r3, sl
    6722:	4450      	add	r0, sl
    6724:	6167      	str	r7, [r4, #20]
    6726:	1aff      	subs	r7, r7, r3
    6728:	60a7      	str	r7, [r4, #8]
    672a:	6020      	str	r0, [r4, #0]
    672c:	46a8      	mov	r8, r5
    672e:	002f      	movs	r7, r5
    6730:	46aa      	mov	sl, r5
    6732:	e780      	b.n	6636 <__sfvwrite_r+0x176>
    6734:	4b22      	ldr	r3, [pc, #136]	; (67c0 <__sfvwrite_r+0x300>)
    6736:	0028      	movs	r0, r5
    6738:	429d      	cmp	r5, r3
    673a:	d900      	bls.n	673e <__sfvwrite_r+0x27e>
    673c:	0018      	movs	r0, r3
    673e:	0039      	movs	r1, r7
    6740:	f7fb f82a 	bl	1798 <__divsi3>
    6744:	003b      	movs	r3, r7
    6746:	464a      	mov	r2, r9
    6748:	4343      	muls	r3, r0
    674a:	69e1      	ldr	r1, [r4, #28]
    674c:	9800      	ldr	r0, [sp, #0]
    674e:	6a67      	ldr	r7, [r4, #36]	; 0x24
    6750:	47b8      	blx	r7
    6752:	2800      	cmp	r0, #0
    6754:	dc00      	bgt.n	6758 <__sfvwrite_r+0x298>
    6756:	e752      	b.n	65fe <__sfvwrite_r+0x13e>
    6758:	0007      	movs	r7, r0
    675a:	e777      	b.n	664c <__sfvwrite_r+0x18c>
    675c:	4666      	mov	r6, ip
    675e:	4651      	mov	r1, sl
    6760:	f000 fc24 	bl	6fac <memmove>
    6764:	46b4      	mov	ip, r6
    6766:	6823      	ldr	r3, [r4, #0]
    6768:	0021      	movs	r1, r4
    676a:	4463      	add	r3, ip
    676c:	6023      	str	r3, [r4, #0]
    676e:	9800      	ldr	r0, [sp, #0]
    6770:	f7ff fcc4 	bl	60fc <_fflush_r>
    6774:	2800      	cmp	r0, #0
    6776:	d000      	beq.n	677a <__sfvwrite_r+0x2ba>
    6778:	e741      	b.n	65fe <__sfvwrite_r+0x13e>
    677a:	9e01      	ldr	r6, [sp, #4]
    677c:	e70e      	b.n	659c <__sfvwrite_r+0xdc>
    677e:	9800      	ldr	r0, [sp, #0]
    6780:	f000 ffbc 	bl	76fc <_realloc_r>
    6784:	4680      	mov	r8, r0
    6786:	2800      	cmp	r0, #0
    6788:	d1c7      	bne.n	671a <__sfvwrite_r+0x25a>
    678a:	9d00      	ldr	r5, [sp, #0]
    678c:	6921      	ldr	r1, [r4, #16]
    678e:	0028      	movs	r0, r5
    6790:	f7ff fdb8 	bl	6304 <_free_r>
    6794:	2280      	movs	r2, #128	; 0x80
    6796:	89a3      	ldrh	r3, [r4, #12]
    6798:	4393      	bics	r3, r2
    679a:	3a74      	subs	r2, #116	; 0x74
    679c:	b21b      	sxth	r3, r3
    679e:	602a      	str	r2, [r5, #0]
    67a0:	e72f      	b.n	6602 <__sfvwrite_r+0x142>
    67a2:	1c7d      	adds	r5, r7, #1
    67a4:	e6de      	b.n	6564 <__sfvwrite_r+0xa4>
    67a6:	2001      	movs	r0, #1
    67a8:	4240      	negs	r0, r0
    67aa:	e6bd      	b.n	6528 <__sfvwrite_r+0x68>
    67ac:	9a00      	ldr	r2, [sp, #0]
    67ae:	330c      	adds	r3, #12
    67b0:	6013      	str	r3, [r2, #0]
    67b2:	220c      	movs	r2, #12
    67b4:	5ea3      	ldrsh	r3, [r4, r2]
    67b6:	e724      	b.n	6602 <__sfvwrite_r+0x142>
    67b8:	7ffffc00 	.word	0x7ffffc00
    67bc:	fffffb7f 	.word	0xfffffb7f
    67c0:	7fffffff 	.word	0x7fffffff

000067c4 <_fwalk_reent>:
    67c4:	b5f8      	push	{r3, r4, r5, r6, r7, lr}
    67c6:	4647      	mov	r7, r8
    67c8:	46ce      	mov	lr, r9
    67ca:	b580      	push	{r7, lr}
    67cc:	27b8      	movs	r7, #184	; 0xb8
    67ce:	4680      	mov	r8, r0
    67d0:	00bf      	lsls	r7, r7, #2
    67d2:	4447      	add	r7, r8
    67d4:	4689      	mov	r9, r1
    67d6:	2600      	movs	r6, #0
    67d8:	2f00      	cmp	r7, #0
    67da:	d014      	beq.n	6806 <_fwalk_reent+0x42>
    67dc:	687b      	ldr	r3, [r7, #4]
    67de:	68bc      	ldr	r4, [r7, #8]
    67e0:	1e5d      	subs	r5, r3, #1
    67e2:	d40d      	bmi.n	6800 <_fwalk_reent+0x3c>
    67e4:	89a3      	ldrh	r3, [r4, #12]
    67e6:	2b01      	cmp	r3, #1
    67e8:	d907      	bls.n	67fa <_fwalk_reent+0x36>
    67ea:	220e      	movs	r2, #14
    67ec:	5ea3      	ldrsh	r3, [r4, r2]
    67ee:	3301      	adds	r3, #1
    67f0:	d003      	beq.n	67fa <_fwalk_reent+0x36>
    67f2:	0021      	movs	r1, r4
    67f4:	4640      	mov	r0, r8
    67f6:	47c8      	blx	r9
    67f8:	4306      	orrs	r6, r0
    67fa:	3468      	adds	r4, #104	; 0x68
    67fc:	3d01      	subs	r5, #1
    67fe:	d2f1      	bcs.n	67e4 <_fwalk_reent+0x20>
    6800:	683f      	ldr	r7, [r7, #0]
    6802:	2f00      	cmp	r7, #0
    6804:	d1ea      	bne.n	67dc <_fwalk_reent+0x18>
    6806:	0030      	movs	r0, r6
    6808:	bc0c      	pop	{r2, r3}
    680a:	4690      	mov	r8, r2
    680c:	4699      	mov	r9, r3
    680e:	bdf8      	pop	{r3, r4, r5, r6, r7, pc}

00006810 <_localeconv_r>:
    6810:	4b04      	ldr	r3, [pc, #16]	; (6824 <_localeconv_r+0x14>)
    6812:	681b      	ldr	r3, [r3, #0]
    6814:	6b58      	ldr	r0, [r3, #52]	; 0x34
    6816:	2800      	cmp	r0, #0
    6818:	d001      	beq.n	681e <_localeconv_r+0xe>
    681a:	30f0      	adds	r0, #240	; 0xf0
    681c:	4770      	bx	lr
    681e:	4802      	ldr	r0, [pc, #8]	; (6828 <_localeconv_r+0x18>)
    6820:	e7fb      	b.n	681a <_localeconv_r+0xa>
    6822:	46c0      	nop			; (mov r8, r8)
    6824:	20000000 	.word	0x20000000
    6828:	20000844 	.word	0x20000844

0000682c <__retarget_lock_init_recursive>:
    682c:	4770      	bx	lr
    682e:	46c0      	nop			; (mov r8, r8)

00006830 <__retarget_lock_close_recursive>:
    6830:	4770      	bx	lr
    6832:	46c0      	nop			; (mov r8, r8)

00006834 <__retarget_lock_acquire_recursive>:
    6834:	4770      	bx	lr
    6836:	46c0      	nop			; (mov r8, r8)

00006838 <__retarget_lock_release_recursive>:
    6838:	4770      	bx	lr
    683a:	46c0      	nop			; (mov r8, r8)

0000683c <__swhatbuf_r>:
    683c:	b570      	push	{r4, r5, r6, lr}
    683e:	000c      	movs	r4, r1
    6840:	001e      	movs	r6, r3
    6842:	230e      	movs	r3, #14
    6844:	5ec9      	ldrsh	r1, [r1, r3]
    6846:	b090      	sub	sp, #64	; 0x40
    6848:	0015      	movs	r5, r2
    684a:	2900      	cmp	r1, #0
    684c:	db15      	blt.n	687a <__swhatbuf_r+0x3e>
    684e:	aa01      	add	r2, sp, #4
    6850:	f001 fb6a 	bl	7f28 <_fstat_r>
    6854:	2800      	cmp	r0, #0
    6856:	db10      	blt.n	687a <__swhatbuf_r+0x3e>
    6858:	22f0      	movs	r2, #240	; 0xf0
    685a:	9b02      	ldr	r3, [sp, #8]
    685c:	0212      	lsls	r2, r2, #8
    685e:	4013      	ands	r3, r2
    6860:	4a0d      	ldr	r2, [pc, #52]	; (6898 <__swhatbuf_r+0x5c>)
    6862:	2080      	movs	r0, #128	; 0x80
    6864:	4694      	mov	ip, r2
    6866:	4463      	add	r3, ip
    6868:	425a      	negs	r2, r3
    686a:	4153      	adcs	r3, r2
    686c:	6033      	str	r3, [r6, #0]
    686e:	2380      	movs	r3, #128	; 0x80
    6870:	00db      	lsls	r3, r3, #3
    6872:	602b      	str	r3, [r5, #0]
    6874:	0100      	lsls	r0, r0, #4
    6876:	b010      	add	sp, #64	; 0x40
    6878:	bd70      	pop	{r4, r5, r6, pc}
    687a:	2300      	movs	r3, #0
    687c:	6033      	str	r3, [r6, #0]
    687e:	89a3      	ldrh	r3, [r4, #12]
    6880:	061b      	lsls	r3, r3, #24
    6882:	d503      	bpl.n	688c <__swhatbuf_r+0x50>
    6884:	2340      	movs	r3, #64	; 0x40
    6886:	2000      	movs	r0, #0
    6888:	602b      	str	r3, [r5, #0]
    688a:	e7f4      	b.n	6876 <__swhatbuf_r+0x3a>
    688c:	2380      	movs	r3, #128	; 0x80
    688e:	00db      	lsls	r3, r3, #3
    6890:	602b      	str	r3, [r5, #0]
    6892:	2000      	movs	r0, #0
    6894:	e7ef      	b.n	6876 <__swhatbuf_r+0x3a>
    6896:	46c0      	nop			; (mov r8, r8)
    6898:	ffffe000 	.word	0xffffe000

0000689c <__smakebuf_r>:
    689c:	b570      	push	{r4, r5, r6, lr}
    689e:	898b      	ldrh	r3, [r1, #12]
    68a0:	b082      	sub	sp, #8
    68a2:	0006      	movs	r6, r0
    68a4:	000c      	movs	r4, r1
    68a6:	079b      	lsls	r3, r3, #30
    68a8:	d507      	bpl.n	68ba <__smakebuf_r+0x1e>
    68aa:	0023      	movs	r3, r4
    68ac:	3343      	adds	r3, #67	; 0x43
    68ae:	6023      	str	r3, [r4, #0]
    68b0:	6123      	str	r3, [r4, #16]
    68b2:	2301      	movs	r3, #1
    68b4:	6163      	str	r3, [r4, #20]
    68b6:	b002      	add	sp, #8
    68b8:	bd70      	pop	{r4, r5, r6, pc}
    68ba:	ab01      	add	r3, sp, #4
    68bc:	466a      	mov	r2, sp
    68be:	f7ff ffbd 	bl	683c <__swhatbuf_r>
    68c2:	9900      	ldr	r1, [sp, #0]
    68c4:	0005      	movs	r5, r0
    68c6:	0030      	movs	r0, r6
    68c8:	f000 f83a 	bl	6940 <_malloc_r>
    68cc:	2800      	cmp	r0, #0
    68ce:	d01e      	beq.n	690e <__smakebuf_r+0x72>
    68d0:	2280      	movs	r2, #128	; 0x80
    68d2:	4b15      	ldr	r3, [pc, #84]	; (6928 <__smakebuf_r+0x8c>)
    68d4:	63f3      	str	r3, [r6, #60]	; 0x3c
    68d6:	89a3      	ldrh	r3, [r4, #12]
    68d8:	6020      	str	r0, [r4, #0]
    68da:	4313      	orrs	r3, r2
    68dc:	9a00      	ldr	r2, [sp, #0]
    68de:	b21b      	sxth	r3, r3
    68e0:	6162      	str	r2, [r4, #20]
    68e2:	9a01      	ldr	r2, [sp, #4]
    68e4:	81a3      	strh	r3, [r4, #12]
    68e6:	6120      	str	r0, [r4, #16]
    68e8:	2a00      	cmp	r2, #0
    68ea:	d102      	bne.n	68f2 <__smakebuf_r+0x56>
    68ec:	432b      	orrs	r3, r5
    68ee:	81a3      	strh	r3, [r4, #12]
    68f0:	e7e1      	b.n	68b6 <__smakebuf_r+0x1a>
    68f2:	230e      	movs	r3, #14
    68f4:	5ee1      	ldrsh	r1, [r4, r3]
    68f6:	0030      	movs	r0, r6
    68f8:	f001 fb2a 	bl	7f50 <_isatty_r>
    68fc:	2800      	cmp	r0, #0
    68fe:	d010      	beq.n	6922 <__smakebuf_r+0x86>
    6900:	2203      	movs	r2, #3
    6902:	89a3      	ldrh	r3, [r4, #12]
    6904:	4393      	bics	r3, r2
    6906:	2201      	movs	r2, #1
    6908:	4313      	orrs	r3, r2
    690a:	b21b      	sxth	r3, r3
    690c:	e7ee      	b.n	68ec <__smakebuf_r+0x50>
    690e:	220c      	movs	r2, #12
    6910:	5ea3      	ldrsh	r3, [r4, r2]
    6912:	059a      	lsls	r2, r3, #22
    6914:	d4cf      	bmi.n	68b6 <__smakebuf_r+0x1a>
    6916:	2203      	movs	r2, #3
    6918:	4393      	bics	r3, r2
    691a:	2202      	movs	r2, #2
    691c:	4313      	orrs	r3, r2
    691e:	81a3      	strh	r3, [r4, #12]
    6920:	e7c3      	b.n	68aa <__smakebuf_r+0xe>
    6922:	220c      	movs	r2, #12
    6924:	5ea3      	ldrsh	r3, [r4, r2]
    6926:	e7e1      	b.n	68ec <__smakebuf_r+0x50>
    6928:	00006151 	.word	0x00006151

0000692c <malloc>:
    692c:	b510      	push	{r4, lr}
    692e:	4b03      	ldr	r3, [pc, #12]	; (693c <malloc+0x10>)
    6930:	0001      	movs	r1, r0
    6932:	6818      	ldr	r0, [r3, #0]
    6934:	f000 f804 	bl	6940 <_malloc_r>
    6938:	bd10      	pop	{r4, pc}
    693a:	46c0      	nop			; (mov r8, r8)
    693c:	20000000 	.word	0x20000000

00006940 <_malloc_r>:
    6940:	b5f0      	push	{r4, r5, r6, r7, lr}
    6942:	4657      	mov	r7, sl
    6944:	4645      	mov	r5, r8
    6946:	46de      	mov	lr, fp
    6948:	464e      	mov	r6, r9
    694a:	b5e0      	push	{r5, r6, r7, lr}
    694c:	000d      	movs	r5, r1
    694e:	350b      	adds	r5, #11
    6950:	b083      	sub	sp, #12
    6952:	0007      	movs	r7, r0
    6954:	2d16      	cmp	r5, #22
    6956:	d800      	bhi.n	695a <_malloc_r+0x1a>
    6958:	e09f      	b.n	6a9a <_malloc_r+0x15a>
    695a:	2307      	movs	r3, #7
    695c:	439d      	bics	r5, r3
    695e:	d500      	bpl.n	6962 <_malloc_r+0x22>
    6960:	e0c4      	b.n	6aec <_malloc_r+0x1ac>
    6962:	42a9      	cmp	r1, r5
    6964:	d900      	bls.n	6968 <_malloc_r+0x28>
    6966:	e0c1      	b.n	6aec <_malloc_r+0x1ac>
    6968:	f000 fb70 	bl	704c <__malloc_lock>
    696c:	23f8      	movs	r3, #248	; 0xf8
    696e:	33ff      	adds	r3, #255	; 0xff
    6970:	429d      	cmp	r5, r3
    6972:	d800      	bhi.n	6976 <_malloc_r+0x36>
    6974:	e28f      	b.n	6e96 <_malloc_r+0x556>
    6976:	0a68      	lsrs	r0, r5, #9
    6978:	d100      	bne.n	697c <_malloc_r+0x3c>
    697a:	e0bb      	b.n	6af4 <_malloc_r+0x1b4>
    697c:	2804      	cmp	r0, #4
    697e:	d900      	bls.n	6982 <_malloc_r+0x42>
    6980:	e162      	b.n	6c48 <_malloc_r+0x308>
    6982:	2338      	movs	r3, #56	; 0x38
    6984:	4698      	mov	r8, r3
    6986:	09a8      	lsrs	r0, r5, #6
    6988:	4480      	add	r8, r0
    698a:	3039      	adds	r0, #57	; 0x39
    698c:	00c1      	lsls	r1, r0, #3
    698e:	4ed2      	ldr	r6, [pc, #840]	; (6cd8 <_malloc_r+0x398>)
    6990:	1871      	adds	r1, r6, r1
    6992:	3908      	subs	r1, #8
    6994:	68cc      	ldr	r4, [r1, #12]
    6996:	42a1      	cmp	r1, r4
    6998:	d019      	beq.n	69ce <_malloc_r+0x8e>
    699a:	2303      	movs	r3, #3
    699c:	6862      	ldr	r2, [r4, #4]
    699e:	439a      	bics	r2, r3
    69a0:	0013      	movs	r3, r2
    69a2:	1b52      	subs	r2, r2, r5
    69a4:	2a0f      	cmp	r2, #15
    69a6:	dd00      	ble.n	69aa <_malloc_r+0x6a>
    69a8:	e0aa      	b.n	6b00 <_malloc_r+0x1c0>
    69aa:	2a00      	cmp	r2, #0
    69ac:	db00      	blt.n	69b0 <_malloc_r+0x70>
    69ae:	e088      	b.n	6ac2 <_malloc_r+0x182>
    69b0:	2303      	movs	r3, #3
    69b2:	469c      	mov	ip, r3
    69b4:	e008      	b.n	69c8 <_malloc_r+0x88>
    69b6:	4662      	mov	r2, ip
    69b8:	6863      	ldr	r3, [r4, #4]
    69ba:	4393      	bics	r3, r2
    69bc:	1b5a      	subs	r2, r3, r5
    69be:	2a0f      	cmp	r2, #15
    69c0:	dd00      	ble.n	69c4 <_malloc_r+0x84>
    69c2:	e09d      	b.n	6b00 <_malloc_r+0x1c0>
    69c4:	2a00      	cmp	r2, #0
    69c6:	da7c      	bge.n	6ac2 <_malloc_r+0x182>
    69c8:	68e4      	ldr	r4, [r4, #12]
    69ca:	42a1      	cmp	r1, r4
    69cc:	d1f3      	bne.n	69b6 <_malloc_r+0x76>
    69ce:	0032      	movs	r2, r6
    69d0:	6934      	ldr	r4, [r6, #16]
    69d2:	3208      	adds	r2, #8
    69d4:	4294      	cmp	r4, r2
    69d6:	d100      	bne.n	69da <_malloc_r+0x9a>
    69d8:	e190      	b.n	6cfc <_malloc_r+0x3bc>
    69da:	2303      	movs	r3, #3
    69dc:	6861      	ldr	r1, [r4, #4]
    69de:	4399      	bics	r1, r3
    69e0:	4689      	mov	r9, r1
    69e2:	1b49      	subs	r1, r1, r5
    69e4:	290f      	cmp	r1, #15
    69e6:	dd00      	ble.n	69ea <_malloc_r+0xaa>
    69e8:	e162      	b.n	6cb0 <_malloc_r+0x370>
    69ea:	6172      	str	r2, [r6, #20]
    69ec:	6132      	str	r2, [r6, #16]
    69ee:	2900      	cmp	r1, #0
    69f0:	db00      	blt.n	69f4 <_malloc_r+0xb4>
    69f2:	e087      	b.n	6b04 <_malloc_r+0x1c4>
    69f4:	4ab9      	ldr	r2, [pc, #740]	; (6cdc <_malloc_r+0x39c>)
    69f6:	464b      	mov	r3, r9
    69f8:	4591      	cmp	r9, r2
    69fa:	d900      	bls.n	69fe <_malloc_r+0xbe>
    69fc:	e130      	b.n	6c60 <_malloc_r+0x320>
    69fe:	08db      	lsrs	r3, r3, #3
    6a00:	3aff      	subs	r2, #255	; 0xff
    6a02:	1099      	asrs	r1, r3, #2
    6a04:	3aff      	subs	r2, #255	; 0xff
    6a06:	408a      	lsls	r2, r1
    6a08:	00db      	lsls	r3, r3, #3
    6a0a:	6871      	ldr	r1, [r6, #4]
    6a0c:	199b      	adds	r3, r3, r6
    6a0e:	430a      	orrs	r2, r1
    6a10:	6899      	ldr	r1, [r3, #8]
    6a12:	6072      	str	r2, [r6, #4]
    6a14:	60e3      	str	r3, [r4, #12]
    6a16:	60a1      	str	r1, [r4, #8]
    6a18:	609c      	str	r4, [r3, #8]
    6a1a:	0013      	movs	r3, r2
    6a1c:	60cc      	str	r4, [r1, #12]
    6a1e:	2101      	movs	r1, #1
    6a20:	1082      	asrs	r2, r0, #2
    6a22:	4091      	lsls	r1, r2
    6a24:	4299      	cmp	r1, r3
    6a26:	d86f      	bhi.n	6b08 <_malloc_r+0x1c8>
    6a28:	420b      	tst	r3, r1
    6a2a:	d105      	bne.n	6a38 <_malloc_r+0xf8>
    6a2c:	2203      	movs	r2, #3
    6a2e:	4390      	bics	r0, r2
    6a30:	0049      	lsls	r1, r1, #1
    6a32:	3004      	adds	r0, #4
    6a34:	420b      	tst	r3, r1
    6a36:	d0fb      	beq.n	6a30 <_malloc_r+0xf0>
    6a38:	2303      	movs	r3, #3
    6a3a:	4698      	mov	r8, r3
    6a3c:	00c3      	lsls	r3, r0, #3
    6a3e:	4699      	mov	r9, r3
    6a40:	44b1      	add	r9, r6
    6a42:	46cc      	mov	ip, r9
    6a44:	4682      	mov	sl, r0
    6a46:	4663      	mov	r3, ip
    6a48:	68dc      	ldr	r4, [r3, #12]
    6a4a:	45a4      	cmp	ip, r4
    6a4c:	d107      	bne.n	6a5e <_malloc_r+0x11e>
    6a4e:	e157      	b.n	6d00 <_malloc_r+0x3c0>
    6a50:	2a00      	cmp	r2, #0
    6a52:	db00      	blt.n	6a56 <_malloc_r+0x116>
    6a54:	e166      	b.n	6d24 <_malloc_r+0x3e4>
    6a56:	68e4      	ldr	r4, [r4, #12]
    6a58:	45a4      	cmp	ip, r4
    6a5a:	d100      	bne.n	6a5e <_malloc_r+0x11e>
    6a5c:	e150      	b.n	6d00 <_malloc_r+0x3c0>
    6a5e:	4642      	mov	r2, r8
    6a60:	6863      	ldr	r3, [r4, #4]
    6a62:	4393      	bics	r3, r2
    6a64:	1b5a      	subs	r2, r3, r5
    6a66:	2a0f      	cmp	r2, #15
    6a68:	ddf2      	ble.n	6a50 <_malloc_r+0x110>
    6a6a:	2001      	movs	r0, #1
    6a6c:	4680      	mov	r8, r0
    6a6e:	1961      	adds	r1, r4, r5
    6a70:	4305      	orrs	r5, r0
    6a72:	6065      	str	r5, [r4, #4]
    6a74:	68a0      	ldr	r0, [r4, #8]
    6a76:	68e5      	ldr	r5, [r4, #12]
    6a78:	3608      	adds	r6, #8
    6a7a:	60c5      	str	r5, [r0, #12]
    6a7c:	60a8      	str	r0, [r5, #8]
    6a7e:	4640      	mov	r0, r8
    6a80:	60f1      	str	r1, [r6, #12]
    6a82:	60b1      	str	r1, [r6, #8]
    6a84:	4310      	orrs	r0, r2
    6a86:	6048      	str	r0, [r1, #4]
    6a88:	60ce      	str	r6, [r1, #12]
    6a8a:	608e      	str	r6, [r1, #8]
    6a8c:	0038      	movs	r0, r7
    6a8e:	50e2      	str	r2, [r4, r3]
    6a90:	f000 fae4 	bl	705c <__malloc_unlock>
    6a94:	0020      	movs	r0, r4
    6a96:	3008      	adds	r0, #8
    6a98:	e021      	b.n	6ade <_malloc_r+0x19e>
    6a9a:	2910      	cmp	r1, #16
    6a9c:	d826      	bhi.n	6aec <_malloc_r+0x1ac>
    6a9e:	0038      	movs	r0, r7
    6aa0:	f000 fad4 	bl	704c <__malloc_lock>
    6aa4:	2510      	movs	r5, #16
    6aa6:	2318      	movs	r3, #24
    6aa8:	2002      	movs	r0, #2
    6aaa:	4e8b      	ldr	r6, [pc, #556]	; (6cd8 <_malloc_r+0x398>)
    6aac:	18f3      	adds	r3, r6, r3
    6aae:	001a      	movs	r2, r3
    6ab0:	685c      	ldr	r4, [r3, #4]
    6ab2:	3a08      	subs	r2, #8
    6ab4:	4294      	cmp	r4, r2
    6ab6:	d100      	bne.n	6aba <_malloc_r+0x17a>
    6ab8:	e12e      	b.n	6d18 <_malloc_r+0x3d8>
    6aba:	2303      	movs	r3, #3
    6abc:	6862      	ldr	r2, [r4, #4]
    6abe:	439a      	bics	r2, r3
    6ac0:	0013      	movs	r3, r2
    6ac2:	68e2      	ldr	r2, [r4, #12]
    6ac4:	68a1      	ldr	r1, [r4, #8]
    6ac6:	60ca      	str	r2, [r1, #12]
    6ac8:	6091      	str	r1, [r2, #8]
    6aca:	2201      	movs	r2, #1
    6acc:	18e3      	adds	r3, r4, r3
    6ace:	6859      	ldr	r1, [r3, #4]
    6ad0:	0038      	movs	r0, r7
    6ad2:	430a      	orrs	r2, r1
    6ad4:	605a      	str	r2, [r3, #4]
    6ad6:	f000 fac1 	bl	705c <__malloc_unlock>
    6ada:	0020      	movs	r0, r4
    6adc:	3008      	adds	r0, #8
    6ade:	b003      	add	sp, #12
    6ae0:	bc3c      	pop	{r2, r3, r4, r5}
    6ae2:	4690      	mov	r8, r2
    6ae4:	4699      	mov	r9, r3
    6ae6:	46a2      	mov	sl, r4
    6ae8:	46ab      	mov	fp, r5
    6aea:	bdf0      	pop	{r4, r5, r6, r7, pc}
    6aec:	230c      	movs	r3, #12
    6aee:	2000      	movs	r0, #0
    6af0:	603b      	str	r3, [r7, #0]
    6af2:	e7f4      	b.n	6ade <_malloc_r+0x19e>
    6af4:	2180      	movs	r1, #128	; 0x80
    6af6:	233f      	movs	r3, #63	; 0x3f
    6af8:	2040      	movs	r0, #64	; 0x40
    6afa:	0089      	lsls	r1, r1, #2
    6afc:	4698      	mov	r8, r3
    6afe:	e746      	b.n	698e <_malloc_r+0x4e>
    6b00:	4640      	mov	r0, r8
    6b02:	e764      	b.n	69ce <_malloc_r+0x8e>
    6b04:	464b      	mov	r3, r9
    6b06:	e7e0      	b.n	6aca <_malloc_r+0x18a>
    6b08:	2303      	movs	r3, #3
    6b0a:	68b4      	ldr	r4, [r6, #8]
    6b0c:	6862      	ldr	r2, [r4, #4]
    6b0e:	439a      	bics	r2, r3
    6b10:	4690      	mov	r8, r2
    6b12:	42aa      	cmp	r2, r5
    6b14:	d303      	bcc.n	6b1e <_malloc_r+0x1de>
    6b16:	1b53      	subs	r3, r2, r5
    6b18:	2b0f      	cmp	r3, #15
    6b1a:	dd00      	ble.n	6b1e <_malloc_r+0x1de>
    6b1c:	e086      	b.n	6c2c <_malloc_r+0x2ec>
    6b1e:	0023      	movs	r3, r4
    6b20:	4443      	add	r3, r8
    6b22:	4a6f      	ldr	r2, [pc, #444]	; (6ce0 <_malloc_r+0x3a0>)
    6b24:	9301      	str	r3, [sp, #4]
    6b26:	4b6f      	ldr	r3, [pc, #444]	; (6ce4 <_malloc_r+0x3a4>)
    6b28:	4693      	mov	fp, r2
    6b2a:	681b      	ldr	r3, [r3, #0]
    6b2c:	6812      	ldr	r2, [r2, #0]
    6b2e:	18eb      	adds	r3, r5, r3
    6b30:	3201      	adds	r2, #1
    6b32:	d100      	bne.n	6b36 <_malloc_r+0x1f6>
    6b34:	e168      	b.n	6e08 <_malloc_r+0x4c8>
    6b36:	4a6c      	ldr	r2, [pc, #432]	; (6ce8 <_malloc_r+0x3a8>)
    6b38:	4694      	mov	ip, r2
    6b3a:	4463      	add	r3, ip
    6b3c:	0b1b      	lsrs	r3, r3, #12
    6b3e:	031b      	lsls	r3, r3, #12
    6b40:	9300      	str	r3, [sp, #0]
    6b42:	9900      	ldr	r1, [sp, #0]
    6b44:	0038      	movs	r0, r7
    6b46:	f000 ff97 	bl	7a78 <_sbrk_r>
    6b4a:	0003      	movs	r3, r0
    6b4c:	4681      	mov	r9, r0
    6b4e:	3301      	adds	r3, #1
    6b50:	d061      	beq.n	6c16 <_malloc_r+0x2d6>
    6b52:	9b01      	ldr	r3, [sp, #4]
    6b54:	4283      	cmp	r3, r0
    6b56:	d900      	bls.n	6b5a <_malloc_r+0x21a>
    6b58:	e0ff      	b.n	6d5a <_malloc_r+0x41a>
    6b5a:	4b64      	ldr	r3, [pc, #400]	; (6cec <_malloc_r+0x3ac>)
    6b5c:	9a00      	ldr	r2, [sp, #0]
    6b5e:	469a      	mov	sl, r3
    6b60:	681b      	ldr	r3, [r3, #0]
    6b62:	469c      	mov	ip, r3
    6b64:	4653      	mov	r3, sl
    6b66:	4462      	add	r2, ip
    6b68:	601a      	str	r2, [r3, #0]
    6b6a:	9b01      	ldr	r3, [sp, #4]
    6b6c:	0011      	movs	r1, r2
    6b6e:	4283      	cmp	r3, r0
    6b70:	d100      	bne.n	6b74 <_malloc_r+0x234>
    6b72:	e155      	b.n	6e20 <_malloc_r+0x4e0>
    6b74:	465b      	mov	r3, fp
    6b76:	681b      	ldr	r3, [r3, #0]
    6b78:	3301      	adds	r3, #1
    6b7a:	d100      	bne.n	6b7e <_malloc_r+0x23e>
    6b7c:	e16c      	b.n	6e58 <_malloc_r+0x518>
    6b7e:	464b      	mov	r3, r9
    6b80:	9a01      	ldr	r2, [sp, #4]
    6b82:	1a9b      	subs	r3, r3, r2
    6b84:	1859      	adds	r1, r3, r1
    6b86:	4653      	mov	r3, sl
    6b88:	6019      	str	r1, [r3, #0]
    6b8a:	2307      	movs	r3, #7
    6b8c:	464a      	mov	r2, r9
    6b8e:	4013      	ands	r3, r2
    6b90:	d100      	bne.n	6b94 <_malloc_r+0x254>
    6b92:	e124      	b.n	6dde <_malloc_r+0x49e>
    6b94:	2108      	movs	r1, #8
    6b96:	4689      	mov	r9, r1
    6b98:	4955      	ldr	r1, [pc, #340]	; (6cf0 <_malloc_r+0x3b0>)
    6b9a:	1ad2      	subs	r2, r2, r3
    6b9c:	4491      	add	r9, r2
    6b9e:	1acb      	subs	r3, r1, r3
    6ba0:	9a00      	ldr	r2, [sp, #0]
    6ba2:	0038      	movs	r0, r7
    6ba4:	444a      	add	r2, r9
    6ba6:	0511      	lsls	r1, r2, #20
    6ba8:	0d09      	lsrs	r1, r1, #20
    6baa:	1a5b      	subs	r3, r3, r1
    6bac:	0019      	movs	r1, r3
    6bae:	469b      	mov	fp, r3
    6bb0:	f000 ff62 	bl	7a78 <_sbrk_r>
    6bb4:	1c43      	adds	r3, r0, #1
    6bb6:	d100      	bne.n	6bba <_malloc_r+0x27a>
    6bb8:	e142      	b.n	6e40 <_malloc_r+0x500>
    6bba:	464b      	mov	r3, r9
    6bbc:	1ac0      	subs	r0, r0, r3
    6bbe:	2301      	movs	r3, #1
    6bc0:	4458      	add	r0, fp
    6bc2:	4318      	orrs	r0, r3
    6bc4:	4653      	mov	r3, sl
    6bc6:	681b      	ldr	r3, [r3, #0]
    6bc8:	445b      	add	r3, fp
    6bca:	0019      	movs	r1, r3
    6bcc:	4653      	mov	r3, sl
    6bce:	6019      	str	r1, [r3, #0]
    6bd0:	464b      	mov	r3, r9
    6bd2:	60b3      	str	r3, [r6, #8]
    6bd4:	6058      	str	r0, [r3, #4]
    6bd6:	42b4      	cmp	r4, r6
    6bd8:	d013      	beq.n	6c02 <_malloc_r+0x2c2>
    6bda:	4643      	mov	r3, r8
    6bdc:	2b0f      	cmp	r3, #15
    6bde:	d800      	bhi.n	6be2 <_malloc_r+0x2a2>
    6be0:	e0e8      	b.n	6db4 <_malloc_r+0x474>
    6be2:	4643      	mov	r3, r8
    6be4:	2207      	movs	r2, #7
    6be6:	6860      	ldr	r0, [r4, #4]
    6be8:	3b0c      	subs	r3, #12
    6bea:	4393      	bics	r3, r2
    6bec:	3a06      	subs	r2, #6
    6bee:	4002      	ands	r2, r0
    6bf0:	2005      	movs	r0, #5
    6bf2:	431a      	orrs	r2, r3
    6bf4:	6062      	str	r2, [r4, #4]
    6bf6:	18e2      	adds	r2, r4, r3
    6bf8:	6050      	str	r0, [r2, #4]
    6bfa:	6090      	str	r0, [r2, #8]
    6bfc:	2b0f      	cmp	r3, #15
    6bfe:	d900      	bls.n	6c02 <_malloc_r+0x2c2>
    6c00:	e122      	b.n	6e48 <_malloc_r+0x508>
    6c02:	4b3c      	ldr	r3, [pc, #240]	; (6cf4 <_malloc_r+0x3b4>)
    6c04:	681a      	ldr	r2, [r3, #0]
    6c06:	4291      	cmp	r1, r2
    6c08:	d900      	bls.n	6c0c <_malloc_r+0x2cc>
    6c0a:	6019      	str	r1, [r3, #0]
    6c0c:	4b3a      	ldr	r3, [pc, #232]	; (6cf8 <_malloc_r+0x3b8>)
    6c0e:	681a      	ldr	r2, [r3, #0]
    6c10:	4291      	cmp	r1, r2
    6c12:	d900      	bls.n	6c16 <_malloc_r+0x2d6>
    6c14:	6019      	str	r1, [r3, #0]
    6c16:	2303      	movs	r3, #3
    6c18:	68b4      	ldr	r4, [r6, #8]
    6c1a:	6862      	ldr	r2, [r4, #4]
    6c1c:	439a      	bics	r2, r3
    6c1e:	1b53      	subs	r3, r2, r5
    6c20:	4295      	cmp	r5, r2
    6c22:	d900      	bls.n	6c26 <_malloc_r+0x2e6>
    6c24:	e0c9      	b.n	6dba <_malloc_r+0x47a>
    6c26:	2b0f      	cmp	r3, #15
    6c28:	dc00      	bgt.n	6c2c <_malloc_r+0x2ec>
    6c2a:	e0c6      	b.n	6dba <_malloc_r+0x47a>
    6c2c:	2201      	movs	r2, #1
    6c2e:	0029      	movs	r1, r5
    6c30:	4313      	orrs	r3, r2
    6c32:	4311      	orrs	r1, r2
    6c34:	1965      	adds	r5, r4, r5
    6c36:	6061      	str	r1, [r4, #4]
    6c38:	0038      	movs	r0, r7
    6c3a:	60b5      	str	r5, [r6, #8]
    6c3c:	606b      	str	r3, [r5, #4]
    6c3e:	f000 fa0d 	bl	705c <__malloc_unlock>
    6c42:	0020      	movs	r0, r4
    6c44:	3008      	adds	r0, #8
    6c46:	e74a      	b.n	6ade <_malloc_r+0x19e>
    6c48:	2814      	cmp	r0, #20
    6c4a:	d97a      	bls.n	6d42 <_malloc_r+0x402>
    6c4c:	2854      	cmp	r0, #84	; 0x54
    6c4e:	d900      	bls.n	6c52 <_malloc_r+0x312>
    6c50:	e0ba      	b.n	6dc8 <_malloc_r+0x488>
    6c52:	236e      	movs	r3, #110	; 0x6e
    6c54:	4698      	mov	r8, r3
    6c56:	0b28      	lsrs	r0, r5, #12
    6c58:	4480      	add	r8, r0
    6c5a:	306f      	adds	r0, #111	; 0x6f
    6c5c:	00c1      	lsls	r1, r0, #3
    6c5e:	e696      	b.n	698e <_malloc_r+0x4e>
    6c60:	0a5a      	lsrs	r2, r3, #9
    6c62:	2a04      	cmp	r2, #4
    6c64:	d973      	bls.n	6d4e <_malloc_r+0x40e>
    6c66:	2a14      	cmp	r2, #20
    6c68:	d900      	bls.n	6c6c <_malloc_r+0x32c>
    6c6a:	e0d0      	b.n	6e0e <_malloc_r+0x4ce>
    6c6c:	0011      	movs	r1, r2
    6c6e:	325c      	adds	r2, #92	; 0x5c
    6c70:	315b      	adds	r1, #91	; 0x5b
    6c72:	00d2      	lsls	r2, r2, #3
    6c74:	2308      	movs	r3, #8
    6c76:	425b      	negs	r3, r3
    6c78:	469c      	mov	ip, r3
    6c7a:	18b2      	adds	r2, r6, r2
    6c7c:	4494      	add	ip, r2
    6c7e:	4663      	mov	r3, ip
    6c80:	689a      	ldr	r2, [r3, #8]
    6c82:	2303      	movs	r3, #3
    6c84:	4698      	mov	r8, r3
    6c86:	4594      	cmp	ip, r2
    6c88:	d100      	bne.n	6c8c <_malloc_r+0x34c>
    6c8a:	e0ab      	b.n	6de4 <_malloc_r+0x4a4>
    6c8c:	4643      	mov	r3, r8
    6c8e:	6851      	ldr	r1, [r2, #4]
    6c90:	4399      	bics	r1, r3
    6c92:	4589      	cmp	r9, r1
    6c94:	d300      	bcc.n	6c98 <_malloc_r+0x358>
    6c96:	e095      	b.n	6dc4 <_malloc_r+0x484>
    6c98:	6892      	ldr	r2, [r2, #8]
    6c9a:	4594      	cmp	ip, r2
    6c9c:	d1f6      	bne.n	6c8c <_malloc_r+0x34c>
    6c9e:	4663      	mov	r3, ip
    6ca0:	68da      	ldr	r2, [r3, #12]
    6ca2:	6873      	ldr	r3, [r6, #4]
    6ca4:	4661      	mov	r1, ip
    6ca6:	60e2      	str	r2, [r4, #12]
    6ca8:	60a1      	str	r1, [r4, #8]
    6caa:	6094      	str	r4, [r2, #8]
    6cac:	60cc      	str	r4, [r1, #12]
    6cae:	e6b6      	b.n	6a1e <_malloc_r+0xde>
    6cb0:	2301      	movs	r3, #1
    6cb2:	1960      	adds	r0, r4, r5
    6cb4:	431d      	orrs	r5, r3
    6cb6:	6065      	str	r5, [r4, #4]
    6cb8:	6170      	str	r0, [r6, #20]
    6cba:	6130      	str	r0, [r6, #16]
    6cbc:	60c2      	str	r2, [r0, #12]
    6cbe:	6082      	str	r2, [r0, #8]
    6cc0:	001a      	movs	r2, r3
    6cc2:	464b      	mov	r3, r9
    6cc4:	430a      	orrs	r2, r1
    6cc6:	6042      	str	r2, [r0, #4]
    6cc8:	0038      	movs	r0, r7
    6cca:	50e1      	str	r1, [r4, r3]
    6ccc:	f000 f9c6 	bl	705c <__malloc_unlock>
    6cd0:	0020      	movs	r0, r4
    6cd2:	3008      	adds	r0, #8
    6cd4:	e703      	b.n	6ade <_malloc_r+0x19e>
    6cd6:	46c0      	nop			; (mov r8, r8)
    6cd8:	20000434 	.word	0x20000434
    6cdc:	000001ff 	.word	0x000001ff
    6ce0:	2000083c 	.word	0x2000083c
    6ce4:	20000a10 	.word	0x20000a10
    6ce8:	0000100f 	.word	0x0000100f
    6cec:	200009e0 	.word	0x200009e0
    6cf0:	00001008 	.word	0x00001008
    6cf4:	20000a08 	.word	0x20000a08
    6cf8:	20000a0c 	.word	0x20000a0c
    6cfc:	6873      	ldr	r3, [r6, #4]
    6cfe:	e68e      	b.n	6a1e <_malloc_r+0xde>
    6d00:	2308      	movs	r3, #8
    6d02:	469b      	mov	fp, r3
    6d04:	3b07      	subs	r3, #7
    6d06:	44dc      	add	ip, fp
    6d08:	469b      	mov	fp, r3
    6d0a:	44da      	add	sl, fp
    6d0c:	4643      	mov	r3, r8
    6d0e:	4652      	mov	r2, sl
    6d10:	4213      	tst	r3, r2
    6d12:	d000      	beq.n	6d16 <_malloc_r+0x3d6>
    6d14:	e697      	b.n	6a46 <_malloc_r+0x106>
    6d16:	e037      	b.n	6d88 <_malloc_r+0x448>
    6d18:	68dc      	ldr	r4, [r3, #12]
    6d1a:	3002      	adds	r0, #2
    6d1c:	42a3      	cmp	r3, r4
    6d1e:	d100      	bne.n	6d22 <_malloc_r+0x3e2>
    6d20:	e655      	b.n	69ce <_malloc_r+0x8e>
    6d22:	e6ca      	b.n	6aba <_malloc_r+0x17a>
    6d24:	2201      	movs	r2, #1
    6d26:	18e3      	adds	r3, r4, r3
    6d28:	6859      	ldr	r1, [r3, #4]
    6d2a:	0038      	movs	r0, r7
    6d2c:	430a      	orrs	r2, r1
    6d2e:	605a      	str	r2, [r3, #4]
    6d30:	68e3      	ldr	r3, [r4, #12]
    6d32:	68a2      	ldr	r2, [r4, #8]
    6d34:	60d3      	str	r3, [r2, #12]
    6d36:	609a      	str	r2, [r3, #8]
    6d38:	f000 f990 	bl	705c <__malloc_unlock>
    6d3c:	0020      	movs	r0, r4
    6d3e:	3008      	adds	r0, #8
    6d40:	e6cd      	b.n	6ade <_malloc_r+0x19e>
    6d42:	235b      	movs	r3, #91	; 0x5b
    6d44:	4698      	mov	r8, r3
    6d46:	4480      	add	r8, r0
    6d48:	305c      	adds	r0, #92	; 0x5c
    6d4a:	00c1      	lsls	r1, r0, #3
    6d4c:	e61f      	b.n	698e <_malloc_r+0x4e>
    6d4e:	099a      	lsrs	r2, r3, #6
    6d50:	0011      	movs	r1, r2
    6d52:	3239      	adds	r2, #57	; 0x39
    6d54:	3138      	adds	r1, #56	; 0x38
    6d56:	00d2      	lsls	r2, r2, #3
    6d58:	e78c      	b.n	6c74 <_malloc_r+0x334>
    6d5a:	42b4      	cmp	r4, r6
    6d5c:	d000      	beq.n	6d60 <_malloc_r+0x420>
    6d5e:	e75a      	b.n	6c16 <_malloc_r+0x2d6>
    6d60:	4b4f      	ldr	r3, [pc, #316]	; (6ea0 <_malloc_r+0x560>)
    6d62:	9a00      	ldr	r2, [sp, #0]
    6d64:	469a      	mov	sl, r3
    6d66:	681b      	ldr	r3, [r3, #0]
    6d68:	469c      	mov	ip, r3
    6d6a:	4653      	mov	r3, sl
    6d6c:	4462      	add	r2, ip
    6d6e:	0011      	movs	r1, r2
    6d70:	601a      	str	r2, [r3, #0]
    6d72:	e6ff      	b.n	6b74 <_malloc_r+0x234>
    6d74:	2308      	movs	r3, #8
    6d76:	425b      	negs	r3, r3
    6d78:	469c      	mov	ip, r3
    6d7a:	44e1      	add	r9, ip
    6d7c:	464b      	mov	r3, r9
    6d7e:	689b      	ldr	r3, [r3, #8]
    6d80:	3801      	subs	r0, #1
    6d82:	4599      	cmp	r9, r3
    6d84:	d000      	beq.n	6d88 <_malloc_r+0x448>
    6d86:	e084      	b.n	6e92 <_malloc_r+0x552>
    6d88:	4643      	mov	r3, r8
    6d8a:	4203      	tst	r3, r0
    6d8c:	d1f2      	bne.n	6d74 <_malloc_r+0x434>
    6d8e:	6873      	ldr	r3, [r6, #4]
    6d90:	438b      	bics	r3, r1
    6d92:	6073      	str	r3, [r6, #4]
    6d94:	0049      	lsls	r1, r1, #1
    6d96:	4299      	cmp	r1, r3
    6d98:	d900      	bls.n	6d9c <_malloc_r+0x45c>
    6d9a:	e6b5      	b.n	6b08 <_malloc_r+0x1c8>
    6d9c:	2900      	cmp	r1, #0
    6d9e:	d100      	bne.n	6da2 <_malloc_r+0x462>
    6da0:	e6b2      	b.n	6b08 <_malloc_r+0x1c8>
    6da2:	4650      	mov	r0, sl
    6da4:	420b      	tst	r3, r1
    6da6:	d000      	beq.n	6daa <_malloc_r+0x46a>
    6da8:	e648      	b.n	6a3c <_malloc_r+0xfc>
    6daa:	0049      	lsls	r1, r1, #1
    6dac:	3004      	adds	r0, #4
    6dae:	420b      	tst	r3, r1
    6db0:	d0fb      	beq.n	6daa <_malloc_r+0x46a>
    6db2:	e643      	b.n	6a3c <_malloc_r+0xfc>
    6db4:	2301      	movs	r3, #1
    6db6:	464a      	mov	r2, r9
    6db8:	6053      	str	r3, [r2, #4]
    6dba:	0038      	movs	r0, r7
    6dbc:	f000 f94e 	bl	705c <__malloc_unlock>
    6dc0:	2000      	movs	r0, #0
    6dc2:	e68c      	b.n	6ade <_malloc_r+0x19e>
    6dc4:	4694      	mov	ip, r2
    6dc6:	e76a      	b.n	6c9e <_malloc_r+0x35e>
    6dc8:	23aa      	movs	r3, #170	; 0xaa
    6dca:	005b      	lsls	r3, r3, #1
    6dcc:	4298      	cmp	r0, r3
    6dce:	d811      	bhi.n	6df4 <_malloc_r+0x4b4>
    6dd0:	3bdd      	subs	r3, #221	; 0xdd
    6dd2:	4698      	mov	r8, r3
    6dd4:	0be8      	lsrs	r0, r5, #15
    6dd6:	4480      	add	r8, r0
    6dd8:	3078      	adds	r0, #120	; 0x78
    6dda:	00c1      	lsls	r1, r0, #3
    6ddc:	e5d7      	b.n	698e <_malloc_r+0x4e>
    6dde:	2380      	movs	r3, #128	; 0x80
    6de0:	015b      	lsls	r3, r3, #5
    6de2:	e6dd      	b.n	6ba0 <_malloc_r+0x260>
    6de4:	1089      	asrs	r1, r1, #2
    6de6:	3b02      	subs	r3, #2
    6de8:	408b      	lsls	r3, r1
    6dea:	6872      	ldr	r2, [r6, #4]
    6dec:	4313      	orrs	r3, r2
    6dee:	6073      	str	r3, [r6, #4]
    6df0:	4662      	mov	r2, ip
    6df2:	e757      	b.n	6ca4 <_malloc_r+0x364>
    6df4:	4b2b      	ldr	r3, [pc, #172]	; (6ea4 <_malloc_r+0x564>)
    6df6:	4298      	cmp	r0, r3
    6df8:	d81c      	bhi.n	6e34 <_malloc_r+0x4f4>
    6dfa:	237c      	movs	r3, #124	; 0x7c
    6dfc:	4698      	mov	r8, r3
    6dfe:	0ca8      	lsrs	r0, r5, #18
    6e00:	4480      	add	r8, r0
    6e02:	307d      	adds	r0, #125	; 0x7d
    6e04:	00c1      	lsls	r1, r0, #3
    6e06:	e5c2      	b.n	698e <_malloc_r+0x4e>
    6e08:	3310      	adds	r3, #16
    6e0a:	9300      	str	r3, [sp, #0]
    6e0c:	e699      	b.n	6b42 <_malloc_r+0x202>
    6e0e:	2a54      	cmp	r2, #84	; 0x54
    6e10:	d826      	bhi.n	6e60 <_malloc_r+0x520>
    6e12:	464b      	mov	r3, r9
    6e14:	0b1a      	lsrs	r2, r3, #12
    6e16:	0011      	movs	r1, r2
    6e18:	326f      	adds	r2, #111	; 0x6f
    6e1a:	316e      	adds	r1, #110	; 0x6e
    6e1c:	00d2      	lsls	r2, r2, #3
    6e1e:	e729      	b.n	6c74 <_malloc_r+0x334>
    6e20:	051b      	lsls	r3, r3, #20
    6e22:	d000      	beq.n	6e26 <_malloc_r+0x4e6>
    6e24:	e6a6      	b.n	6b74 <_malloc_r+0x234>
    6e26:	2001      	movs	r0, #1
    6e28:	9b00      	ldr	r3, [sp, #0]
    6e2a:	68b2      	ldr	r2, [r6, #8]
    6e2c:	4443      	add	r3, r8
    6e2e:	4303      	orrs	r3, r0
    6e30:	6053      	str	r3, [r2, #4]
    6e32:	e6e6      	b.n	6c02 <_malloc_r+0x2c2>
    6e34:	21fe      	movs	r1, #254	; 0xfe
    6e36:	237e      	movs	r3, #126	; 0x7e
    6e38:	207f      	movs	r0, #127	; 0x7f
    6e3a:	0089      	lsls	r1, r1, #2
    6e3c:	4698      	mov	r8, r3
    6e3e:	e5a6      	b.n	698e <_malloc_r+0x4e>
    6e40:	2300      	movs	r3, #0
    6e42:	2001      	movs	r0, #1
    6e44:	469b      	mov	fp, r3
    6e46:	e6bd      	b.n	6bc4 <_malloc_r+0x284>
    6e48:	0021      	movs	r1, r4
    6e4a:	0038      	movs	r0, r7
    6e4c:	3108      	adds	r1, #8
    6e4e:	f7ff fa59 	bl	6304 <_free_r>
    6e52:	4653      	mov	r3, sl
    6e54:	6819      	ldr	r1, [r3, #0]
    6e56:	e6d4      	b.n	6c02 <_malloc_r+0x2c2>
    6e58:	465b      	mov	r3, fp
    6e5a:	464a      	mov	r2, r9
    6e5c:	601a      	str	r2, [r3, #0]
    6e5e:	e694      	b.n	6b8a <_malloc_r+0x24a>
    6e60:	21aa      	movs	r1, #170	; 0xaa
    6e62:	0049      	lsls	r1, r1, #1
    6e64:	428a      	cmp	r2, r1
    6e66:	d806      	bhi.n	6e76 <_malloc_r+0x536>
    6e68:	464b      	mov	r3, r9
    6e6a:	0bda      	lsrs	r2, r3, #15
    6e6c:	0011      	movs	r1, r2
    6e6e:	3278      	adds	r2, #120	; 0x78
    6e70:	3177      	adds	r1, #119	; 0x77
    6e72:	00d2      	lsls	r2, r2, #3
    6e74:	e6fe      	b.n	6c74 <_malloc_r+0x334>
    6e76:	490b      	ldr	r1, [pc, #44]	; (6ea4 <_malloc_r+0x564>)
    6e78:	428a      	cmp	r2, r1
    6e7a:	d806      	bhi.n	6e8a <_malloc_r+0x54a>
    6e7c:	464b      	mov	r3, r9
    6e7e:	0c9a      	lsrs	r2, r3, #18
    6e80:	0011      	movs	r1, r2
    6e82:	327d      	adds	r2, #125	; 0x7d
    6e84:	317c      	adds	r1, #124	; 0x7c
    6e86:	00d2      	lsls	r2, r2, #3
    6e88:	e6f4      	b.n	6c74 <_malloc_r+0x334>
    6e8a:	22fe      	movs	r2, #254	; 0xfe
    6e8c:	217e      	movs	r1, #126	; 0x7e
    6e8e:	0092      	lsls	r2, r2, #2
    6e90:	e6f0      	b.n	6c74 <_malloc_r+0x334>
    6e92:	6873      	ldr	r3, [r6, #4]
    6e94:	e77e      	b.n	6d94 <_malloc_r+0x454>
    6e96:	002b      	movs	r3, r5
    6e98:	08e8      	lsrs	r0, r5, #3
    6e9a:	3308      	adds	r3, #8
    6e9c:	e605      	b.n	6aaa <_malloc_r+0x16a>
    6e9e:	46c0      	nop			; (mov r8, r8)
    6ea0:	200009e0 	.word	0x200009e0
    6ea4:	00000554 	.word	0x00000554

00006ea8 <memchr>:
    6ea8:	b570      	push	{r4, r5, r6, lr}
    6eaa:	b2cd      	uxtb	r5, r1
    6eac:	0783      	lsls	r3, r0, #30
    6eae:	d034      	beq.n	6f1a <memchr+0x72>
    6eb0:	1e54      	subs	r4, r2, #1
    6eb2:	2a00      	cmp	r2, #0
    6eb4:	d01b      	beq.n	6eee <memchr+0x46>
    6eb6:	7803      	ldrb	r3, [r0, #0]
    6eb8:	42ab      	cmp	r3, r5
    6eba:	d019      	beq.n	6ef0 <memchr+0x48>
    6ebc:	2203      	movs	r2, #3
    6ebe:	e004      	b.n	6eca <memchr+0x22>
    6ec0:	3c01      	subs	r4, #1
    6ec2:	d314      	bcc.n	6eee <memchr+0x46>
    6ec4:	7803      	ldrb	r3, [r0, #0]
    6ec6:	42ab      	cmp	r3, r5
    6ec8:	d012      	beq.n	6ef0 <memchr+0x48>
    6eca:	3001      	adds	r0, #1
    6ecc:	4210      	tst	r0, r2
    6ece:	d1f7      	bne.n	6ec0 <memchr+0x18>
    6ed0:	2c03      	cmp	r4, #3
    6ed2:	d80e      	bhi.n	6ef2 <memchr+0x4a>
    6ed4:	2c00      	cmp	r4, #0
    6ed6:	d00a      	beq.n	6eee <memchr+0x46>
    6ed8:	7803      	ldrb	r3, [r0, #0]
    6eda:	42ab      	cmp	r3, r5
    6edc:	d008      	beq.n	6ef0 <memchr+0x48>
    6ede:	1904      	adds	r4, r0, r4
    6ee0:	e002      	b.n	6ee8 <memchr+0x40>
    6ee2:	7803      	ldrb	r3, [r0, #0]
    6ee4:	42ab      	cmp	r3, r5
    6ee6:	d003      	beq.n	6ef0 <memchr+0x48>
    6ee8:	3001      	adds	r0, #1
    6eea:	4284      	cmp	r4, r0
    6eec:	d1f9      	bne.n	6ee2 <memchr+0x3a>
    6eee:	2000      	movs	r0, #0
    6ef0:	bd70      	pop	{r4, r5, r6, pc}
    6ef2:	22ff      	movs	r2, #255	; 0xff
    6ef4:	060b      	lsls	r3, r1, #24
    6ef6:	0c1b      	lsrs	r3, r3, #16
    6ef8:	4011      	ands	r1, r2
    6efa:	4319      	orrs	r1, r3
    6efc:	040b      	lsls	r3, r1, #16
    6efe:	4e08      	ldr	r6, [pc, #32]	; (6f20 <memchr+0x78>)
    6f00:	4319      	orrs	r1, r3
    6f02:	6803      	ldr	r3, [r0, #0]
    6f04:	4a07      	ldr	r2, [pc, #28]	; (6f24 <memchr+0x7c>)
    6f06:	404b      	eors	r3, r1
    6f08:	189a      	adds	r2, r3, r2
    6f0a:	439a      	bics	r2, r3
    6f0c:	4232      	tst	r2, r6
    6f0e:	d1e3      	bne.n	6ed8 <memchr+0x30>
    6f10:	3c04      	subs	r4, #4
    6f12:	3004      	adds	r0, #4
    6f14:	2c03      	cmp	r4, #3
    6f16:	d8f4      	bhi.n	6f02 <memchr+0x5a>
    6f18:	e7dc      	b.n	6ed4 <memchr+0x2c>
    6f1a:	0014      	movs	r4, r2
    6f1c:	e7d8      	b.n	6ed0 <memchr+0x28>
    6f1e:	46c0      	nop			; (mov r8, r8)
    6f20:	80808080 	.word	0x80808080
    6f24:	fefefeff 	.word	0xfefefeff

00006f28 <memcpy>:
    6f28:	b5f0      	push	{r4, r5, r6, r7, lr}
    6f2a:	0005      	movs	r5, r0
    6f2c:	2a0f      	cmp	r2, #15
    6f2e:	d92f      	bls.n	6f90 <memcpy+0x68>
    6f30:	000b      	movs	r3, r1
    6f32:	4303      	orrs	r3, r0
    6f34:	079b      	lsls	r3, r3, #30
    6f36:	d134      	bne.n	6fa2 <memcpy+0x7a>
    6f38:	0016      	movs	r6, r2
    6f3a:	000c      	movs	r4, r1
    6f3c:	0003      	movs	r3, r0
    6f3e:	3e10      	subs	r6, #16
    6f40:	0935      	lsrs	r5, r6, #4
    6f42:	3501      	adds	r5, #1
    6f44:	012d      	lsls	r5, r5, #4
    6f46:	1945      	adds	r5, r0, r5
    6f48:	6827      	ldr	r7, [r4, #0]
    6f4a:	601f      	str	r7, [r3, #0]
    6f4c:	6867      	ldr	r7, [r4, #4]
    6f4e:	605f      	str	r7, [r3, #4]
    6f50:	68a7      	ldr	r7, [r4, #8]
    6f52:	609f      	str	r7, [r3, #8]
    6f54:	68e7      	ldr	r7, [r4, #12]
    6f56:	3410      	adds	r4, #16
    6f58:	60df      	str	r7, [r3, #12]
    6f5a:	3310      	adds	r3, #16
    6f5c:	429d      	cmp	r5, r3
    6f5e:	d1f3      	bne.n	6f48 <memcpy+0x20>
    6f60:	230f      	movs	r3, #15
    6f62:	439e      	bics	r6, r3
    6f64:	3610      	adds	r6, #16
    6f66:	1985      	adds	r5, r0, r6
    6f68:	1989      	adds	r1, r1, r6
    6f6a:	4013      	ands	r3, r2
    6f6c:	2b03      	cmp	r3, #3
    6f6e:	d91a      	bls.n	6fa6 <memcpy+0x7e>
    6f70:	1f1e      	subs	r6, r3, #4
    6f72:	2300      	movs	r3, #0
    6f74:	08b4      	lsrs	r4, r6, #2
    6f76:	3401      	adds	r4, #1
    6f78:	00a4      	lsls	r4, r4, #2
    6f7a:	58cf      	ldr	r7, [r1, r3]
    6f7c:	50ef      	str	r7, [r5, r3]
    6f7e:	3304      	adds	r3, #4
    6f80:	42a3      	cmp	r3, r4
    6f82:	d1fa      	bne.n	6f7a <memcpy+0x52>
    6f84:	2403      	movs	r4, #3
    6f86:	43a6      	bics	r6, r4
    6f88:	1d33      	adds	r3, r6, #4
    6f8a:	4022      	ands	r2, r4
    6f8c:	18c9      	adds	r1, r1, r3
    6f8e:	18ed      	adds	r5, r5, r3
    6f90:	2a00      	cmp	r2, #0
    6f92:	d005      	beq.n	6fa0 <memcpy+0x78>
    6f94:	2300      	movs	r3, #0
    6f96:	5ccc      	ldrb	r4, [r1, r3]
    6f98:	54ec      	strb	r4, [r5, r3]
    6f9a:	3301      	adds	r3, #1
    6f9c:	4293      	cmp	r3, r2
    6f9e:	d1fa      	bne.n	6f96 <memcpy+0x6e>
    6fa0:	bdf0      	pop	{r4, r5, r6, r7, pc}
    6fa2:	0005      	movs	r5, r0
    6fa4:	e7f6      	b.n	6f94 <memcpy+0x6c>
    6fa6:	001a      	movs	r2, r3
    6fa8:	e7f2      	b.n	6f90 <memcpy+0x68>
    6faa:	46c0      	nop			; (mov r8, r8)

00006fac <memmove>:
    6fac:	b5f0      	push	{r4, r5, r6, r7, lr}
    6fae:	4288      	cmp	r0, r1
    6fb0:	d90a      	bls.n	6fc8 <memmove+0x1c>
    6fb2:	188b      	adds	r3, r1, r2
    6fb4:	4298      	cmp	r0, r3
    6fb6:	d207      	bcs.n	6fc8 <memmove+0x1c>
    6fb8:	1e53      	subs	r3, r2, #1
    6fba:	2a00      	cmp	r2, #0
    6fbc:	d003      	beq.n	6fc6 <memmove+0x1a>
    6fbe:	5cca      	ldrb	r2, [r1, r3]
    6fc0:	54c2      	strb	r2, [r0, r3]
    6fc2:	3b01      	subs	r3, #1
    6fc4:	d2fb      	bcs.n	6fbe <memmove+0x12>
    6fc6:	bdf0      	pop	{r4, r5, r6, r7, pc}
    6fc8:	0005      	movs	r5, r0
    6fca:	2a0f      	cmp	r2, #15
    6fcc:	d808      	bhi.n	6fe0 <memmove+0x34>
    6fce:	2a00      	cmp	r2, #0
    6fd0:	d0f9      	beq.n	6fc6 <memmove+0x1a>
    6fd2:	2300      	movs	r3, #0
    6fd4:	5ccc      	ldrb	r4, [r1, r3]
    6fd6:	54ec      	strb	r4, [r5, r3]
    6fd8:	3301      	adds	r3, #1
    6fda:	4293      	cmp	r3, r2
    6fdc:	d1fa      	bne.n	6fd4 <memmove+0x28>
    6fde:	e7f2      	b.n	6fc6 <memmove+0x1a>
    6fe0:	000b      	movs	r3, r1
    6fe2:	4303      	orrs	r3, r0
    6fe4:	079b      	lsls	r3, r3, #30
    6fe6:	d12d      	bne.n	7044 <memmove+0x98>
    6fe8:	0015      	movs	r5, r2
    6fea:	000c      	movs	r4, r1
    6fec:	0003      	movs	r3, r0
    6fee:	3d10      	subs	r5, #16
    6ff0:	092f      	lsrs	r7, r5, #4
    6ff2:	3701      	adds	r7, #1
    6ff4:	013f      	lsls	r7, r7, #4
    6ff6:	19c7      	adds	r7, r0, r7
    6ff8:	6826      	ldr	r6, [r4, #0]
    6ffa:	601e      	str	r6, [r3, #0]
    6ffc:	6866      	ldr	r6, [r4, #4]
    6ffe:	605e      	str	r6, [r3, #4]
    7000:	68a6      	ldr	r6, [r4, #8]
    7002:	609e      	str	r6, [r3, #8]
    7004:	68e6      	ldr	r6, [r4, #12]
    7006:	3410      	adds	r4, #16
    7008:	60de      	str	r6, [r3, #12]
    700a:	3310      	adds	r3, #16
    700c:	429f      	cmp	r7, r3
    700e:	d1f3      	bne.n	6ff8 <memmove+0x4c>
    7010:	240f      	movs	r4, #15
    7012:	43a5      	bics	r5, r4
    7014:	3510      	adds	r5, #16
    7016:	1949      	adds	r1, r1, r5
    7018:	4014      	ands	r4, r2
    701a:	1945      	adds	r5, r0, r5
    701c:	2c03      	cmp	r4, #3
    701e:	d913      	bls.n	7048 <memmove+0x9c>
    7020:	2300      	movs	r3, #0
    7022:	1f27      	subs	r7, r4, #4
    7024:	08be      	lsrs	r6, r7, #2
    7026:	3601      	adds	r6, #1
    7028:	00b6      	lsls	r6, r6, #2
    702a:	58cc      	ldr	r4, [r1, r3]
    702c:	50ec      	str	r4, [r5, r3]
    702e:	3304      	adds	r3, #4
    7030:	42b3      	cmp	r3, r6
    7032:	d1fa      	bne.n	702a <memmove+0x7e>
    7034:	2603      	movs	r6, #3
    7036:	43b7      	bics	r7, r6
    7038:	1d3c      	adds	r4, r7, #4
    703a:	1909      	adds	r1, r1, r4
    703c:	192d      	adds	r5, r5, r4
    703e:	4032      	ands	r2, r6
    7040:	d1c7      	bne.n	6fd2 <memmove+0x26>
    7042:	e7c0      	b.n	6fc6 <memmove+0x1a>
    7044:	0005      	movs	r5, r0
    7046:	e7c4      	b.n	6fd2 <memmove+0x26>
    7048:	0022      	movs	r2, r4
    704a:	e7c0      	b.n	6fce <memmove+0x22>

0000704c <__malloc_lock>:
    704c:	b510      	push	{r4, lr}
    704e:	4802      	ldr	r0, [pc, #8]	; (7058 <__malloc_lock+0xc>)
    7050:	f7ff fbf0 	bl	6834 <__retarget_lock_acquire_recursive>
    7054:	bd10      	pop	{r4, pc}
    7056:	46c0      	nop			; (mov r8, r8)
    7058:	20000a7c 	.word	0x20000a7c

0000705c <__malloc_unlock>:
    705c:	b510      	push	{r4, lr}
    705e:	4802      	ldr	r0, [pc, #8]	; (7068 <__malloc_unlock+0xc>)
    7060:	f7ff fbea 	bl	6838 <__retarget_lock_release_recursive>
    7064:	bd10      	pop	{r4, pc}
    7066:	46c0      	nop			; (mov r8, r8)
    7068:	20000a7c 	.word	0x20000a7c

0000706c <_Balloc>:
    706c:	b570      	push	{r4, r5, r6, lr}
    706e:	0004      	movs	r4, r0
    7070:	6cc0      	ldr	r0, [r0, #76]	; 0x4c
    7072:	000d      	movs	r5, r1
    7074:	2800      	cmp	r0, #0
    7076:	d00a      	beq.n	708e <_Balloc+0x22>
    7078:	00ab      	lsls	r3, r5, #2
    707a:	18c3      	adds	r3, r0, r3
    707c:	6818      	ldr	r0, [r3, #0]
    707e:	2800      	cmp	r0, #0
    7080:	d00f      	beq.n	70a2 <_Balloc+0x36>
    7082:	6802      	ldr	r2, [r0, #0]
    7084:	601a      	str	r2, [r3, #0]
    7086:	2300      	movs	r3, #0
    7088:	6103      	str	r3, [r0, #16]
    708a:	60c3      	str	r3, [r0, #12]
    708c:	bd70      	pop	{r4, r5, r6, pc}
    708e:	2221      	movs	r2, #33	; 0x21
    7090:	2104      	movs	r1, #4
    7092:	0020      	movs	r0, r4
    7094:	f000 fe2a 	bl	7cec <_calloc_r>
    7098:	64e0      	str	r0, [r4, #76]	; 0x4c
    709a:	2800      	cmp	r0, #0
    709c:	d1ec      	bne.n	7078 <_Balloc+0xc>
    709e:	2000      	movs	r0, #0
    70a0:	e7f4      	b.n	708c <_Balloc+0x20>
    70a2:	2601      	movs	r6, #1
    70a4:	40ae      	lsls	r6, r5
    70a6:	1d72      	adds	r2, r6, #5
    70a8:	0092      	lsls	r2, r2, #2
    70aa:	2101      	movs	r1, #1
    70ac:	0020      	movs	r0, r4
    70ae:	f000 fe1d 	bl	7cec <_calloc_r>
    70b2:	2800      	cmp	r0, #0
    70b4:	d0f3      	beq.n	709e <_Balloc+0x32>
    70b6:	6045      	str	r5, [r0, #4]
    70b8:	6086      	str	r6, [r0, #8]
    70ba:	e7e4      	b.n	7086 <_Balloc+0x1a>

000070bc <_Bfree>:
    70bc:	2900      	cmp	r1, #0
    70be:	d006      	beq.n	70ce <_Bfree+0x12>
    70c0:	684b      	ldr	r3, [r1, #4]
    70c2:	009a      	lsls	r2, r3, #2
    70c4:	6cc3      	ldr	r3, [r0, #76]	; 0x4c
    70c6:	189b      	adds	r3, r3, r2
    70c8:	681a      	ldr	r2, [r3, #0]
    70ca:	600a      	str	r2, [r1, #0]
    70cc:	6019      	str	r1, [r3, #0]
    70ce:	4770      	bx	lr

000070d0 <__multadd>:
    70d0:	b5f8      	push	{r3, r4, r5, r6, r7, lr}
    70d2:	46ce      	mov	lr, r9
    70d4:	4647      	mov	r7, r8
    70d6:	4681      	mov	r9, r0
    70d8:	0008      	movs	r0, r1
    70da:	b580      	push	{r7, lr}
    70dc:	000d      	movs	r5, r1
    70de:	690c      	ldr	r4, [r1, #16]
    70e0:	001f      	movs	r7, r3
    70e2:	2100      	movs	r1, #0
    70e4:	3014      	adds	r0, #20
    70e6:	6803      	ldr	r3, [r0, #0]
    70e8:	3101      	adds	r1, #1
    70ea:	041e      	lsls	r6, r3, #16
    70ec:	0c36      	lsrs	r6, r6, #16
    70ee:	4356      	muls	r6, r2
    70f0:	0c1b      	lsrs	r3, r3, #16
    70f2:	4353      	muls	r3, r2
    70f4:	19f6      	adds	r6, r6, r7
    70f6:	0c37      	lsrs	r7, r6, #16
    70f8:	19db      	adds	r3, r3, r7
    70fa:	0436      	lsls	r6, r6, #16
    70fc:	0c1f      	lsrs	r7, r3, #16
    70fe:	0c36      	lsrs	r6, r6, #16
    7100:	041b      	lsls	r3, r3, #16
    7102:	199b      	adds	r3, r3, r6
    7104:	c008      	stmia	r0!, {r3}
    7106:	428c      	cmp	r4, r1
    7108:	dced      	bgt.n	70e6 <__multadd+0x16>
    710a:	2f00      	cmp	r7, #0
    710c:	d008      	beq.n	7120 <__multadd+0x50>
    710e:	68ab      	ldr	r3, [r5, #8]
    7110:	429c      	cmp	r4, r3
    7112:	da0a      	bge.n	712a <__multadd+0x5a>
    7114:	1d23      	adds	r3, r4, #4
    7116:	009b      	lsls	r3, r3, #2
    7118:	18eb      	adds	r3, r5, r3
    711a:	3401      	adds	r4, #1
    711c:	605f      	str	r7, [r3, #4]
    711e:	612c      	str	r4, [r5, #16]
    7120:	0028      	movs	r0, r5
    7122:	bc0c      	pop	{r2, r3}
    7124:	4690      	mov	r8, r2
    7126:	4699      	mov	r9, r3
    7128:	bdf8      	pop	{r3, r4, r5, r6, r7, pc}
    712a:	686b      	ldr	r3, [r5, #4]
    712c:	4648      	mov	r0, r9
    712e:	1c59      	adds	r1, r3, #1
    7130:	f7ff ff9c 	bl	706c <_Balloc>
    7134:	0029      	movs	r1, r5
    7136:	692b      	ldr	r3, [r5, #16]
    7138:	4680      	mov	r8, r0
    713a:	1c9a      	adds	r2, r3, #2
    713c:	0092      	lsls	r2, r2, #2
    713e:	310c      	adds	r1, #12
    7140:	300c      	adds	r0, #12
    7142:	f7ff fef1 	bl	6f28 <memcpy>
    7146:	686b      	ldr	r3, [r5, #4]
    7148:	009a      	lsls	r2, r3, #2
    714a:	464b      	mov	r3, r9
    714c:	6cdb      	ldr	r3, [r3, #76]	; 0x4c
    714e:	189b      	adds	r3, r3, r2
    7150:	681a      	ldr	r2, [r3, #0]
    7152:	602a      	str	r2, [r5, #0]
    7154:	601d      	str	r5, [r3, #0]
    7156:	4645      	mov	r5, r8
    7158:	e7dc      	b.n	7114 <__multadd+0x44>
    715a:	46c0      	nop			; (mov r8, r8)

0000715c <__hi0bits>:
    715c:	0003      	movs	r3, r0
    715e:	0c02      	lsrs	r2, r0, #16
    7160:	2000      	movs	r0, #0
    7162:	2a00      	cmp	r2, #0
    7164:	d101      	bne.n	716a <__hi0bits+0xe>
    7166:	041b      	lsls	r3, r3, #16
    7168:	3010      	adds	r0, #16
    716a:	0e1a      	lsrs	r2, r3, #24
    716c:	d101      	bne.n	7172 <__hi0bits+0x16>
    716e:	3008      	adds	r0, #8
    7170:	021b      	lsls	r3, r3, #8
    7172:	0f1a      	lsrs	r2, r3, #28
    7174:	d101      	bne.n	717a <__hi0bits+0x1e>
    7176:	3004      	adds	r0, #4
    7178:	011b      	lsls	r3, r3, #4
    717a:	0f9a      	lsrs	r2, r3, #30
    717c:	d101      	bne.n	7182 <__hi0bits+0x26>
    717e:	3002      	adds	r0, #2
    7180:	009b      	lsls	r3, r3, #2
    7182:	2b00      	cmp	r3, #0
    7184:	db03      	blt.n	718e <__hi0bits+0x32>
    7186:	3001      	adds	r0, #1
    7188:	005b      	lsls	r3, r3, #1
    718a:	d400      	bmi.n	718e <__hi0bits+0x32>
    718c:	2020      	movs	r0, #32
    718e:	4770      	bx	lr

00007190 <__lo0bits>:
    7190:	6803      	ldr	r3, [r0, #0]
    7192:	075a      	lsls	r2, r3, #29
    7194:	d009      	beq.n	71aa <__lo0bits+0x1a>
    7196:	2200      	movs	r2, #0
    7198:	07d9      	lsls	r1, r3, #31
    719a:	d404      	bmi.n	71a6 <__lo0bits+0x16>
    719c:	079a      	lsls	r2, r3, #30
    719e:	d420      	bmi.n	71e2 <__lo0bits+0x52>
    71a0:	2202      	movs	r2, #2
    71a2:	089b      	lsrs	r3, r3, #2
    71a4:	6003      	str	r3, [r0, #0]
    71a6:	0010      	movs	r0, r2
    71a8:	4770      	bx	lr
    71aa:	0419      	lsls	r1, r3, #16
    71ac:	2200      	movs	r2, #0
    71ae:	2900      	cmp	r1, #0
    71b0:	d101      	bne.n	71b6 <__lo0bits+0x26>
    71b2:	0c1b      	lsrs	r3, r3, #16
    71b4:	3210      	adds	r2, #16
    71b6:	21ff      	movs	r1, #255	; 0xff
    71b8:	4219      	tst	r1, r3
    71ba:	d101      	bne.n	71c0 <__lo0bits+0x30>
    71bc:	3208      	adds	r2, #8
    71be:	0a1b      	lsrs	r3, r3, #8
    71c0:	0719      	lsls	r1, r3, #28
    71c2:	d101      	bne.n	71c8 <__lo0bits+0x38>
    71c4:	3204      	adds	r2, #4
    71c6:	091b      	lsrs	r3, r3, #4
    71c8:	0799      	lsls	r1, r3, #30
    71ca:	d101      	bne.n	71d0 <__lo0bits+0x40>
    71cc:	3202      	adds	r2, #2
    71ce:	089b      	lsrs	r3, r3, #2
    71d0:	07d9      	lsls	r1, r3, #31
    71d2:	d404      	bmi.n	71de <__lo0bits+0x4e>
    71d4:	085b      	lsrs	r3, r3, #1
    71d6:	d101      	bne.n	71dc <__lo0bits+0x4c>
    71d8:	2220      	movs	r2, #32
    71da:	e7e4      	b.n	71a6 <__lo0bits+0x16>
    71dc:	3201      	adds	r2, #1
    71de:	6003      	str	r3, [r0, #0]
    71e0:	e7e1      	b.n	71a6 <__lo0bits+0x16>
    71e2:	085b      	lsrs	r3, r3, #1
    71e4:	6003      	str	r3, [r0, #0]
    71e6:	2201      	movs	r2, #1
    71e8:	e7dd      	b.n	71a6 <__lo0bits+0x16>
    71ea:	46c0      	nop			; (mov r8, r8)

000071ec <__i2b>:
    71ec:	b510      	push	{r4, lr}
    71ee:	000c      	movs	r4, r1
    71f0:	2101      	movs	r1, #1
    71f2:	f7ff ff3b 	bl	706c <_Balloc>
    71f6:	2301      	movs	r3, #1
    71f8:	6144      	str	r4, [r0, #20]
    71fa:	6103      	str	r3, [r0, #16]
    71fc:	bd10      	pop	{r4, pc}
    71fe:	46c0      	nop			; (mov r8, r8)

00007200 <__multiply>:
    7200:	b5f0      	push	{r4, r5, r6, r7, lr}
    7202:	4657      	mov	r7, sl
    7204:	464e      	mov	r6, r9
    7206:	4645      	mov	r5, r8
    7208:	46de      	mov	lr, fp
    720a:	b5e0      	push	{r5, r6, r7, lr}
    720c:	6914      	ldr	r4, [r2, #16]
    720e:	690e      	ldr	r6, [r1, #16]
    7210:	b085      	sub	sp, #20
    7212:	000f      	movs	r7, r1
    7214:	0015      	movs	r5, r2
    7216:	42a6      	cmp	r6, r4
    7218:	da04      	bge.n	7224 <__multiply+0x24>
    721a:	0033      	movs	r3, r6
    721c:	0017      	movs	r7, r2
    721e:	0026      	movs	r6, r4
    7220:	000d      	movs	r5, r1
    7222:	001c      	movs	r4, r3
    7224:	1933      	adds	r3, r6, r4
    7226:	4698      	mov	r8, r3
    7228:	68bb      	ldr	r3, [r7, #8]
    722a:	6879      	ldr	r1, [r7, #4]
    722c:	4598      	cmp	r8, r3
    722e:	dd00      	ble.n	7232 <__multiply+0x32>
    7230:	3101      	adds	r1, #1
    7232:	f7ff ff1b 	bl	706c <_Balloc>
    7236:	2214      	movs	r2, #20
    7238:	0003      	movs	r3, r0
    723a:	4694      	mov	ip, r2
    723c:	4463      	add	r3, ip
    723e:	469b      	mov	fp, r3
    7240:	4643      	mov	r3, r8
    7242:	009b      	lsls	r3, r3, #2
    7244:	445b      	add	r3, fp
    7246:	0019      	movs	r1, r3
    7248:	9302      	str	r3, [sp, #8]
    724a:	9003      	str	r0, [sp, #12]
    724c:	465b      	mov	r3, fp
    724e:	2200      	movs	r2, #0
    7250:	458b      	cmp	fp, r1
    7252:	d203      	bcs.n	725c <__multiply+0x5c>
    7254:	9902      	ldr	r1, [sp, #8]
    7256:	c304      	stmia	r3!, {r2}
    7258:	4299      	cmp	r1, r3
    725a:	d8fc      	bhi.n	7256 <__multiply+0x56>
    725c:	2314      	movs	r3, #20
    725e:	00a4      	lsls	r4, r4, #2
    7260:	469a      	mov	sl, r3
    7262:	3714      	adds	r7, #20
    7264:	0023      	movs	r3, r4
    7266:	46bc      	mov	ip, r7
    7268:	44aa      	add	sl, r5
    726a:	00b6      	lsls	r6, r6, #2
    726c:	4453      	add	r3, sl
    726e:	9700      	str	r7, [sp, #0]
    7270:	44b4      	add	ip, r6
    7272:	9301      	str	r3, [sp, #4]
    7274:	459a      	cmp	sl, r3
    7276:	d24f      	bcs.n	7318 <__multiply+0x118>
    7278:	4653      	mov	r3, sl
    727a:	681b      	ldr	r3, [r3, #0]
    727c:	041e      	lsls	r6, r3, #16
    727e:	0c36      	lsrs	r6, r6, #16
    7280:	d020      	beq.n	72c4 <__multiply+0xc4>
    7282:	465c      	mov	r4, fp
    7284:	2700      	movs	r7, #0
    7286:	9d00      	ldr	r5, [sp, #0]
    7288:	0021      	movs	r1, r4
    728a:	cc08      	ldmia	r4!, {r3}
    728c:	cd04      	ldmia	r5!, {r2}
    728e:	4699      	mov	r9, r3
    7290:	4648      	mov	r0, r9
    7292:	0413      	lsls	r3, r2, #16
    7294:	0c1b      	lsrs	r3, r3, #16
    7296:	4373      	muls	r3, r6
    7298:	0400      	lsls	r0, r0, #16
    729a:	0c00      	lsrs	r0, r0, #16
    729c:	181b      	adds	r3, r3, r0
    729e:	19d8      	adds	r0, r3, r7
    72a0:	0c13      	lsrs	r3, r2, #16
    72a2:	464a      	mov	r2, r9
    72a4:	4373      	muls	r3, r6
    72a6:	0c12      	lsrs	r2, r2, #16
    72a8:	189b      	adds	r3, r3, r2
    72aa:	0c02      	lsrs	r2, r0, #16
    72ac:	189b      	adds	r3, r3, r2
    72ae:	0402      	lsls	r2, r0, #16
    72b0:	0c1f      	lsrs	r7, r3, #16
    72b2:	0c12      	lsrs	r2, r2, #16
    72b4:	041b      	lsls	r3, r3, #16
    72b6:	4313      	orrs	r3, r2
    72b8:	600b      	str	r3, [r1, #0]
    72ba:	45ac      	cmp	ip, r5
    72bc:	d8e4      	bhi.n	7288 <__multiply+0x88>
    72be:	4653      	mov	r3, sl
    72c0:	6027      	str	r7, [r4, #0]
    72c2:	681b      	ldr	r3, [r3, #0]
    72c4:	0c1e      	lsrs	r6, r3, #16
    72c6:	d020      	beq.n	730a <__multiply+0x10a>
    72c8:	465b      	mov	r3, fp
    72ca:	2100      	movs	r1, #0
    72cc:	681b      	ldr	r3, [r3, #0]
    72ce:	465c      	mov	r4, fp
    72d0:	0018      	movs	r0, r3
    72d2:	000f      	movs	r7, r1
    72d4:	4662      	mov	r2, ip
    72d6:	9d00      	ldr	r5, [sp, #0]
    72d8:	8829      	ldrh	r1, [r5, #0]
    72da:	0c00      	lsrs	r0, r0, #16
    72dc:	4371      	muls	r1, r6
    72de:	1809      	adds	r1, r1, r0
    72e0:	19c9      	adds	r1, r1, r7
    72e2:	041b      	lsls	r3, r3, #16
    72e4:	0408      	lsls	r0, r1, #16
    72e6:	0c1b      	lsrs	r3, r3, #16
    72e8:	4303      	orrs	r3, r0
    72ea:	6023      	str	r3, [r4, #0]
    72ec:	cd08      	ldmia	r5!, {r3}
    72ee:	6860      	ldr	r0, [r4, #4]
    72f0:	0c1b      	lsrs	r3, r3, #16
    72f2:	4373      	muls	r3, r6
    72f4:	0407      	lsls	r7, r0, #16
    72f6:	0c3f      	lsrs	r7, r7, #16
    72f8:	19db      	adds	r3, r3, r7
    72fa:	0c09      	lsrs	r1, r1, #16
    72fc:	185b      	adds	r3, r3, r1
    72fe:	0c1f      	lsrs	r7, r3, #16
    7300:	3404      	adds	r4, #4
    7302:	42aa      	cmp	r2, r5
    7304:	d8e8      	bhi.n	72d8 <__multiply+0xd8>
    7306:	4694      	mov	ip, r2
    7308:	6023      	str	r3, [r4, #0]
    730a:	2304      	movs	r3, #4
    730c:	4699      	mov	r9, r3
    730e:	9b01      	ldr	r3, [sp, #4]
    7310:	44ca      	add	sl, r9
    7312:	44cb      	add	fp, r9
    7314:	4553      	cmp	r3, sl
    7316:	d8af      	bhi.n	7278 <__multiply+0x78>
    7318:	4643      	mov	r3, r8
    731a:	2b00      	cmp	r3, #0
    731c:	dd0e      	ble.n	733c <__multiply+0x13c>
    731e:	9b02      	ldr	r3, [sp, #8]
    7320:	3b04      	subs	r3, #4
    7322:	681a      	ldr	r2, [r3, #0]
    7324:	2a00      	cmp	r2, #0
    7326:	d109      	bne.n	733c <__multiply+0x13c>
    7328:	4642      	mov	r2, r8
    732a:	e003      	b.n	7334 <__multiply+0x134>
    732c:	3b04      	subs	r3, #4
    732e:	6819      	ldr	r1, [r3, #0]
    7330:	2900      	cmp	r1, #0
    7332:	d102      	bne.n	733a <__multiply+0x13a>
    7334:	3a01      	subs	r2, #1
    7336:	2a00      	cmp	r2, #0
    7338:	d1f8      	bne.n	732c <__multiply+0x12c>
    733a:	4690      	mov	r8, r2
    733c:	9b03      	ldr	r3, [sp, #12]
    733e:	4642      	mov	r2, r8
    7340:	0018      	movs	r0, r3
    7342:	611a      	str	r2, [r3, #16]
    7344:	b005      	add	sp, #20
    7346:	bc3c      	pop	{r2, r3, r4, r5}
    7348:	4690      	mov	r8, r2
    734a:	4699      	mov	r9, r3
    734c:	46a2      	mov	sl, r4
    734e:	46ab      	mov	fp, r5
    7350:	bdf0      	pop	{r4, r5, r6, r7, pc}
    7352:	46c0      	nop			; (mov r8, r8)

00007354 <__pow5mult>:
    7354:	b5f8      	push	{r3, r4, r5, r6, r7, lr}
    7356:	4647      	mov	r7, r8
    7358:	46ce      	mov	lr, r9
    735a:	2303      	movs	r3, #3
    735c:	b580      	push	{r7, lr}
    735e:	4680      	mov	r8, r0
    7360:	000f      	movs	r7, r1
    7362:	0014      	movs	r4, r2
    7364:	4013      	ands	r3, r2
    7366:	d13a      	bne.n	73de <__pow5mult+0x8a>
    7368:	10a4      	asrs	r4, r4, #2
    736a:	003e      	movs	r6, r7
    736c:	2c00      	cmp	r4, #0
    736e:	d025      	beq.n	73bc <__pow5mult+0x68>
    7370:	4643      	mov	r3, r8
    7372:	6c9d      	ldr	r5, [r3, #72]	; 0x48
    7374:	2d00      	cmp	r5, #0
    7376:	d03b      	beq.n	73f0 <__pow5mult+0x9c>
    7378:	003e      	movs	r6, r7
    737a:	2300      	movs	r3, #0
    737c:	2701      	movs	r7, #1
    737e:	4699      	mov	r9, r3
    7380:	4227      	tst	r7, r4
    7382:	d107      	bne.n	7394 <__pow5mult+0x40>
    7384:	1064      	asrs	r4, r4, #1
    7386:	d019      	beq.n	73bc <__pow5mult+0x68>
    7388:	6828      	ldr	r0, [r5, #0]
    738a:	2800      	cmp	r0, #0
    738c:	d01b      	beq.n	73c6 <__pow5mult+0x72>
    738e:	0005      	movs	r5, r0
    7390:	4227      	tst	r7, r4
    7392:	d0f7      	beq.n	7384 <__pow5mult+0x30>
    7394:	002a      	movs	r2, r5
    7396:	0031      	movs	r1, r6
    7398:	4640      	mov	r0, r8
    739a:	f7ff ff31 	bl	7200 <__multiply>
    739e:	2e00      	cmp	r6, #0
    73a0:	d01b      	beq.n	73da <__pow5mult+0x86>
    73a2:	4642      	mov	r2, r8
    73a4:	6cd2      	ldr	r2, [r2, #76]	; 0x4c
    73a6:	6873      	ldr	r3, [r6, #4]
    73a8:	4694      	mov	ip, r2
    73aa:	009b      	lsls	r3, r3, #2
    73ac:	4463      	add	r3, ip
    73ae:	681a      	ldr	r2, [r3, #0]
    73b0:	1064      	asrs	r4, r4, #1
    73b2:	6032      	str	r2, [r6, #0]
    73b4:	601e      	str	r6, [r3, #0]
    73b6:	0006      	movs	r6, r0
    73b8:	2c00      	cmp	r4, #0
    73ba:	d1e5      	bne.n	7388 <__pow5mult+0x34>
    73bc:	0030      	movs	r0, r6
    73be:	bc0c      	pop	{r2, r3}
    73c0:	4690      	mov	r8, r2
    73c2:	4699      	mov	r9, r3
    73c4:	bdf8      	pop	{r3, r4, r5, r6, r7, pc}
    73c6:	002a      	movs	r2, r5
    73c8:	0029      	movs	r1, r5
    73ca:	4640      	mov	r0, r8
    73cc:	f7ff ff18 	bl	7200 <__multiply>
    73d0:	464b      	mov	r3, r9
    73d2:	6028      	str	r0, [r5, #0]
    73d4:	6003      	str	r3, [r0, #0]
    73d6:	0005      	movs	r5, r0
    73d8:	e7da      	b.n	7390 <__pow5mult+0x3c>
    73da:	0006      	movs	r6, r0
    73dc:	e7d2      	b.n	7384 <__pow5mult+0x30>
    73de:	4a0b      	ldr	r2, [pc, #44]	; (740c <__pow5mult+0xb8>)
    73e0:	3b01      	subs	r3, #1
    73e2:	009b      	lsls	r3, r3, #2
    73e4:	589a      	ldr	r2, [r3, r2]
    73e6:	2300      	movs	r3, #0
    73e8:	f7ff fe72 	bl	70d0 <__multadd>
    73ec:	0007      	movs	r7, r0
    73ee:	e7bb      	b.n	7368 <__pow5mult+0x14>
    73f0:	2101      	movs	r1, #1
    73f2:	4640      	mov	r0, r8
    73f4:	f7ff fe3a 	bl	706c <_Balloc>
    73f8:	4b05      	ldr	r3, [pc, #20]	; (7410 <__pow5mult+0xbc>)
    73fa:	0005      	movs	r5, r0
    73fc:	6143      	str	r3, [r0, #20]
    73fe:	2301      	movs	r3, #1
    7400:	6103      	str	r3, [r0, #16]
    7402:	4643      	mov	r3, r8
    7404:	6498      	str	r0, [r3, #72]	; 0x48
    7406:	2300      	movs	r3, #0
    7408:	6003      	str	r3, [r0, #0]
    740a:	e7b5      	b.n	7378 <__pow5mult+0x24>
    740c:	00008c90 	.word	0x00008c90
    7410:	00000271 	.word	0x00000271

00007414 <__lshift>:
    7414:	b5f8      	push	{r3, r4, r5, r6, r7, lr}
    7416:	464e      	mov	r6, r9
    7418:	4645      	mov	r5, r8
    741a:	46de      	mov	lr, fp
    741c:	4657      	mov	r7, sl
    741e:	b5e0      	push	{r5, r6, r7, lr}
    7420:	000e      	movs	r6, r1
    7422:	6933      	ldr	r3, [r6, #16]
    7424:	1154      	asrs	r4, r2, #5
    7426:	4698      	mov	r8, r3
    7428:	44a0      	add	r8, r4
    742a:	4643      	mov	r3, r8
    742c:	1c5d      	adds	r5, r3, #1
    742e:	68b3      	ldr	r3, [r6, #8]
    7430:	4683      	mov	fp, r0
    7432:	4691      	mov	r9, r2
    7434:	6849      	ldr	r1, [r1, #4]
    7436:	429d      	cmp	r5, r3
    7438:	dd03      	ble.n	7442 <__lshift+0x2e>
    743a:	3101      	adds	r1, #1
    743c:	005b      	lsls	r3, r3, #1
    743e:	429d      	cmp	r5, r3
    7440:	dcfb      	bgt.n	743a <__lshift+0x26>
    7442:	4658      	mov	r0, fp
    7444:	f7ff fe12 	bl	706c <_Balloc>
    7448:	0003      	movs	r3, r0
    744a:	4684      	mov	ip, r0
    744c:	3314      	adds	r3, #20
    744e:	2c00      	cmp	r4, #0
    7450:	dd06      	ble.n	7460 <__lshift+0x4c>
    7452:	2100      	movs	r1, #0
    7454:	00a4      	lsls	r4, r4, #2
    7456:	001a      	movs	r2, r3
    7458:	191b      	adds	r3, r3, r4
    745a:	c202      	stmia	r2!, {r1}
    745c:	4293      	cmp	r3, r2
    745e:	d1fc      	bne.n	745a <__lshift+0x46>
    7460:	6932      	ldr	r2, [r6, #16]
    7462:	4648      	mov	r0, r9
    7464:	0097      	lsls	r7, r2, #2
    7466:	0031      	movs	r1, r6
    7468:	221f      	movs	r2, #31
    746a:	3114      	adds	r1, #20
    746c:	4010      	ands	r0, r2
    746e:	19cf      	adds	r7, r1, r7
    7470:	4681      	mov	r9, r0
    7472:	2800      	cmp	r0, #0
    7474:	d025      	beq.n	74c2 <__lshift+0xae>
    7476:	2220      	movs	r2, #32
    7478:	1a12      	subs	r2, r2, r0
    747a:	4692      	mov	sl, r2
    747c:	2200      	movs	r2, #0
    747e:	4648      	mov	r0, r9
    7480:	680c      	ldr	r4, [r1, #0]
    7482:	4084      	lsls	r4, r0
    7484:	4650      	mov	r0, sl
    7486:	4314      	orrs	r4, r2
    7488:	601c      	str	r4, [r3, #0]
    748a:	c904      	ldmia	r1!, {r2}
    748c:	3304      	adds	r3, #4
    748e:	40c2      	lsrs	r2, r0
    7490:	428f      	cmp	r7, r1
    7492:	d8f4      	bhi.n	747e <__lshift+0x6a>
    7494:	601a      	str	r2, [r3, #0]
    7496:	2a00      	cmp	r2, #0
    7498:	d001      	beq.n	749e <__lshift+0x8a>
    749a:	4645      	mov	r5, r8
    749c:	3502      	adds	r5, #2
    749e:	4663      	mov	r3, ip
    74a0:	3d01      	subs	r5, #1
    74a2:	611d      	str	r5, [r3, #16]
    74a4:	6873      	ldr	r3, [r6, #4]
    74a6:	4660      	mov	r0, ip
    74a8:	009a      	lsls	r2, r3, #2
    74aa:	465b      	mov	r3, fp
    74ac:	6cdb      	ldr	r3, [r3, #76]	; 0x4c
    74ae:	189b      	adds	r3, r3, r2
    74b0:	681a      	ldr	r2, [r3, #0]
    74b2:	6032      	str	r2, [r6, #0]
    74b4:	601e      	str	r6, [r3, #0]
    74b6:	bc3c      	pop	{r2, r3, r4, r5}
    74b8:	4690      	mov	r8, r2
    74ba:	4699      	mov	r9, r3
    74bc:	46a2      	mov	sl, r4
    74be:	46ab      	mov	fp, r5
    74c0:	bdf8      	pop	{r3, r4, r5, r6, r7, pc}
    74c2:	c904      	ldmia	r1!, {r2}
    74c4:	c304      	stmia	r3!, {r2}
    74c6:	428f      	cmp	r7, r1
    74c8:	d9e9      	bls.n	749e <__lshift+0x8a>
    74ca:	c904      	ldmia	r1!, {r2}
    74cc:	c304      	stmia	r3!, {r2}
    74ce:	428f      	cmp	r7, r1
    74d0:	d8f7      	bhi.n	74c2 <__lshift+0xae>
    74d2:	e7e4      	b.n	749e <__lshift+0x8a>

000074d4 <__mcmp>:
    74d4:	690a      	ldr	r2, [r1, #16]
    74d6:	6903      	ldr	r3, [r0, #16]
    74d8:	b530      	push	{r4, r5, lr}
    74da:	0005      	movs	r5, r0
    74dc:	1a98      	subs	r0, r3, r2
    74de:	d111      	bne.n	7504 <__mcmp+0x30>
    74e0:	0092      	lsls	r2, r2, #2
    74e2:	3514      	adds	r5, #20
    74e4:	3114      	adds	r1, #20
    74e6:	18ab      	adds	r3, r5, r2
    74e8:	1889      	adds	r1, r1, r2
    74ea:	e001      	b.n	74f0 <__mcmp+0x1c>
    74ec:	429d      	cmp	r5, r3
    74ee:	d209      	bcs.n	7504 <__mcmp+0x30>
    74f0:	3b04      	subs	r3, #4
    74f2:	3904      	subs	r1, #4
    74f4:	681c      	ldr	r4, [r3, #0]
    74f6:	680a      	ldr	r2, [r1, #0]
    74f8:	4294      	cmp	r4, r2
    74fa:	d0f7      	beq.n	74ec <__mcmp+0x18>
    74fc:	4294      	cmp	r4, r2
    74fe:	4180      	sbcs	r0, r0
    7500:	2201      	movs	r2, #1
    7502:	4310      	orrs	r0, r2
    7504:	bd30      	pop	{r4, r5, pc}
    7506:	46c0      	nop			; (mov r8, r8)

00007508 <__mdiff>:
    7508:	b5f8      	push	{r3, r4, r5, r6, r7, lr}
    750a:	4645      	mov	r5, r8
    750c:	46de      	mov	lr, fp
    750e:	4657      	mov	r7, sl
    7510:	464e      	mov	r6, r9
    7512:	0014      	movs	r4, r2
    7514:	690b      	ldr	r3, [r1, #16]
    7516:	6912      	ldr	r2, [r2, #16]
    7518:	b5e0      	push	{r5, r6, r7, lr}
    751a:	4688      	mov	r8, r1
    751c:	1a9d      	subs	r5, r3, r2
    751e:	d11a      	bne.n	7556 <__mdiff+0x4e>
    7520:	000f      	movs	r7, r1
    7522:	2114      	movs	r1, #20
    7524:	468c      	mov	ip, r1
    7526:	0092      	lsls	r2, r2, #2
    7528:	3714      	adds	r7, #20
    752a:	44a4      	add	ip, r4
    752c:	18bb      	adds	r3, r7, r2
    752e:	4462      	add	r2, ip
    7530:	e002      	b.n	7538 <__mdiff+0x30>
    7532:	429f      	cmp	r7, r3
    7534:	d300      	bcc.n	7538 <__mdiff+0x30>
    7536:	e070      	b.n	761a <__mdiff+0x112>
    7538:	3b04      	subs	r3, #4
    753a:	3a04      	subs	r2, #4
    753c:	681e      	ldr	r6, [r3, #0]
    753e:	6811      	ldr	r1, [r2, #0]
    7540:	428e      	cmp	r6, r1
    7542:	d0f6      	beq.n	7532 <__mdiff+0x2a>
    7544:	d300      	bcc.n	7548 <__mdiff+0x40>
    7546:	e071      	b.n	762c <__mdiff+0x124>
    7548:	4643      	mov	r3, r8
    754a:	003e      	movs	r6, r7
    754c:	46a0      	mov	r8, r4
    754e:	4667      	mov	r7, ip
    7550:	001c      	movs	r4, r3
    7552:	2501      	movs	r5, #1
    7554:	e006      	b.n	7564 <__mdiff+0x5c>
    7556:	2d00      	cmp	r5, #0
    7558:	db6a      	blt.n	7630 <__mdiff+0x128>
    755a:	4647      	mov	r7, r8
    755c:	0026      	movs	r6, r4
    755e:	2500      	movs	r5, #0
    7560:	3714      	adds	r7, #20
    7562:	3614      	adds	r6, #20
    7564:	4643      	mov	r3, r8
    7566:	6859      	ldr	r1, [r3, #4]
    7568:	f7ff fd80 	bl	706c <_Balloc>
    756c:	4643      	mov	r3, r8
    756e:	4681      	mov	r9, r0
    7570:	60c5      	str	r5, [r0, #12]
    7572:	6918      	ldr	r0, [r3, #16]
    7574:	464d      	mov	r5, r9
    7576:	0083      	lsls	r3, r0, #2
    7578:	469c      	mov	ip, r3
    757a:	6923      	ldr	r3, [r4, #16]
    757c:	44bc      	add	ip, r7
    757e:	009b      	lsls	r3, r3, #2
    7580:	4698      	mov	r8, r3
    7582:	2300      	movs	r3, #0
    7584:	44b0      	add	r8, r6
    7586:	3514      	adds	r5, #20
    7588:	469a      	mov	sl, r3
    758a:	e000      	b.n	758e <__mdiff+0x86>
    758c:	0027      	movs	r7, r4
    758e:	ce04      	ldmia	r6!, {r2}
    7590:	003c      	movs	r4, r7
    7592:	4693      	mov	fp, r2
    7594:	4659      	mov	r1, fp
    7596:	cc08      	ldmia	r4!, {r3}
    7598:	0409      	lsls	r1, r1, #16
    759a:	041a      	lsls	r2, r3, #16
    759c:	0c12      	lsrs	r2, r2, #16
    759e:	4452      	add	r2, sl
    75a0:	0c09      	lsrs	r1, r1, #16
    75a2:	1a52      	subs	r2, r2, r1
    75a4:	0c19      	lsrs	r1, r3, #16
    75a6:	465b      	mov	r3, fp
    75a8:	0c1b      	lsrs	r3, r3, #16
    75aa:	1acb      	subs	r3, r1, r3
    75ac:	1411      	asrs	r1, r2, #16
    75ae:	185b      	adds	r3, r3, r1
    75b0:	0412      	lsls	r2, r2, #16
    75b2:	1419      	asrs	r1, r3, #16
    75b4:	0c12      	lsrs	r2, r2, #16
    75b6:	041b      	lsls	r3, r3, #16
    75b8:	468a      	mov	sl, r1
    75ba:	4313      	orrs	r3, r2
    75bc:	1d29      	adds	r1, r5, #4
    75be:	602b      	str	r3, [r5, #0]
    75c0:	000d      	movs	r5, r1
    75c2:	45b0      	cmp	r8, r6
    75c4:	d8e2      	bhi.n	758c <__mdiff+0x84>
    75c6:	45a4      	cmp	ip, r4
    75c8:	d916      	bls.n	75f8 <__mdiff+0xf0>
    75ca:	cc08      	ldmia	r4!, {r3}
    75cc:	041a      	lsls	r2, r3, #16
    75ce:	0c12      	lsrs	r2, r2, #16
    75d0:	4452      	add	r2, sl
    75d2:	1416      	asrs	r6, r2, #16
    75d4:	0c1b      	lsrs	r3, r3, #16
    75d6:	199b      	adds	r3, r3, r6
    75d8:	0412      	lsls	r2, r2, #16
    75da:	141e      	asrs	r6, r3, #16
    75dc:	0c12      	lsrs	r2, r2, #16
    75de:	041b      	lsls	r3, r3, #16
    75e0:	4313      	orrs	r3, r2
    75e2:	46b2      	mov	sl, r6
    75e4:	c508      	stmia	r5!, {r3}
    75e6:	45a4      	cmp	ip, r4
    75e8:	d8ef      	bhi.n	75ca <__mdiff+0xc2>
    75ea:	4662      	mov	r2, ip
    75ec:	2403      	movs	r4, #3
    75ee:	1bd2      	subs	r2, r2, r7
    75f0:	3a05      	subs	r2, #5
    75f2:	43a2      	bics	r2, r4
    75f4:	3204      	adds	r2, #4
    75f6:	1889      	adds	r1, r1, r2
    75f8:	3904      	subs	r1, #4
    75fa:	2b00      	cmp	r3, #0
    75fc:	d104      	bne.n	7608 <__mdiff+0x100>
    75fe:	3904      	subs	r1, #4
    7600:	680b      	ldr	r3, [r1, #0]
    7602:	3801      	subs	r0, #1
    7604:	2b00      	cmp	r3, #0
    7606:	d0fa      	beq.n	75fe <__mdiff+0xf6>
    7608:	464b      	mov	r3, r9
    760a:	6118      	str	r0, [r3, #16]
    760c:	4648      	mov	r0, r9
    760e:	bc3c      	pop	{r2, r3, r4, r5}
    7610:	4690      	mov	r8, r2
    7612:	4699      	mov	r9, r3
    7614:	46a2      	mov	sl, r4
    7616:	46ab      	mov	fp, r5
    7618:	bdf8      	pop	{r3, r4, r5, r6, r7, pc}
    761a:	2100      	movs	r1, #0
    761c:	f7ff fd26 	bl	706c <_Balloc>
    7620:	2301      	movs	r3, #1
    7622:	6103      	str	r3, [r0, #16]
    7624:	2300      	movs	r3, #0
    7626:	4681      	mov	r9, r0
    7628:	6143      	str	r3, [r0, #20]
    762a:	e7ef      	b.n	760c <__mdiff+0x104>
    762c:	4666      	mov	r6, ip
    762e:	e799      	b.n	7564 <__mdiff+0x5c>
    7630:	0027      	movs	r7, r4
    7632:	000e      	movs	r6, r1
    7634:	46a0      	mov	r8, r4
    7636:	3714      	adds	r7, #20
    7638:	3614      	adds	r6, #20
    763a:	000c      	movs	r4, r1
    763c:	2501      	movs	r5, #1
    763e:	e791      	b.n	7564 <__mdiff+0x5c>

00007640 <__d2b>:
    7640:	b5f0      	push	{r4, r5, r6, r7, lr}
    7642:	2101      	movs	r1, #1
    7644:	001c      	movs	r4, r3
    7646:	b083      	sub	sp, #12
    7648:	9e08      	ldr	r6, [sp, #32]
    764a:	0015      	movs	r5, r2
    764c:	f7ff fd0e 	bl	706c <_Balloc>
    7650:	0323      	lsls	r3, r4, #12
    7652:	0064      	lsls	r4, r4, #1
    7654:	0007      	movs	r7, r0
    7656:	0b1b      	lsrs	r3, r3, #12
    7658:	0d64      	lsrs	r4, r4, #21
    765a:	d002      	beq.n	7662 <__d2b+0x22>
    765c:	2280      	movs	r2, #128	; 0x80
    765e:	0352      	lsls	r2, r2, #13
    7660:	4313      	orrs	r3, r2
    7662:	9301      	str	r3, [sp, #4]
    7664:	2d00      	cmp	r5, #0
    7666:	d019      	beq.n	769c <__d2b+0x5c>
    7668:	4668      	mov	r0, sp
    766a:	9500      	str	r5, [sp, #0]
    766c:	f7ff fd90 	bl	7190 <__lo0bits>
    7670:	2800      	cmp	r0, #0
    7672:	d130      	bne.n	76d6 <__d2b+0x96>
    7674:	9b00      	ldr	r3, [sp, #0]
    7676:	617b      	str	r3, [r7, #20]
    7678:	9b01      	ldr	r3, [sp, #4]
    767a:	61bb      	str	r3, [r7, #24]
    767c:	1e5a      	subs	r2, r3, #1
    767e:	4193      	sbcs	r3, r2
    7680:	1c5d      	adds	r5, r3, #1
    7682:	613d      	str	r5, [r7, #16]
    7684:	2c00      	cmp	r4, #0
    7686:	d014      	beq.n	76b2 <__d2b+0x72>
    7688:	4b19      	ldr	r3, [pc, #100]	; (76f0 <__d2b+0xb0>)
    768a:	469c      	mov	ip, r3
    768c:	2335      	movs	r3, #53	; 0x35
    768e:	4464      	add	r4, ip
    7690:	1824      	adds	r4, r4, r0
    7692:	1a18      	subs	r0, r3, r0
    7694:	9b09      	ldr	r3, [sp, #36]	; 0x24
    7696:	6034      	str	r4, [r6, #0]
    7698:	6018      	str	r0, [r3, #0]
    769a:	e019      	b.n	76d0 <__d2b+0x90>
    769c:	a801      	add	r0, sp, #4
    769e:	f7ff fd77 	bl	7190 <__lo0bits>
    76a2:	9b01      	ldr	r3, [sp, #4]
    76a4:	3020      	adds	r0, #32
    76a6:	617b      	str	r3, [r7, #20]
    76a8:	2301      	movs	r3, #1
    76aa:	2501      	movs	r5, #1
    76ac:	613b      	str	r3, [r7, #16]
    76ae:	2c00      	cmp	r4, #0
    76b0:	d1ea      	bne.n	7688 <__d2b+0x48>
    76b2:	4b10      	ldr	r3, [pc, #64]	; (76f4 <__d2b+0xb4>)
    76b4:	469c      	mov	ip, r3
    76b6:	4b10      	ldr	r3, [pc, #64]	; (76f8 <__d2b+0xb8>)
    76b8:	4460      	add	r0, ip
    76ba:	18eb      	adds	r3, r5, r3
    76bc:	009b      	lsls	r3, r3, #2
    76be:	18fb      	adds	r3, r7, r3
    76c0:	6030      	str	r0, [r6, #0]
    76c2:	6958      	ldr	r0, [r3, #20]
    76c4:	f7ff fd4a 	bl	715c <__hi0bits>
    76c8:	016b      	lsls	r3, r5, #5
    76ca:	1a18      	subs	r0, r3, r0
    76cc:	9b09      	ldr	r3, [sp, #36]	; 0x24
    76ce:	6018      	str	r0, [r3, #0]
    76d0:	0038      	movs	r0, r7
    76d2:	b003      	add	sp, #12
    76d4:	bdf0      	pop	{r4, r5, r6, r7, pc}
    76d6:	9b01      	ldr	r3, [sp, #4]
    76d8:	2220      	movs	r2, #32
    76da:	0019      	movs	r1, r3
    76dc:	1a12      	subs	r2, r2, r0
    76de:	4091      	lsls	r1, r2
    76e0:	000a      	movs	r2, r1
    76e2:	40c3      	lsrs	r3, r0
    76e4:	9900      	ldr	r1, [sp, #0]
    76e6:	9301      	str	r3, [sp, #4]
    76e8:	430a      	orrs	r2, r1
    76ea:	617a      	str	r2, [r7, #20]
    76ec:	e7c5      	b.n	767a <__d2b+0x3a>
    76ee:	46c0      	nop			; (mov r8, r8)
    76f0:	fffffbcd 	.word	0xfffffbcd
    76f4:	fffffbce 	.word	0xfffffbce
    76f8:	3fffffff 	.word	0x3fffffff

000076fc <_realloc_r>:
    76fc:	b5f0      	push	{r4, r5, r6, r7, lr}
    76fe:	464e      	mov	r6, r9
    7700:	4645      	mov	r5, r8
    7702:	46de      	mov	lr, fp
    7704:	4657      	mov	r7, sl
    7706:	b5e0      	push	{r5, r6, r7, lr}
    7708:	b085      	sub	sp, #20
    770a:	9001      	str	r0, [sp, #4]
    770c:	000e      	movs	r6, r1
    770e:	0015      	movs	r5, r2
    7710:	2900      	cmp	r1, #0
    7712:	d100      	bne.n	7716 <_realloc_r+0x1a>
    7714:	e09e      	b.n	7854 <_realloc_r+0x158>
    7716:	0037      	movs	r7, r6
    7718:	9801      	ldr	r0, [sp, #4]
    771a:	3f08      	subs	r7, #8
    771c:	f7ff fc96 	bl	704c <__malloc_lock>
    7720:	687a      	ldr	r2, [r7, #4]
    7722:	2303      	movs	r3, #3
    7724:	0014      	movs	r4, r2
    7726:	439c      	bics	r4, r3
    7728:	002b      	movs	r3, r5
    772a:	330b      	adds	r3, #11
    772c:	46b9      	mov	r9, r7
    772e:	2b16      	cmp	r3, #22
    7730:	d847      	bhi.n	77c2 <_realloc_r+0xc6>
    7732:	2110      	movs	r1, #16
    7734:	2310      	movs	r3, #16
    7736:	4688      	mov	r8, r1
    7738:	4545      	cmp	r5, r8
    773a:	d846      	bhi.n	77ca <_realloc_r+0xce>
    773c:	429c      	cmp	r4, r3
    773e:	da49      	bge.n	77d4 <_realloc_r+0xd8>
    7740:	49cc      	ldr	r1, [pc, #816]	; (7a74 <_realloc_r+0x378>)
    7742:	1938      	adds	r0, r7, r4
    7744:	468b      	mov	fp, r1
    7746:	6889      	ldr	r1, [r1, #8]
    7748:	9002      	str	r0, [sp, #8]
    774a:	4288      	cmp	r0, r1
    774c:	d100      	bne.n	7750 <_realloc_r+0x54>
    774e:	e0c2      	b.n	78d6 <_realloc_r+0x1da>
    7750:	2101      	movs	r1, #1
    7752:	468a      	mov	sl, r1
    7754:	6840      	ldr	r0, [r0, #4]
    7756:	0001      	movs	r1, r0
    7758:	9003      	str	r0, [sp, #12]
    775a:	4650      	mov	r0, sl
    775c:	4381      	bics	r1, r0
    775e:	468c      	mov	ip, r1
    7760:	9902      	ldr	r1, [sp, #8]
    7762:	468b      	mov	fp, r1
    7764:	44dc      	add	ip, fp
    7766:	4661      	mov	r1, ip
    7768:	6849      	ldr	r1, [r1, #4]
    776a:	4201      	tst	r1, r0
    776c:	d04d      	beq.n	780a <_realloc_r+0x10e>
    776e:	4210      	tst	r0, r2
    7770:	d100      	bne.n	7774 <_realloc_r+0x78>
    7772:	e0a2      	b.n	78ba <_realloc_r+0x1be>
    7774:	0029      	movs	r1, r5
    7776:	9801      	ldr	r0, [sp, #4]
    7778:	f7ff f8e2 	bl	6940 <_malloc_r>
    777c:	1e05      	subs	r5, r0, #0
    777e:	d039      	beq.n	77f4 <_realloc_r+0xf8>
    7780:	2301      	movs	r3, #1
    7782:	0002      	movs	r2, r0
    7784:	6879      	ldr	r1, [r7, #4]
    7786:	3a08      	subs	r2, #8
    7788:	4399      	bics	r1, r3
    778a:	187f      	adds	r7, r7, r1
    778c:	42ba      	cmp	r2, r7
    778e:	d100      	bne.n	7792 <_realloc_r+0x96>
    7790:	e12e      	b.n	79f0 <_realloc_r+0x2f4>
    7792:	1f22      	subs	r2, r4, #4
    7794:	2a24      	cmp	r2, #36	; 0x24
    7796:	d900      	bls.n	779a <_realloc_r+0x9e>
    7798:	e114      	b.n	79c4 <_realloc_r+0x2c8>
    779a:	2a13      	cmp	r2, #19
    779c:	d900      	bls.n	77a0 <_realloc_r+0xa4>
    779e:	e0e8      	b.n	7972 <_realloc_r+0x276>
    77a0:	0003      	movs	r3, r0
    77a2:	0032      	movs	r2, r6
    77a4:	6811      	ldr	r1, [r2, #0]
    77a6:	6019      	str	r1, [r3, #0]
    77a8:	6851      	ldr	r1, [r2, #4]
    77aa:	6059      	str	r1, [r3, #4]
    77ac:	6892      	ldr	r2, [r2, #8]
    77ae:	609a      	str	r2, [r3, #8]
    77b0:	9c01      	ldr	r4, [sp, #4]
    77b2:	0031      	movs	r1, r6
    77b4:	0020      	movs	r0, r4
    77b6:	f7fe fda5 	bl	6304 <_free_r>
    77ba:	0020      	movs	r0, r4
    77bc:	f7ff fc4e 	bl	705c <__malloc_unlock>
    77c0:	e01b      	b.n	77fa <_realloc_r+0xfe>
    77c2:	2107      	movs	r1, #7
    77c4:	438b      	bics	r3, r1
    77c6:	4698      	mov	r8, r3
    77c8:	d5b6      	bpl.n	7738 <_realloc_r+0x3c>
    77ca:	230c      	movs	r3, #12
    77cc:	9a01      	ldr	r2, [sp, #4]
    77ce:	2500      	movs	r5, #0
    77d0:	6013      	str	r3, [r2, #0]
    77d2:	e012      	b.n	77fa <_realloc_r+0xfe>
    77d4:	0035      	movs	r5, r6
    77d6:	4643      	mov	r3, r8
    77d8:	1ae3      	subs	r3, r4, r3
    77da:	2b0f      	cmp	r3, #15
    77dc:	d825      	bhi.n	782a <_realloc_r+0x12e>
    77de:	464b      	mov	r3, r9
    77e0:	2201      	movs	r2, #1
    77e2:	4649      	mov	r1, r9
    77e4:	685b      	ldr	r3, [r3, #4]
    77e6:	4013      	ands	r3, r2
    77e8:	4323      	orrs	r3, r4
    77ea:	604b      	str	r3, [r1, #4]
    77ec:	444c      	add	r4, r9
    77ee:	6863      	ldr	r3, [r4, #4]
    77f0:	431a      	orrs	r2, r3
    77f2:	6062      	str	r2, [r4, #4]
    77f4:	9801      	ldr	r0, [sp, #4]
    77f6:	f7ff fc31 	bl	705c <__malloc_unlock>
    77fa:	0028      	movs	r0, r5
    77fc:	b005      	add	sp, #20
    77fe:	bc3c      	pop	{r2, r3, r4, r5}
    7800:	4690      	mov	r8, r2
    7802:	4699      	mov	r9, r3
    7804:	46a2      	mov	sl, r4
    7806:	46ab      	mov	fp, r5
    7808:	bdf0      	pop	{r4, r5, r6, r7, pc}
    780a:	2103      	movs	r1, #3
    780c:	9803      	ldr	r0, [sp, #12]
    780e:	468c      	mov	ip, r1
    7810:	4388      	bics	r0, r1
    7812:	1821      	adds	r1, r4, r0
    7814:	468b      	mov	fp, r1
    7816:	4299      	cmp	r1, r3
    7818:	db21      	blt.n	785e <_realloc_r+0x162>
    781a:	9a02      	ldr	r2, [sp, #8]
    781c:	0035      	movs	r5, r6
    781e:	68d3      	ldr	r3, [r2, #12]
    7820:	6892      	ldr	r2, [r2, #8]
    7822:	465c      	mov	r4, fp
    7824:	60d3      	str	r3, [r2, #12]
    7826:	609a      	str	r2, [r3, #8]
    7828:	e7d5      	b.n	77d6 <_realloc_r+0xda>
    782a:	464a      	mov	r2, r9
    782c:	2001      	movs	r0, #1
    782e:	4646      	mov	r6, r8
    7830:	6852      	ldr	r2, [r2, #4]
    7832:	4649      	mov	r1, r9
    7834:	4002      	ands	r2, r0
    7836:	4332      	orrs	r2, r6
    7838:	464e      	mov	r6, r9
    783a:	4441      	add	r1, r8
    783c:	4303      	orrs	r3, r0
    783e:	6072      	str	r2, [r6, #4]
    7840:	444c      	add	r4, r9
    7842:	604b      	str	r3, [r1, #4]
    7844:	6863      	ldr	r3, [r4, #4]
    7846:	3108      	adds	r1, #8
    7848:	4318      	orrs	r0, r3
    784a:	6060      	str	r0, [r4, #4]
    784c:	9801      	ldr	r0, [sp, #4]
    784e:	f7fe fd59 	bl	6304 <_free_r>
    7852:	e7cf      	b.n	77f4 <_realloc_r+0xf8>
    7854:	0011      	movs	r1, r2
    7856:	f7ff f873 	bl	6940 <_malloc_r>
    785a:	0005      	movs	r5, r0
    785c:	e7cd      	b.n	77fa <_realloc_r+0xfe>
    785e:	4651      	mov	r1, sl
    7860:	4211      	tst	r1, r2
    7862:	d000      	beq.n	7866 <_realloc_r+0x16a>
    7864:	e786      	b.n	7774 <_realloc_r+0x78>
    7866:	4661      	mov	r1, ip
    7868:	683a      	ldr	r2, [r7, #0]
    786a:	1aba      	subs	r2, r7, r2
    786c:	4692      	mov	sl, r2
    786e:	6852      	ldr	r2, [r2, #4]
    7870:	438a      	bics	r2, r1
    7872:	1880      	adds	r0, r0, r2
    7874:	4683      	mov	fp, r0
    7876:	44a3      	add	fp, r4
    7878:	459b      	cmp	fp, r3
    787a:	db26      	blt.n	78ca <_realloc_r+0x1ce>
    787c:	9a02      	ldr	r2, [sp, #8]
    787e:	68d3      	ldr	r3, [r2, #12]
    7880:	6892      	ldr	r2, [r2, #8]
    7882:	60d3      	str	r3, [r2, #12]
    7884:	609a      	str	r2, [r3, #8]
    7886:	4653      	mov	r3, sl
    7888:	4652      	mov	r2, sl
    788a:	4655      	mov	r5, sl
    788c:	6892      	ldr	r2, [r2, #8]
    788e:	68db      	ldr	r3, [r3, #12]
    7890:	3508      	adds	r5, #8
    7892:	60d3      	str	r3, [r2, #12]
    7894:	609a      	str	r2, [r3, #8]
    7896:	1f22      	subs	r2, r4, #4
    7898:	2a24      	cmp	r2, #36	; 0x24
    789a:	d900      	bls.n	789e <_realloc_r+0x1a2>
    789c:	e096      	b.n	79cc <_realloc_r+0x2d0>
    789e:	2a13      	cmp	r2, #19
    78a0:	d972      	bls.n	7988 <_realloc_r+0x28c>
    78a2:	4653      	mov	r3, sl
    78a4:	6831      	ldr	r1, [r6, #0]
    78a6:	6099      	str	r1, [r3, #8]
    78a8:	6871      	ldr	r1, [r6, #4]
    78aa:	60d9      	str	r1, [r3, #12]
    78ac:	2a1b      	cmp	r2, #27
    78ae:	d900      	bls.n	78b2 <_realloc_r+0x1b6>
    78b0:	e0a4      	b.n	79fc <_realloc_r+0x300>
    78b2:	0032      	movs	r2, r6
    78b4:	3310      	adds	r3, #16
    78b6:	3208      	adds	r2, #8
    78b8:	e068      	b.n	798c <_realloc_r+0x290>
    78ba:	683a      	ldr	r2, [r7, #0]
    78bc:	1aba      	subs	r2, r7, r2
    78be:	4692      	mov	sl, r2
    78c0:	4651      	mov	r1, sl
    78c2:	2203      	movs	r2, #3
    78c4:	6849      	ldr	r1, [r1, #4]
    78c6:	4391      	bics	r1, r2
    78c8:	000a      	movs	r2, r1
    78ca:	4693      	mov	fp, r2
    78cc:	44a3      	add	fp, r4
    78ce:	459b      	cmp	fp, r3
    78d0:	da00      	bge.n	78d4 <_realloc_r+0x1d8>
    78d2:	e74f      	b.n	7774 <_realloc_r+0x78>
    78d4:	e7d7      	b.n	7886 <_realloc_r+0x18a>
    78d6:	2003      	movs	r0, #3
    78d8:	9902      	ldr	r1, [sp, #8]
    78da:	4684      	mov	ip, r0
    78dc:	6849      	ldr	r1, [r1, #4]
    78de:	4381      	bics	r1, r0
    78e0:	4640      	mov	r0, r8
    78e2:	1909      	adds	r1, r1, r4
    78e4:	3010      	adds	r0, #16
    78e6:	9002      	str	r0, [sp, #8]
    78e8:	4281      	cmp	r1, r0
    78ea:	da58      	bge.n	799e <_realloc_r+0x2a2>
    78ec:	07d2      	lsls	r2, r2, #31
    78ee:	d500      	bpl.n	78f2 <_realloc_r+0x1f6>
    78f0:	e740      	b.n	7774 <_realloc_r+0x78>
    78f2:	4660      	mov	r0, ip
    78f4:	683a      	ldr	r2, [r7, #0]
    78f6:	1aba      	subs	r2, r7, r2
    78f8:	4692      	mov	sl, r2
    78fa:	6852      	ldr	r2, [r2, #4]
    78fc:	4382      	bics	r2, r0
    78fe:	9802      	ldr	r0, [sp, #8]
    7900:	1851      	adds	r1, r2, r1
    7902:	9103      	str	r1, [sp, #12]
    7904:	4288      	cmp	r0, r1
    7906:	dce0      	bgt.n	78ca <_realloc_r+0x1ce>
    7908:	4653      	mov	r3, sl
    790a:	4652      	mov	r2, sl
    790c:	4655      	mov	r5, sl
    790e:	6892      	ldr	r2, [r2, #8]
    7910:	68db      	ldr	r3, [r3, #12]
    7912:	3508      	adds	r5, #8
    7914:	60d3      	str	r3, [r2, #12]
    7916:	609a      	str	r2, [r3, #8]
    7918:	1f22      	subs	r2, r4, #4
    791a:	2a24      	cmp	r2, #36	; 0x24
    791c:	d900      	bls.n	7920 <_realloc_r+0x224>
    791e:	e08e      	b.n	7a3e <_realloc_r+0x342>
    7920:	2a13      	cmp	r2, #19
    7922:	d800      	bhi.n	7926 <_realloc_r+0x22a>
    7924:	e088      	b.n	7a38 <_realloc_r+0x33c>
    7926:	4653      	mov	r3, sl
    7928:	6831      	ldr	r1, [r6, #0]
    792a:	6099      	str	r1, [r3, #8]
    792c:	6871      	ldr	r1, [r6, #4]
    792e:	60d9      	str	r1, [r3, #12]
    7930:	2a1b      	cmp	r2, #27
    7932:	d900      	bls.n	7936 <_realloc_r+0x23a>
    7934:	e088      	b.n	7a48 <_realloc_r+0x34c>
    7936:	0032      	movs	r2, r6
    7938:	3310      	adds	r3, #16
    793a:	3208      	adds	r2, #8
    793c:	6811      	ldr	r1, [r2, #0]
    793e:	6019      	str	r1, [r3, #0]
    7940:	6851      	ldr	r1, [r2, #4]
    7942:	6059      	str	r1, [r3, #4]
    7944:	6892      	ldr	r2, [r2, #8]
    7946:	609a      	str	r2, [r3, #8]
    7948:	4651      	mov	r1, sl
    794a:	465b      	mov	r3, fp
    794c:	4642      	mov	r2, r8
    794e:	4441      	add	r1, r8
    7950:	6099      	str	r1, [r3, #8]
    7952:	9b03      	ldr	r3, [sp, #12]
    7954:	9801      	ldr	r0, [sp, #4]
    7956:	1a9a      	subs	r2, r3, r2
    7958:	2301      	movs	r3, #1
    795a:	431a      	orrs	r2, r3
    795c:	604a      	str	r2, [r1, #4]
    795e:	4652      	mov	r2, sl
    7960:	6852      	ldr	r2, [r2, #4]
    7962:	4013      	ands	r3, r2
    7964:	4642      	mov	r2, r8
    7966:	4313      	orrs	r3, r2
    7968:	4652      	mov	r2, sl
    796a:	6053      	str	r3, [r2, #4]
    796c:	f7ff fb76 	bl	705c <__malloc_unlock>
    7970:	e743      	b.n	77fa <_realloc_r+0xfe>
    7972:	6833      	ldr	r3, [r6, #0]
    7974:	6003      	str	r3, [r0, #0]
    7976:	6873      	ldr	r3, [r6, #4]
    7978:	6043      	str	r3, [r0, #4]
    797a:	2a1b      	cmp	r2, #27
    797c:	d82d      	bhi.n	79da <_realloc_r+0x2de>
    797e:	0003      	movs	r3, r0
    7980:	0032      	movs	r2, r6
    7982:	3308      	adds	r3, #8
    7984:	3208      	adds	r2, #8
    7986:	e70d      	b.n	77a4 <_realloc_r+0xa8>
    7988:	002b      	movs	r3, r5
    798a:	0032      	movs	r2, r6
    798c:	6811      	ldr	r1, [r2, #0]
    798e:	465c      	mov	r4, fp
    7990:	6019      	str	r1, [r3, #0]
    7992:	6851      	ldr	r1, [r2, #4]
    7994:	46d1      	mov	r9, sl
    7996:	6059      	str	r1, [r3, #4]
    7998:	6892      	ldr	r2, [r2, #8]
    799a:	609a      	str	r2, [r3, #8]
    799c:	e71b      	b.n	77d6 <_realloc_r+0xda>
    799e:	4643      	mov	r3, r8
    79a0:	18fa      	adds	r2, r7, r3
    79a2:	465b      	mov	r3, fp
    79a4:	609a      	str	r2, [r3, #8]
    79a6:	4643      	mov	r3, r8
    79a8:	1ac9      	subs	r1, r1, r3
    79aa:	2301      	movs	r3, #1
    79ac:	4319      	orrs	r1, r3
    79ae:	6051      	str	r1, [r2, #4]
    79b0:	687a      	ldr	r2, [r7, #4]
    79b2:	9801      	ldr	r0, [sp, #4]
    79b4:	4013      	ands	r3, r2
    79b6:	4642      	mov	r2, r8
    79b8:	4313      	orrs	r3, r2
    79ba:	607b      	str	r3, [r7, #4]
    79bc:	f7ff fb4e 	bl	705c <__malloc_unlock>
    79c0:	0035      	movs	r5, r6
    79c2:	e71a      	b.n	77fa <_realloc_r+0xfe>
    79c4:	0031      	movs	r1, r6
    79c6:	f7ff faf1 	bl	6fac <memmove>
    79ca:	e6f1      	b.n	77b0 <_realloc_r+0xb4>
    79cc:	0031      	movs	r1, r6
    79ce:	0028      	movs	r0, r5
    79d0:	f7ff faec 	bl	6fac <memmove>
    79d4:	465c      	mov	r4, fp
    79d6:	46d1      	mov	r9, sl
    79d8:	e6fd      	b.n	77d6 <_realloc_r+0xda>
    79da:	68b3      	ldr	r3, [r6, #8]
    79dc:	6083      	str	r3, [r0, #8]
    79de:	68f3      	ldr	r3, [r6, #12]
    79e0:	60c3      	str	r3, [r0, #12]
    79e2:	2a24      	cmp	r2, #36	; 0x24
    79e4:	d015      	beq.n	7a12 <_realloc_r+0x316>
    79e6:	0003      	movs	r3, r0
    79e8:	0032      	movs	r2, r6
    79ea:	3310      	adds	r3, #16
    79ec:	3210      	adds	r2, #16
    79ee:	e6d9      	b.n	77a4 <_realloc_r+0xa8>
    79f0:	6853      	ldr	r3, [r2, #4]
    79f2:	2203      	movs	r2, #3
    79f4:	4393      	bics	r3, r2
    79f6:	18e4      	adds	r4, r4, r3
    79f8:	0035      	movs	r5, r6
    79fa:	e6ec      	b.n	77d6 <_realloc_r+0xda>
    79fc:	4653      	mov	r3, sl
    79fe:	68b1      	ldr	r1, [r6, #8]
    7a00:	6119      	str	r1, [r3, #16]
    7a02:	68f1      	ldr	r1, [r6, #12]
    7a04:	6159      	str	r1, [r3, #20]
    7a06:	2a24      	cmp	r2, #36	; 0x24
    7a08:	d00c      	beq.n	7a24 <_realloc_r+0x328>
    7a0a:	0032      	movs	r2, r6
    7a0c:	3318      	adds	r3, #24
    7a0e:	3210      	adds	r2, #16
    7a10:	e7bc      	b.n	798c <_realloc_r+0x290>
    7a12:	6933      	ldr	r3, [r6, #16]
    7a14:	0032      	movs	r2, r6
    7a16:	6103      	str	r3, [r0, #16]
    7a18:	0003      	movs	r3, r0
    7a1a:	6971      	ldr	r1, [r6, #20]
    7a1c:	3318      	adds	r3, #24
    7a1e:	3218      	adds	r2, #24
    7a20:	6141      	str	r1, [r0, #20]
    7a22:	e6bf      	b.n	77a4 <_realloc_r+0xa8>
    7a24:	4653      	mov	r3, sl
    7a26:	6932      	ldr	r2, [r6, #16]
    7a28:	4651      	mov	r1, sl
    7a2a:	619a      	str	r2, [r3, #24]
    7a2c:	0032      	movs	r2, r6
    7a2e:	6970      	ldr	r0, [r6, #20]
    7a30:	3320      	adds	r3, #32
    7a32:	3218      	adds	r2, #24
    7a34:	61c8      	str	r0, [r1, #28]
    7a36:	e7a9      	b.n	798c <_realloc_r+0x290>
    7a38:	002b      	movs	r3, r5
    7a3a:	0032      	movs	r2, r6
    7a3c:	e77e      	b.n	793c <_realloc_r+0x240>
    7a3e:	0031      	movs	r1, r6
    7a40:	0028      	movs	r0, r5
    7a42:	f7ff fab3 	bl	6fac <memmove>
    7a46:	e77f      	b.n	7948 <_realloc_r+0x24c>
    7a48:	4653      	mov	r3, sl
    7a4a:	68b1      	ldr	r1, [r6, #8]
    7a4c:	6119      	str	r1, [r3, #16]
    7a4e:	68f1      	ldr	r1, [r6, #12]
    7a50:	6159      	str	r1, [r3, #20]
    7a52:	2a24      	cmp	r2, #36	; 0x24
    7a54:	d003      	beq.n	7a5e <_realloc_r+0x362>
    7a56:	0032      	movs	r2, r6
    7a58:	3318      	adds	r3, #24
    7a5a:	3210      	adds	r2, #16
    7a5c:	e76e      	b.n	793c <_realloc_r+0x240>
    7a5e:	4653      	mov	r3, sl
    7a60:	6932      	ldr	r2, [r6, #16]
    7a62:	4651      	mov	r1, sl
    7a64:	619a      	str	r2, [r3, #24]
    7a66:	0032      	movs	r2, r6
    7a68:	6970      	ldr	r0, [r6, #20]
    7a6a:	3320      	adds	r3, #32
    7a6c:	3218      	adds	r2, #24
    7a6e:	61c8      	str	r0, [r1, #28]
    7a70:	e764      	b.n	793c <_realloc_r+0x240>
    7a72:	46c0      	nop			; (mov r8, r8)
    7a74:	20000434 	.word	0x20000434

00007a78 <_sbrk_r>:
    7a78:	2300      	movs	r3, #0
    7a7a:	b570      	push	{r4, r5, r6, lr}
    7a7c:	4c06      	ldr	r4, [pc, #24]	; (7a98 <_sbrk_r+0x20>)
    7a7e:	0005      	movs	r5, r0
    7a80:	0008      	movs	r0, r1
    7a82:	6023      	str	r3, [r4, #0]
    7a84:	f7f9 f82c 	bl	ae0 <_sbrk>
    7a88:	1c43      	adds	r3, r0, #1
    7a8a:	d000      	beq.n	7a8e <_sbrk_r+0x16>
    7a8c:	bd70      	pop	{r4, r5, r6, pc}
    7a8e:	6823      	ldr	r3, [r4, #0]
    7a90:	2b00      	cmp	r3, #0
    7a92:	d0fb      	beq.n	7a8c <_sbrk_r+0x14>
    7a94:	602b      	str	r3, [r5, #0]
    7a96:	e7f9      	b.n	7a8c <_sbrk_r+0x14>
    7a98:	20000a90 	.word	0x20000a90

00007a9c <__sread>:
    7a9c:	b570      	push	{r4, r5, r6, lr}
    7a9e:	000c      	movs	r4, r1
    7aa0:	250e      	movs	r5, #14
    7aa2:	5f49      	ldrsh	r1, [r1, r5]
    7aa4:	f000 faa0 	bl	7fe8 <_read_r>
    7aa8:	2800      	cmp	r0, #0
    7aaa:	db03      	blt.n	7ab4 <__sread+0x18>
    7aac:	6d23      	ldr	r3, [r4, #80]	; 0x50
    7aae:	181b      	adds	r3, r3, r0
    7ab0:	6523      	str	r3, [r4, #80]	; 0x50
    7ab2:	bd70      	pop	{r4, r5, r6, pc}
    7ab4:	89a3      	ldrh	r3, [r4, #12]
    7ab6:	4a02      	ldr	r2, [pc, #8]	; (7ac0 <__sread+0x24>)
    7ab8:	4013      	ands	r3, r2
    7aba:	81a3      	strh	r3, [r4, #12]
    7abc:	e7f9      	b.n	7ab2 <__sread+0x16>
    7abe:	46c0      	nop			; (mov r8, r8)
    7ac0:	ffffefff 	.word	0xffffefff

00007ac4 <__swrite>:
    7ac4:	b5f8      	push	{r3, r4, r5, r6, r7, lr}
    7ac6:	0016      	movs	r6, r2
    7ac8:	001f      	movs	r7, r3
    7aca:	220c      	movs	r2, #12
    7acc:	5e8b      	ldrsh	r3, [r1, r2]
    7ace:	0005      	movs	r5, r0
    7ad0:	000c      	movs	r4, r1
    7ad2:	05da      	lsls	r2, r3, #23
    7ad4:	d507      	bpl.n	7ae6 <__swrite+0x22>
    7ad6:	230e      	movs	r3, #14
    7ad8:	5ec9      	ldrsh	r1, [r1, r3]
    7ada:	2200      	movs	r2, #0
    7adc:	2302      	movs	r3, #2
    7ade:	f000 fa59 	bl	7f94 <_lseek_r>
    7ae2:	220c      	movs	r2, #12
    7ae4:	5ea3      	ldrsh	r3, [r4, r2]
    7ae6:	4a05      	ldr	r2, [pc, #20]	; (7afc <__swrite+0x38>)
    7ae8:	0028      	movs	r0, r5
    7aea:	4013      	ands	r3, r2
    7aec:	81a3      	strh	r3, [r4, #12]
    7aee:	0032      	movs	r2, r6
    7af0:	230e      	movs	r3, #14
    7af2:	5ee1      	ldrsh	r1, [r4, r3]
    7af4:	003b      	movs	r3, r7
    7af6:	f000 f86b 	bl	7bd0 <_write_r>
    7afa:	bdf8      	pop	{r3, r4, r5, r6, r7, pc}
    7afc:	ffffefff 	.word	0xffffefff

00007b00 <__sseek>:
    7b00:	b570      	push	{r4, r5, r6, lr}
    7b02:	000c      	movs	r4, r1
    7b04:	250e      	movs	r5, #14
    7b06:	5f49      	ldrsh	r1, [r1, r5]
    7b08:	f000 fa44 	bl	7f94 <_lseek_r>
    7b0c:	1c43      	adds	r3, r0, #1
    7b0e:	d006      	beq.n	7b1e <__sseek+0x1e>
    7b10:	2380      	movs	r3, #128	; 0x80
    7b12:	89a2      	ldrh	r2, [r4, #12]
    7b14:	015b      	lsls	r3, r3, #5
    7b16:	4313      	orrs	r3, r2
    7b18:	81a3      	strh	r3, [r4, #12]
    7b1a:	6520      	str	r0, [r4, #80]	; 0x50
    7b1c:	bd70      	pop	{r4, r5, r6, pc}
    7b1e:	89a3      	ldrh	r3, [r4, #12]
    7b20:	4a01      	ldr	r2, [pc, #4]	; (7b28 <__sseek+0x28>)
    7b22:	4013      	ands	r3, r2
    7b24:	81a3      	strh	r3, [r4, #12]
    7b26:	e7f9      	b.n	7b1c <__sseek+0x1c>
    7b28:	ffffefff 	.word	0xffffefff

00007b2c <__sclose>:
    7b2c:	b510      	push	{r4, lr}
    7b2e:	230e      	movs	r3, #14
    7b30:	5ec9      	ldrsh	r1, [r1, r3]
    7b32:	f000 f907 	bl	7d44 <_close_r>
    7b36:	bd10      	pop	{r4, pc}

00007b38 <__sprint_r.part.0>:
    7b38:	b5f8      	push	{r3, r4, r5, r6, r7, lr}
    7b3a:	464e      	mov	r6, r9
    7b3c:	4645      	mov	r5, r8
    7b3e:	46de      	mov	lr, fp
    7b40:	4657      	mov	r7, sl
    7b42:	6e4b      	ldr	r3, [r1, #100]	; 0x64
    7b44:	b5e0      	push	{r5, r6, r7, lr}
    7b46:	4680      	mov	r8, r0
    7b48:	000e      	movs	r6, r1
    7b4a:	4691      	mov	r9, r2
    7b4c:	049b      	lsls	r3, r3, #18
    7b4e:	d531      	bpl.n	7bb4 <__sprint_r.part.0+0x7c>
    7b50:	6813      	ldr	r3, [r2, #0]
    7b52:	469a      	mov	sl, r3
    7b54:	6893      	ldr	r3, [r2, #8]
    7b56:	2b00      	cmp	r3, #0
    7b58:	d02a      	beq.n	7bb0 <__sprint_r.part.0+0x78>
    7b5a:	4652      	mov	r2, sl
    7b5c:	6852      	ldr	r2, [r2, #4]
    7b5e:	2500      	movs	r5, #0
    7b60:	4693      	mov	fp, r2
    7b62:	0897      	lsrs	r7, r2, #2
    7b64:	4652      	mov	r2, sl
    7b66:	6814      	ldr	r4, [r2, #0]
    7b68:	d104      	bne.n	7b74 <__sprint_r.part.0+0x3c>
    7b6a:	e016      	b.n	7b9a <__sprint_r.part.0+0x62>
    7b6c:	3501      	adds	r5, #1
    7b6e:	3404      	adds	r4, #4
    7b70:	42af      	cmp	r7, r5
    7b72:	d010      	beq.n	7b96 <__sprint_r.part.0+0x5e>
    7b74:	0032      	movs	r2, r6
    7b76:	6821      	ldr	r1, [r4, #0]
    7b78:	4640      	mov	r0, r8
    7b7a:	f000 f9a7 	bl	7ecc <_fputwc_r>
    7b7e:	1c43      	adds	r3, r0, #1
    7b80:	d1f4      	bne.n	7b6c <__sprint_r.part.0+0x34>
    7b82:	464a      	mov	r2, r9
    7b84:	2300      	movs	r3, #0
    7b86:	6093      	str	r3, [r2, #8]
    7b88:	6053      	str	r3, [r2, #4]
    7b8a:	bc3c      	pop	{r2, r3, r4, r5}
    7b8c:	4690      	mov	r8, r2
    7b8e:	4699      	mov	r9, r3
    7b90:	46a2      	mov	sl, r4
    7b92:	46ab      	mov	fp, r5
    7b94:	bdf8      	pop	{r3, r4, r5, r6, r7, pc}
    7b96:	464b      	mov	r3, r9
    7b98:	689b      	ldr	r3, [r3, #8]
    7b9a:	465a      	mov	r2, fp
    7b9c:	2103      	movs	r1, #3
    7b9e:	438a      	bics	r2, r1
    7ba0:	1a9b      	subs	r3, r3, r2
    7ba2:	464a      	mov	r2, r9
    7ba4:	6093      	str	r3, [r2, #8]
    7ba6:	2208      	movs	r2, #8
    7ba8:	4694      	mov	ip, r2
    7baa:	44e2      	add	sl, ip
    7bac:	2b00      	cmp	r3, #0
    7bae:	d1d4      	bne.n	7b5a <__sprint_r.part.0+0x22>
    7bb0:	2000      	movs	r0, #0
    7bb2:	e7e6      	b.n	7b82 <__sprint_r.part.0+0x4a>
    7bb4:	f7fe fc84 	bl	64c0 <__sfvwrite_r>
    7bb8:	e7e3      	b.n	7b82 <__sprint_r.part.0+0x4a>
    7bba:	46c0      	nop			; (mov r8, r8)

00007bbc <__sprint_r>:
    7bbc:	6893      	ldr	r3, [r2, #8]
    7bbe:	b510      	push	{r4, lr}
    7bc0:	2b00      	cmp	r3, #0
    7bc2:	d002      	beq.n	7bca <__sprint_r+0xe>
    7bc4:	f7ff ffb8 	bl	7b38 <__sprint_r.part.0>
    7bc8:	bd10      	pop	{r4, pc}
    7bca:	6053      	str	r3, [r2, #4]
    7bcc:	2000      	movs	r0, #0
    7bce:	e7fb      	b.n	7bc8 <__sprint_r+0xc>

00007bd0 <_write_r>:
    7bd0:	b570      	push	{r4, r5, r6, lr}
    7bd2:	0005      	movs	r5, r0
    7bd4:	0008      	movs	r0, r1
    7bd6:	0011      	movs	r1, r2
    7bd8:	2200      	movs	r2, #0
    7bda:	4c06      	ldr	r4, [pc, #24]	; (7bf4 <_write_r+0x24>)
    7bdc:	6022      	str	r2, [r4, #0]
    7bde:	001a      	movs	r2, r3
    7be0:	f7f9 fcf2 	bl	15c8 <_write>
    7be4:	1c43      	adds	r3, r0, #1
    7be6:	d000      	beq.n	7bea <_write_r+0x1a>
    7be8:	bd70      	pop	{r4, r5, r6, pc}
    7bea:	6823      	ldr	r3, [r4, #0]
    7bec:	2b00      	cmp	r3, #0
    7bee:	d0fb      	beq.n	7be8 <_write_r+0x18>
    7bf0:	602b      	str	r3, [r5, #0]
    7bf2:	e7f9      	b.n	7be8 <_write_r+0x18>
    7bf4:	20000a90 	.word	0x20000a90

00007bf8 <__register_exitproc>:
    7bf8:	b5f0      	push	{r4, r5, r6, r7, lr}
    7bfa:	464e      	mov	r6, r9
    7bfc:	4645      	mov	r5, r8
    7bfe:	46de      	mov	lr, fp
    7c00:	4657      	mov	r7, sl
    7c02:	b5e0      	push	{r5, r6, r7, lr}
    7c04:	4d36      	ldr	r5, [pc, #216]	; (7ce0 <__register_exitproc+0xe8>)
    7c06:	b083      	sub	sp, #12
    7c08:	0006      	movs	r6, r0
    7c0a:	6828      	ldr	r0, [r5, #0]
    7c0c:	4698      	mov	r8, r3
    7c0e:	000f      	movs	r7, r1
    7c10:	4691      	mov	r9, r2
    7c12:	f7fe fe0f 	bl	6834 <__retarget_lock_acquire_recursive>
    7c16:	4b33      	ldr	r3, [pc, #204]	; (7ce4 <__register_exitproc+0xec>)
    7c18:	681c      	ldr	r4, [r3, #0]
    7c1a:	23a4      	movs	r3, #164	; 0xa4
    7c1c:	005b      	lsls	r3, r3, #1
    7c1e:	58e0      	ldr	r0, [r4, r3]
    7c20:	2800      	cmp	r0, #0
    7c22:	d052      	beq.n	7cca <__register_exitproc+0xd2>
    7c24:	6843      	ldr	r3, [r0, #4]
    7c26:	2b1f      	cmp	r3, #31
    7c28:	dc13      	bgt.n	7c52 <__register_exitproc+0x5a>
    7c2a:	1c5a      	adds	r2, r3, #1
    7c2c:	9201      	str	r2, [sp, #4]
    7c2e:	2e00      	cmp	r6, #0
    7c30:	d128      	bne.n	7c84 <__register_exitproc+0x8c>
    7c32:	9a01      	ldr	r2, [sp, #4]
    7c34:	3302      	adds	r3, #2
    7c36:	009b      	lsls	r3, r3, #2
    7c38:	6042      	str	r2, [r0, #4]
    7c3a:	501f      	str	r7, [r3, r0]
    7c3c:	6828      	ldr	r0, [r5, #0]
    7c3e:	f7fe fdfb 	bl	6838 <__retarget_lock_release_recursive>
    7c42:	2000      	movs	r0, #0
    7c44:	b003      	add	sp, #12
    7c46:	bc3c      	pop	{r2, r3, r4, r5}
    7c48:	4690      	mov	r8, r2
    7c4a:	4699      	mov	r9, r3
    7c4c:	46a2      	mov	sl, r4
    7c4e:	46ab      	mov	fp, r5
    7c50:	bdf0      	pop	{r4, r5, r6, r7, pc}
    7c52:	4b25      	ldr	r3, [pc, #148]	; (7ce8 <__register_exitproc+0xf0>)
    7c54:	2b00      	cmp	r3, #0
    7c56:	d03d      	beq.n	7cd4 <__register_exitproc+0xdc>
    7c58:	20c8      	movs	r0, #200	; 0xc8
    7c5a:	0040      	lsls	r0, r0, #1
    7c5c:	f7fe fe66 	bl	692c <malloc>
    7c60:	2800      	cmp	r0, #0
    7c62:	d037      	beq.n	7cd4 <__register_exitproc+0xdc>
    7c64:	22a4      	movs	r2, #164	; 0xa4
    7c66:	2300      	movs	r3, #0
    7c68:	0052      	lsls	r2, r2, #1
    7c6a:	58a1      	ldr	r1, [r4, r2]
    7c6c:	6043      	str	r3, [r0, #4]
    7c6e:	6001      	str	r1, [r0, #0]
    7c70:	50a0      	str	r0, [r4, r2]
    7c72:	3240      	adds	r2, #64	; 0x40
    7c74:	5083      	str	r3, [r0, r2]
    7c76:	3204      	adds	r2, #4
    7c78:	5083      	str	r3, [r0, r2]
    7c7a:	3301      	adds	r3, #1
    7c7c:	9301      	str	r3, [sp, #4]
    7c7e:	2300      	movs	r3, #0
    7c80:	2e00      	cmp	r6, #0
    7c82:	d0d6      	beq.n	7c32 <__register_exitproc+0x3a>
    7c84:	009a      	lsls	r2, r3, #2
    7c86:	4692      	mov	sl, r2
    7c88:	4482      	add	sl, r0
    7c8a:	464a      	mov	r2, r9
    7c8c:	2188      	movs	r1, #136	; 0x88
    7c8e:	4654      	mov	r4, sl
    7c90:	5062      	str	r2, [r4, r1]
    7c92:	22c4      	movs	r2, #196	; 0xc4
    7c94:	0052      	lsls	r2, r2, #1
    7c96:	4691      	mov	r9, r2
    7c98:	4481      	add	r9, r0
    7c9a:	464a      	mov	r2, r9
    7c9c:	3987      	subs	r1, #135	; 0x87
    7c9e:	4099      	lsls	r1, r3
    7ca0:	6812      	ldr	r2, [r2, #0]
    7ca2:	468b      	mov	fp, r1
    7ca4:	430a      	orrs	r2, r1
    7ca6:	4694      	mov	ip, r2
    7ca8:	464a      	mov	r2, r9
    7caa:	4661      	mov	r1, ip
    7cac:	6011      	str	r1, [r2, #0]
    7cae:	2284      	movs	r2, #132	; 0x84
    7cb0:	4641      	mov	r1, r8
    7cb2:	0052      	lsls	r2, r2, #1
    7cb4:	50a1      	str	r1, [r4, r2]
    7cb6:	2e02      	cmp	r6, #2
    7cb8:	d1bb      	bne.n	7c32 <__register_exitproc+0x3a>
    7cba:	0002      	movs	r2, r0
    7cbc:	465c      	mov	r4, fp
    7cbe:	328d      	adds	r2, #141	; 0x8d
    7cc0:	32ff      	adds	r2, #255	; 0xff
    7cc2:	6811      	ldr	r1, [r2, #0]
    7cc4:	430c      	orrs	r4, r1
    7cc6:	6014      	str	r4, [r2, #0]
    7cc8:	e7b3      	b.n	7c32 <__register_exitproc+0x3a>
    7cca:	0020      	movs	r0, r4
    7ccc:	304d      	adds	r0, #77	; 0x4d
    7cce:	30ff      	adds	r0, #255	; 0xff
    7cd0:	50e0      	str	r0, [r4, r3]
    7cd2:	e7a7      	b.n	7c24 <__register_exitproc+0x2c>
    7cd4:	6828      	ldr	r0, [r5, #0]
    7cd6:	f7fe fdaf 	bl	6838 <__retarget_lock_release_recursive>
    7cda:	2001      	movs	r0, #1
    7cdc:	4240      	negs	r0, r0
    7cde:	e7b1      	b.n	7c44 <__register_exitproc+0x4c>
    7ce0:	20000430 	.word	0x20000430
    7ce4:	000089c4 	.word	0x000089c4
    7ce8:	0000692d 	.word	0x0000692d

00007cec <_calloc_r>:
    7cec:	b510      	push	{r4, lr}
    7cee:	4351      	muls	r1, r2
    7cf0:	f7fe fe26 	bl	6940 <_malloc_r>
    7cf4:	1e04      	subs	r4, r0, #0
    7cf6:	d01c      	beq.n	7d32 <_calloc_r+0x46>
    7cf8:	0003      	movs	r3, r0
    7cfa:	3b08      	subs	r3, #8
    7cfc:	685a      	ldr	r2, [r3, #4]
    7cfe:	2303      	movs	r3, #3
    7d00:	439a      	bics	r2, r3
    7d02:	3a04      	subs	r2, #4
    7d04:	2a24      	cmp	r2, #36	; 0x24
    7d06:	d816      	bhi.n	7d36 <_calloc_r+0x4a>
    7d08:	0003      	movs	r3, r0
    7d0a:	2a13      	cmp	r2, #19
    7d0c:	d90d      	bls.n	7d2a <_calloc_r+0x3e>
    7d0e:	2100      	movs	r1, #0
    7d10:	3308      	adds	r3, #8
    7d12:	6001      	str	r1, [r0, #0]
    7d14:	6041      	str	r1, [r0, #4]
    7d16:	2a1b      	cmp	r2, #27
    7d18:	d907      	bls.n	7d2a <_calloc_r+0x3e>
    7d1a:	6081      	str	r1, [r0, #8]
    7d1c:	60c1      	str	r1, [r0, #12]
    7d1e:	2a24      	cmp	r2, #36	; 0x24
    7d20:	d10d      	bne.n	7d3e <_calloc_r+0x52>
    7d22:	0003      	movs	r3, r0
    7d24:	6101      	str	r1, [r0, #16]
    7d26:	3318      	adds	r3, #24
    7d28:	6141      	str	r1, [r0, #20]
    7d2a:	2200      	movs	r2, #0
    7d2c:	601a      	str	r2, [r3, #0]
    7d2e:	605a      	str	r2, [r3, #4]
    7d30:	609a      	str	r2, [r3, #8]
    7d32:	0020      	movs	r0, r4
    7d34:	bd10      	pop	{r4, pc}
    7d36:	2100      	movs	r1, #0
    7d38:	f7fb fada 	bl	32f0 <memset>
    7d3c:	e7f9      	b.n	7d32 <_calloc_r+0x46>
    7d3e:	0003      	movs	r3, r0
    7d40:	3310      	adds	r3, #16
    7d42:	e7f2      	b.n	7d2a <_calloc_r+0x3e>

00007d44 <_close_r>:
    7d44:	2300      	movs	r3, #0
    7d46:	b570      	push	{r4, r5, r6, lr}
    7d48:	4c06      	ldr	r4, [pc, #24]	; (7d64 <_close_r+0x20>)
    7d4a:	0005      	movs	r5, r0
    7d4c:	0008      	movs	r0, r1
    7d4e:	6023      	str	r3, [r4, #0]
    7d50:	f7f8 fed8 	bl	b04 <_close>
    7d54:	1c43      	adds	r3, r0, #1
    7d56:	d000      	beq.n	7d5a <_close_r+0x16>
    7d58:	bd70      	pop	{r4, r5, r6, pc}
    7d5a:	6823      	ldr	r3, [r4, #0]
    7d5c:	2b00      	cmp	r3, #0
    7d5e:	d0fb      	beq.n	7d58 <_close_r+0x14>
    7d60:	602b      	str	r3, [r5, #0]
    7d62:	e7f9      	b.n	7d58 <_close_r+0x14>
    7d64:	20000a90 	.word	0x20000a90

00007d68 <_fclose_r>:
    7d68:	b570      	push	{r4, r5, r6, lr}
    7d6a:	0005      	movs	r5, r0
    7d6c:	1e0c      	subs	r4, r1, #0
    7d6e:	d040      	beq.n	7df2 <_fclose_r+0x8a>
    7d70:	2800      	cmp	r0, #0
    7d72:	d002      	beq.n	7d7a <_fclose_r+0x12>
    7d74:	6b83      	ldr	r3, [r0, #56]	; 0x38
    7d76:	2b00      	cmp	r3, #0
    7d78:	d03e      	beq.n	7df8 <_fclose_r+0x90>
    7d7a:	2601      	movs	r6, #1
    7d7c:	6e63      	ldr	r3, [r4, #100]	; 0x64
    7d7e:	4233      	tst	r3, r6
    7d80:	d133      	bne.n	7dea <_fclose_r+0x82>
    7d82:	89a3      	ldrh	r3, [r4, #12]
    7d84:	059b      	lsls	r3, r3, #22
    7d86:	d543      	bpl.n	7e10 <_fclose_r+0xa8>
    7d88:	0021      	movs	r1, r4
    7d8a:	0028      	movs	r0, r5
    7d8c:	f7fe f90e 	bl	5fac <__sflush_r>
    7d90:	6ae3      	ldr	r3, [r4, #44]	; 0x2c
    7d92:	0006      	movs	r6, r0
    7d94:	2b00      	cmp	r3, #0
    7d96:	d004      	beq.n	7da2 <_fclose_r+0x3a>
    7d98:	69e1      	ldr	r1, [r4, #28]
    7d9a:	0028      	movs	r0, r5
    7d9c:	4798      	blx	r3
    7d9e:	2800      	cmp	r0, #0
    7da0:	db44      	blt.n	7e2c <_fclose_r+0xc4>
    7da2:	89a3      	ldrh	r3, [r4, #12]
    7da4:	061b      	lsls	r3, r3, #24
    7da6:	d42a      	bmi.n	7dfe <_fclose_r+0x96>
    7da8:	6b21      	ldr	r1, [r4, #48]	; 0x30
    7daa:	2900      	cmp	r1, #0
    7dac:	d008      	beq.n	7dc0 <_fclose_r+0x58>
    7dae:	0023      	movs	r3, r4
    7db0:	3340      	adds	r3, #64	; 0x40
    7db2:	4299      	cmp	r1, r3
    7db4:	d002      	beq.n	7dbc <_fclose_r+0x54>
    7db6:	0028      	movs	r0, r5
    7db8:	f7fe faa4 	bl	6304 <_free_r>
    7dbc:	2300      	movs	r3, #0
    7dbe:	6323      	str	r3, [r4, #48]	; 0x30
    7dc0:	6c61      	ldr	r1, [r4, #68]	; 0x44
    7dc2:	2900      	cmp	r1, #0
    7dc4:	d004      	beq.n	7dd0 <_fclose_r+0x68>
    7dc6:	0028      	movs	r0, r5
    7dc8:	f7fe fa9c 	bl	6304 <_free_r>
    7dcc:	2300      	movs	r3, #0
    7dce:	6463      	str	r3, [r4, #68]	; 0x44
    7dd0:	f7fe fa1e 	bl	6210 <__sfp_lock_acquire>
    7dd4:	2300      	movs	r3, #0
    7dd6:	81a3      	strh	r3, [r4, #12]
    7dd8:	6e63      	ldr	r3, [r4, #100]	; 0x64
    7dda:	07db      	lsls	r3, r3, #31
    7ddc:	d514      	bpl.n	7e08 <_fclose_r+0xa0>
    7dde:	6da0      	ldr	r0, [r4, #88]	; 0x58
    7de0:	f7fe fd26 	bl	6830 <__retarget_lock_close_recursive>
    7de4:	f7fe fa1c 	bl	6220 <__sfp_lock_release>
    7de8:	e004      	b.n	7df4 <_fclose_r+0x8c>
    7dea:	220c      	movs	r2, #12
    7dec:	5ea3      	ldrsh	r3, [r4, r2]
    7dee:	2b00      	cmp	r3, #0
    7df0:	d1ca      	bne.n	7d88 <_fclose_r+0x20>
    7df2:	2600      	movs	r6, #0
    7df4:	0030      	movs	r0, r6
    7df6:	bd70      	pop	{r4, r5, r6, pc}
    7df8:	f7fe f9da 	bl	61b0 <__sinit>
    7dfc:	e7bd      	b.n	7d7a <_fclose_r+0x12>
    7dfe:	6921      	ldr	r1, [r4, #16]
    7e00:	0028      	movs	r0, r5
    7e02:	f7fe fa7f 	bl	6304 <_free_r>
    7e06:	e7cf      	b.n	7da8 <_fclose_r+0x40>
    7e08:	6da0      	ldr	r0, [r4, #88]	; 0x58
    7e0a:	f7fe fd15 	bl	6838 <__retarget_lock_release_recursive>
    7e0e:	e7e6      	b.n	7dde <_fclose_r+0x76>
    7e10:	6da0      	ldr	r0, [r4, #88]	; 0x58
    7e12:	f7fe fd0f 	bl	6834 <__retarget_lock_acquire_recursive>
    7e16:	220c      	movs	r2, #12
    7e18:	5ea3      	ldrsh	r3, [r4, r2]
    7e1a:	2b00      	cmp	r3, #0
    7e1c:	d1b4      	bne.n	7d88 <_fclose_r+0x20>
    7e1e:	6e63      	ldr	r3, [r4, #100]	; 0x64
    7e20:	401e      	ands	r6, r3
    7e22:	d1e6      	bne.n	7df2 <_fclose_r+0x8a>
    7e24:	6da0      	ldr	r0, [r4, #88]	; 0x58
    7e26:	f7fe fd07 	bl	6838 <__retarget_lock_release_recursive>
    7e2a:	e7e3      	b.n	7df4 <_fclose_r+0x8c>
    7e2c:	2601      	movs	r6, #1
    7e2e:	4276      	negs	r6, r6
    7e30:	e7b7      	b.n	7da2 <_fclose_r+0x3a>
    7e32:	46c0      	nop			; (mov r8, r8)

00007e34 <__fputwc>:
    7e34:	b5f0      	push	{r4, r5, r6, r7, lr}
    7e36:	46ce      	mov	lr, r9
    7e38:	4647      	mov	r7, r8
    7e3a:	b580      	push	{r7, lr}
    7e3c:	b085      	sub	sp, #20
    7e3e:	4680      	mov	r8, r0
    7e40:	4689      	mov	r9, r1
    7e42:	0014      	movs	r4, r2
    7e44:	f000 f896 	bl	7f74 <__locale_mb_cur_max>
    7e48:	2801      	cmp	r0, #1
    7e4a:	d031      	beq.n	7eb0 <__fputwc+0x7c>
    7e4c:	0023      	movs	r3, r4
    7e4e:	af03      	add	r7, sp, #12
    7e50:	335c      	adds	r3, #92	; 0x5c
    7e52:	464a      	mov	r2, r9
    7e54:	0039      	movs	r1, r7
    7e56:	4640      	mov	r0, r8
    7e58:	f000 f938 	bl	80cc <_wcrtomb_r>
    7e5c:	0006      	movs	r6, r0
    7e5e:	1c43      	adds	r3, r0, #1
    7e60:	d021      	beq.n	7ea6 <__fputwc+0x72>
    7e62:	2800      	cmp	r0, #0
    7e64:	d030      	beq.n	7ec8 <__fputwc+0x94>
    7e66:	7839      	ldrb	r1, [r7, #0]
    7e68:	2500      	movs	r5, #0
    7e6a:	e007      	b.n	7e7c <__fputwc+0x48>
    7e6c:	6823      	ldr	r3, [r4, #0]
    7e6e:	1c5a      	adds	r2, r3, #1
    7e70:	6022      	str	r2, [r4, #0]
    7e72:	7019      	strb	r1, [r3, #0]
    7e74:	3501      	adds	r5, #1
    7e76:	42b5      	cmp	r5, r6
    7e78:	d226      	bcs.n	7ec8 <__fputwc+0x94>
    7e7a:	5d79      	ldrb	r1, [r7, r5]
    7e7c:	68a3      	ldr	r3, [r4, #8]
    7e7e:	3b01      	subs	r3, #1
    7e80:	60a3      	str	r3, [r4, #8]
    7e82:	2b00      	cmp	r3, #0
    7e84:	daf2      	bge.n	7e6c <__fputwc+0x38>
    7e86:	69a2      	ldr	r2, [r4, #24]
    7e88:	4293      	cmp	r3, r2
    7e8a:	db01      	blt.n	7e90 <__fputwc+0x5c>
    7e8c:	290a      	cmp	r1, #10
    7e8e:	d1ed      	bne.n	7e6c <__fputwc+0x38>
    7e90:	0022      	movs	r2, r4
    7e92:	4640      	mov	r0, r8
    7e94:	f000 f8bc 	bl	8010 <__swbuf_r>
    7e98:	1c43      	adds	r3, r0, #1
    7e9a:	d1eb      	bne.n	7e74 <__fputwc+0x40>
    7e9c:	b005      	add	sp, #20
    7e9e:	bc0c      	pop	{r2, r3}
    7ea0:	4690      	mov	r8, r2
    7ea2:	4699      	mov	r9, r3
    7ea4:	bdf0      	pop	{r4, r5, r6, r7, pc}
    7ea6:	2240      	movs	r2, #64	; 0x40
    7ea8:	89a3      	ldrh	r3, [r4, #12]
    7eaa:	4313      	orrs	r3, r2
    7eac:	81a3      	strh	r3, [r4, #12]
    7eae:	e7f5      	b.n	7e9c <__fputwc+0x68>
    7eb0:	464b      	mov	r3, r9
    7eb2:	3b01      	subs	r3, #1
    7eb4:	2bfe      	cmp	r3, #254	; 0xfe
    7eb6:	d8c9      	bhi.n	7e4c <__fputwc+0x18>
    7eb8:	466a      	mov	r2, sp
    7eba:	464b      	mov	r3, r9
    7ebc:	71d3      	strb	r3, [r2, #7]
    7ebe:	79d1      	ldrb	r1, [r2, #7]
    7ec0:	af03      	add	r7, sp, #12
    7ec2:	7039      	strb	r1, [r7, #0]
    7ec4:	2601      	movs	r6, #1
    7ec6:	e7cf      	b.n	7e68 <__fputwc+0x34>
    7ec8:	4648      	mov	r0, r9
    7eca:	e7e7      	b.n	7e9c <__fputwc+0x68>

00007ecc <_fputwc_r>:
    7ecc:	6e53      	ldr	r3, [r2, #100]	; 0x64
    7ece:	b570      	push	{r4, r5, r6, lr}
    7ed0:	0005      	movs	r5, r0
    7ed2:	000e      	movs	r6, r1
    7ed4:	0014      	movs	r4, r2
    7ed6:	07db      	lsls	r3, r3, #31
    7ed8:	d41e      	bmi.n	7f18 <_fputwc_r+0x4c>
    7eda:	230c      	movs	r3, #12
    7edc:	5ed2      	ldrsh	r2, [r2, r3]
    7ede:	b291      	uxth	r1, r2
    7ee0:	058b      	lsls	r3, r1, #22
    7ee2:	d516      	bpl.n	7f12 <_fputwc_r+0x46>
    7ee4:	2380      	movs	r3, #128	; 0x80
    7ee6:	019b      	lsls	r3, r3, #6
    7ee8:	4219      	tst	r1, r3
    7eea:	d104      	bne.n	7ef6 <_fputwc_r+0x2a>
    7eec:	431a      	orrs	r2, r3
    7eee:	81a2      	strh	r2, [r4, #12]
    7ef0:	6e62      	ldr	r2, [r4, #100]	; 0x64
    7ef2:	4313      	orrs	r3, r2
    7ef4:	6663      	str	r3, [r4, #100]	; 0x64
    7ef6:	0028      	movs	r0, r5
    7ef8:	0022      	movs	r2, r4
    7efa:	0031      	movs	r1, r6
    7efc:	f7ff ff9a 	bl	7e34 <__fputwc>
    7f00:	6e63      	ldr	r3, [r4, #100]	; 0x64
    7f02:	0005      	movs	r5, r0
    7f04:	07db      	lsls	r3, r3, #31
    7f06:	d402      	bmi.n	7f0e <_fputwc_r+0x42>
    7f08:	89a3      	ldrh	r3, [r4, #12]
    7f0a:	059b      	lsls	r3, r3, #22
    7f0c:	d508      	bpl.n	7f20 <_fputwc_r+0x54>
    7f0e:	0028      	movs	r0, r5
    7f10:	bd70      	pop	{r4, r5, r6, pc}
    7f12:	6da0      	ldr	r0, [r4, #88]	; 0x58
    7f14:	f7fe fc8e 	bl	6834 <__retarget_lock_acquire_recursive>
    7f18:	230c      	movs	r3, #12
    7f1a:	5ee2      	ldrsh	r2, [r4, r3]
    7f1c:	b291      	uxth	r1, r2
    7f1e:	e7e1      	b.n	7ee4 <_fputwc_r+0x18>
    7f20:	6da0      	ldr	r0, [r4, #88]	; 0x58
    7f22:	f7fe fc89 	bl	6838 <__retarget_lock_release_recursive>
    7f26:	e7f2      	b.n	7f0e <_fputwc_r+0x42>

00007f28 <_fstat_r>:
    7f28:	2300      	movs	r3, #0
    7f2a:	b570      	push	{r4, r5, r6, lr}
    7f2c:	4c07      	ldr	r4, [pc, #28]	; (7f4c <_fstat_r+0x24>)
    7f2e:	0005      	movs	r5, r0
    7f30:	0008      	movs	r0, r1
    7f32:	0011      	movs	r1, r2
    7f34:	6023      	str	r3, [r4, #0]
    7f36:	f7f8 fde8 	bl	b0a <_fstat>
    7f3a:	1c43      	adds	r3, r0, #1
    7f3c:	d000      	beq.n	7f40 <_fstat_r+0x18>
    7f3e:	bd70      	pop	{r4, r5, r6, pc}
    7f40:	6823      	ldr	r3, [r4, #0]
    7f42:	2b00      	cmp	r3, #0
    7f44:	d0fb      	beq.n	7f3e <_fstat_r+0x16>
    7f46:	602b      	str	r3, [r5, #0]
    7f48:	e7f9      	b.n	7f3e <_fstat_r+0x16>
    7f4a:	46c0      	nop			; (mov r8, r8)
    7f4c:	20000a90 	.word	0x20000a90

00007f50 <_isatty_r>:
    7f50:	2300      	movs	r3, #0
    7f52:	b570      	push	{r4, r5, r6, lr}
    7f54:	4c06      	ldr	r4, [pc, #24]	; (7f70 <_isatty_r+0x20>)
    7f56:	0005      	movs	r5, r0
    7f58:	0008      	movs	r0, r1
    7f5a:	6023      	str	r3, [r4, #0]
    7f5c:	f7f8 fdda 	bl	b14 <_isatty>
    7f60:	1c43      	adds	r3, r0, #1
    7f62:	d000      	beq.n	7f66 <_isatty_r+0x16>
    7f64:	bd70      	pop	{r4, r5, r6, pc}
    7f66:	6823      	ldr	r3, [r4, #0]
    7f68:	2b00      	cmp	r3, #0
    7f6a:	d0fb      	beq.n	7f64 <_isatty_r+0x14>
    7f6c:	602b      	str	r3, [r5, #0]
    7f6e:	e7f9      	b.n	7f64 <_isatty_r+0x14>
    7f70:	20000a90 	.word	0x20000a90

00007f74 <__locale_mb_cur_max>:
    7f74:	4b05      	ldr	r3, [pc, #20]	; (7f8c <__locale_mb_cur_max+0x18>)
    7f76:	681b      	ldr	r3, [r3, #0]
    7f78:	6b5b      	ldr	r3, [r3, #52]	; 0x34
    7f7a:	2b00      	cmp	r3, #0
    7f7c:	d003      	beq.n	7f86 <__locale_mb_cur_max+0x12>
    7f7e:	2294      	movs	r2, #148	; 0x94
    7f80:	0052      	lsls	r2, r2, #1
    7f82:	5c98      	ldrb	r0, [r3, r2]
    7f84:	4770      	bx	lr
    7f86:	4b02      	ldr	r3, [pc, #8]	; (7f90 <__locale_mb_cur_max+0x1c>)
    7f88:	e7f9      	b.n	7f7e <__locale_mb_cur_max+0xa>
    7f8a:	46c0      	nop			; (mov r8, r8)
    7f8c:	20000000 	.word	0x20000000
    7f90:	20000844 	.word	0x20000844

00007f94 <_lseek_r>:
    7f94:	b570      	push	{r4, r5, r6, lr}
    7f96:	0005      	movs	r5, r0
    7f98:	0008      	movs	r0, r1
    7f9a:	0011      	movs	r1, r2
    7f9c:	2200      	movs	r2, #0
    7f9e:	4c06      	ldr	r4, [pc, #24]	; (7fb8 <_lseek_r+0x24>)
    7fa0:	6022      	str	r2, [r4, #0]
    7fa2:	001a      	movs	r2, r3
    7fa4:	f7f8 fdb8 	bl	b18 <_lseek>
    7fa8:	1c43      	adds	r3, r0, #1
    7faa:	d000      	beq.n	7fae <_lseek_r+0x1a>
    7fac:	bd70      	pop	{r4, r5, r6, pc}
    7fae:	6823      	ldr	r3, [r4, #0]
    7fb0:	2b00      	cmp	r3, #0
    7fb2:	d0fb      	beq.n	7fac <_lseek_r+0x18>
    7fb4:	602b      	str	r3, [r5, #0]
    7fb6:	e7f9      	b.n	7fac <_lseek_r+0x18>
    7fb8:	20000a90 	.word	0x20000a90

00007fbc <__ascii_mbtowc>:
    7fbc:	b082      	sub	sp, #8
    7fbe:	2900      	cmp	r1, #0
    7fc0:	d00a      	beq.n	7fd8 <__ascii_mbtowc+0x1c>
    7fc2:	2a00      	cmp	r2, #0
    7fc4:	d00b      	beq.n	7fde <__ascii_mbtowc+0x22>
    7fc6:	2b00      	cmp	r3, #0
    7fc8:	d00b      	beq.n	7fe2 <__ascii_mbtowc+0x26>
    7fca:	7813      	ldrb	r3, [r2, #0]
    7fcc:	600b      	str	r3, [r1, #0]
    7fce:	7810      	ldrb	r0, [r2, #0]
    7fd0:	1e43      	subs	r3, r0, #1
    7fd2:	4198      	sbcs	r0, r3
    7fd4:	b002      	add	sp, #8
    7fd6:	4770      	bx	lr
    7fd8:	a901      	add	r1, sp, #4
    7fda:	2a00      	cmp	r2, #0
    7fdc:	d1f3      	bne.n	7fc6 <__ascii_mbtowc+0xa>
    7fde:	2000      	movs	r0, #0
    7fe0:	e7f8      	b.n	7fd4 <__ascii_mbtowc+0x18>
    7fe2:	2002      	movs	r0, #2
    7fe4:	4240      	negs	r0, r0
    7fe6:	e7f5      	b.n	7fd4 <__ascii_mbtowc+0x18>

00007fe8 <_read_r>:
    7fe8:	b570      	push	{r4, r5, r6, lr}
    7fea:	0005      	movs	r5, r0
    7fec:	0008      	movs	r0, r1
    7fee:	0011      	movs	r1, r2
    7ff0:	2200      	movs	r2, #0
    7ff2:	4c06      	ldr	r4, [pc, #24]	; (800c <_read_r+0x24>)
    7ff4:	6022      	str	r2, [r4, #0]
    7ff6:	001a      	movs	r2, r3
    7ff8:	f7f9 fad2 	bl	15a0 <_read>
    7ffc:	1c43      	adds	r3, r0, #1
    7ffe:	d000      	beq.n	8002 <_read_r+0x1a>
    8000:	bd70      	pop	{r4, r5, r6, pc}
    8002:	6823      	ldr	r3, [r4, #0]
    8004:	2b00      	cmp	r3, #0
    8006:	d0fb      	beq.n	8000 <_read_r+0x18>
    8008:	602b      	str	r3, [r5, #0]
    800a:	e7f9      	b.n	8000 <_read_r+0x18>
    800c:	20000a90 	.word	0x20000a90

00008010 <__swbuf_r>:
    8010:	b5f8      	push	{r3, r4, r5, r6, r7, lr}
    8012:	0006      	movs	r6, r0
    8014:	000d      	movs	r5, r1
    8016:	0014      	movs	r4, r2
    8018:	2800      	cmp	r0, #0
    801a:	d002      	beq.n	8022 <__swbuf_r+0x12>
    801c:	6b83      	ldr	r3, [r0, #56]	; 0x38
    801e:	2b00      	cmp	r3, #0
    8020:	d04e      	beq.n	80c0 <__swbuf_r+0xb0>
    8022:	69a3      	ldr	r3, [r4, #24]
    8024:	60a3      	str	r3, [r4, #8]
    8026:	230c      	movs	r3, #12
    8028:	5ee0      	ldrsh	r0, [r4, r3]
    802a:	b281      	uxth	r1, r0
    802c:	070b      	lsls	r3, r1, #28
    802e:	d53c      	bpl.n	80aa <__swbuf_r+0x9a>
    8030:	6923      	ldr	r3, [r4, #16]
    8032:	2b00      	cmp	r3, #0
    8034:	d039      	beq.n	80aa <__swbuf_r+0x9a>
    8036:	22ff      	movs	r2, #255	; 0xff
    8038:	b2ef      	uxtb	r7, r5
    803a:	4015      	ands	r5, r2
    803c:	2280      	movs	r2, #128	; 0x80
    803e:	0192      	lsls	r2, r2, #6
    8040:	4211      	tst	r1, r2
    8042:	d015      	beq.n	8070 <__swbuf_r+0x60>
    8044:	6822      	ldr	r2, [r4, #0]
    8046:	6961      	ldr	r1, [r4, #20]
    8048:	1ad3      	subs	r3, r2, r3
    804a:	428b      	cmp	r3, r1
    804c:	da1b      	bge.n	8086 <__swbuf_r+0x76>
    804e:	3301      	adds	r3, #1
    8050:	68a1      	ldr	r1, [r4, #8]
    8052:	3901      	subs	r1, #1
    8054:	60a1      	str	r1, [r4, #8]
    8056:	1c51      	adds	r1, r2, #1
    8058:	6021      	str	r1, [r4, #0]
    805a:	7017      	strb	r7, [r2, #0]
    805c:	6962      	ldr	r2, [r4, #20]
    805e:	429a      	cmp	r2, r3
    8060:	d01a      	beq.n	8098 <__swbuf_r+0x88>
    8062:	89a3      	ldrh	r3, [r4, #12]
    8064:	07db      	lsls	r3, r3, #31
    8066:	d501      	bpl.n	806c <__swbuf_r+0x5c>
    8068:	2d0a      	cmp	r5, #10
    806a:	d015      	beq.n	8098 <__swbuf_r+0x88>
    806c:	0028      	movs	r0, r5
    806e:	bdf8      	pop	{r3, r4, r5, r6, r7, pc}
    8070:	4302      	orrs	r2, r0
    8072:	6e61      	ldr	r1, [r4, #100]	; 0x64
    8074:	81a2      	strh	r2, [r4, #12]
    8076:	4a14      	ldr	r2, [pc, #80]	; (80c8 <__swbuf_r+0xb8>)
    8078:	400a      	ands	r2, r1
    807a:	6662      	str	r2, [r4, #100]	; 0x64
    807c:	6961      	ldr	r1, [r4, #20]
    807e:	6822      	ldr	r2, [r4, #0]
    8080:	1ad3      	subs	r3, r2, r3
    8082:	428b      	cmp	r3, r1
    8084:	dbe3      	blt.n	804e <__swbuf_r+0x3e>
    8086:	0021      	movs	r1, r4
    8088:	0030      	movs	r0, r6
    808a:	f7fe f837 	bl	60fc <_fflush_r>
    808e:	2800      	cmp	r0, #0
    8090:	d108      	bne.n	80a4 <__swbuf_r+0x94>
    8092:	6822      	ldr	r2, [r4, #0]
    8094:	2301      	movs	r3, #1
    8096:	e7db      	b.n	8050 <__swbuf_r+0x40>
    8098:	0021      	movs	r1, r4
    809a:	0030      	movs	r0, r6
    809c:	f7fe f82e 	bl	60fc <_fflush_r>
    80a0:	2800      	cmp	r0, #0
    80a2:	d0e3      	beq.n	806c <__swbuf_r+0x5c>
    80a4:	2501      	movs	r5, #1
    80a6:	426d      	negs	r5, r5
    80a8:	e7e0      	b.n	806c <__swbuf_r+0x5c>
    80aa:	0021      	movs	r1, r4
    80ac:	0030      	movs	r0, r6
    80ae:	f7fc fe91 	bl	4dd4 <__swsetup_r>
    80b2:	2800      	cmp	r0, #0
    80b4:	d1f6      	bne.n	80a4 <__swbuf_r+0x94>
    80b6:	230c      	movs	r3, #12
    80b8:	5ee0      	ldrsh	r0, [r4, r3]
    80ba:	6923      	ldr	r3, [r4, #16]
    80bc:	b281      	uxth	r1, r0
    80be:	e7ba      	b.n	8036 <__swbuf_r+0x26>
    80c0:	f7fe f876 	bl	61b0 <__sinit>
    80c4:	e7ad      	b.n	8022 <__swbuf_r+0x12>
    80c6:	46c0      	nop			; (mov r8, r8)
    80c8:	ffffdfff 	.word	0xffffdfff

000080cc <_wcrtomb_r>:
    80cc:	b570      	push	{r4, r5, r6, lr}
    80ce:	001d      	movs	r5, r3
    80d0:	4b11      	ldr	r3, [pc, #68]	; (8118 <_wcrtomb_r+0x4c>)
    80d2:	b084      	sub	sp, #16
    80d4:	681b      	ldr	r3, [r3, #0]
    80d6:	0004      	movs	r4, r0
    80d8:	6b5b      	ldr	r3, [r3, #52]	; 0x34
    80da:	2900      	cmp	r1, #0
    80dc:	d00e      	beq.n	80fc <_wcrtomb_r+0x30>
    80de:	2b00      	cmp	r3, #0
    80e0:	d016      	beq.n	8110 <_wcrtomb_r+0x44>
    80e2:	20e0      	movs	r0, #224	; 0xe0
    80e4:	581e      	ldr	r6, [r3, r0]
    80e6:	002b      	movs	r3, r5
    80e8:	0020      	movs	r0, r4
    80ea:	47b0      	blx	r6
    80ec:	1c43      	adds	r3, r0, #1
    80ee:	d103      	bne.n	80f8 <_wcrtomb_r+0x2c>
    80f0:	2300      	movs	r3, #0
    80f2:	602b      	str	r3, [r5, #0]
    80f4:	338a      	adds	r3, #138	; 0x8a
    80f6:	6023      	str	r3, [r4, #0]
    80f8:	b004      	add	sp, #16
    80fa:	bd70      	pop	{r4, r5, r6, pc}
    80fc:	2b00      	cmp	r3, #0
    80fe:	d009      	beq.n	8114 <_wcrtomb_r+0x48>
    8100:	22e0      	movs	r2, #224	; 0xe0
    8102:	a901      	add	r1, sp, #4
    8104:	589e      	ldr	r6, [r3, r2]
    8106:	0020      	movs	r0, r4
    8108:	002b      	movs	r3, r5
    810a:	2200      	movs	r2, #0
    810c:	47b0      	blx	r6
    810e:	e7ed      	b.n	80ec <_wcrtomb_r+0x20>
    8110:	4b02      	ldr	r3, [pc, #8]	; (811c <_wcrtomb_r+0x50>)
    8112:	e7e6      	b.n	80e2 <_wcrtomb_r+0x16>
    8114:	4b01      	ldr	r3, [pc, #4]	; (811c <_wcrtomb_r+0x50>)
    8116:	e7f3      	b.n	8100 <_wcrtomb_r+0x34>
    8118:	20000000 	.word	0x20000000
    811c:	20000844 	.word	0x20000844

00008120 <__ascii_wctomb>:
    8120:	2900      	cmp	r1, #0
    8122:	d004      	beq.n	812e <__ascii_wctomb+0xe>
    8124:	2aff      	cmp	r2, #255	; 0xff
    8126:	d804      	bhi.n	8132 <__ascii_wctomb+0x12>
    8128:	2001      	movs	r0, #1
    812a:	700a      	strb	r2, [r1, #0]
    812c:	4770      	bx	lr
    812e:	2000      	movs	r0, #0
    8130:	e7fc      	b.n	812c <__ascii_wctomb+0xc>
    8132:	238a      	movs	r3, #138	; 0x8a
    8134:	6003      	str	r3, [r0, #0]
    8136:	2001      	movs	r0, #1
    8138:	4240      	negs	r0, r0
    813a:	e7f7      	b.n	812c <__ascii_wctomb+0xc>

0000813c <__aeabi_dadd>:
    813c:	b5f8      	push	{r3, r4, r5, r6, r7, lr}
    813e:	4645      	mov	r5, r8
    8140:	46de      	mov	lr, fp
    8142:	4657      	mov	r7, sl
    8144:	464e      	mov	r6, r9
    8146:	030c      	lsls	r4, r1, #12
    8148:	b5e0      	push	{r5, r6, r7, lr}
    814a:	004e      	lsls	r6, r1, #1
    814c:	0fc9      	lsrs	r1, r1, #31
    814e:	4688      	mov	r8, r1
    8150:	000d      	movs	r5, r1
    8152:	0a61      	lsrs	r1, r4, #9
    8154:	0f44      	lsrs	r4, r0, #29
    8156:	430c      	orrs	r4, r1
    8158:	00c7      	lsls	r7, r0, #3
    815a:	0319      	lsls	r1, r3, #12
    815c:	0058      	lsls	r0, r3, #1
    815e:	0fdb      	lsrs	r3, r3, #31
    8160:	469b      	mov	fp, r3
    8162:	0a4b      	lsrs	r3, r1, #9
    8164:	0f51      	lsrs	r1, r2, #29
    8166:	430b      	orrs	r3, r1
    8168:	0d76      	lsrs	r6, r6, #21
    816a:	0d40      	lsrs	r0, r0, #21
    816c:	0019      	movs	r1, r3
    816e:	00d2      	lsls	r2, r2, #3
    8170:	45d8      	cmp	r8, fp
    8172:	d100      	bne.n	8176 <__aeabi_dadd+0x3a>
    8174:	e0ae      	b.n	82d4 <__aeabi_dadd+0x198>
    8176:	1a35      	subs	r5, r6, r0
    8178:	2d00      	cmp	r5, #0
    817a:	dc00      	bgt.n	817e <__aeabi_dadd+0x42>
    817c:	e0f6      	b.n	836c <__aeabi_dadd+0x230>
    817e:	2800      	cmp	r0, #0
    8180:	d10f      	bne.n	81a2 <__aeabi_dadd+0x66>
    8182:	4313      	orrs	r3, r2
    8184:	d100      	bne.n	8188 <__aeabi_dadd+0x4c>
    8186:	e0db      	b.n	8340 <__aeabi_dadd+0x204>
    8188:	1e6b      	subs	r3, r5, #1
    818a:	2b00      	cmp	r3, #0
    818c:	d000      	beq.n	8190 <__aeabi_dadd+0x54>
    818e:	e137      	b.n	8400 <__aeabi_dadd+0x2c4>
    8190:	1aba      	subs	r2, r7, r2
    8192:	4297      	cmp	r7, r2
    8194:	41bf      	sbcs	r7, r7
    8196:	1a64      	subs	r4, r4, r1
    8198:	427f      	negs	r7, r7
    819a:	1be4      	subs	r4, r4, r7
    819c:	2601      	movs	r6, #1
    819e:	0017      	movs	r7, r2
    81a0:	e024      	b.n	81ec <__aeabi_dadd+0xb0>
    81a2:	4bc6      	ldr	r3, [pc, #792]	; (84bc <__aeabi_dadd+0x380>)
    81a4:	429e      	cmp	r6, r3
    81a6:	d04d      	beq.n	8244 <__aeabi_dadd+0x108>
    81a8:	2380      	movs	r3, #128	; 0x80
    81aa:	041b      	lsls	r3, r3, #16
    81ac:	4319      	orrs	r1, r3
    81ae:	2d38      	cmp	r5, #56	; 0x38
    81b0:	dd00      	ble.n	81b4 <__aeabi_dadd+0x78>
    81b2:	e107      	b.n	83c4 <__aeabi_dadd+0x288>
    81b4:	2d1f      	cmp	r5, #31
    81b6:	dd00      	ble.n	81ba <__aeabi_dadd+0x7e>
    81b8:	e138      	b.n	842c <__aeabi_dadd+0x2f0>
    81ba:	2020      	movs	r0, #32
    81bc:	1b43      	subs	r3, r0, r5
    81be:	469a      	mov	sl, r3
    81c0:	000b      	movs	r3, r1
    81c2:	4650      	mov	r0, sl
    81c4:	4083      	lsls	r3, r0
    81c6:	4699      	mov	r9, r3
    81c8:	0013      	movs	r3, r2
    81ca:	4648      	mov	r0, r9
    81cc:	40eb      	lsrs	r3, r5
    81ce:	4318      	orrs	r0, r3
    81d0:	0003      	movs	r3, r0
    81d2:	4650      	mov	r0, sl
    81d4:	4082      	lsls	r2, r0
    81d6:	1e50      	subs	r0, r2, #1
    81d8:	4182      	sbcs	r2, r0
    81da:	40e9      	lsrs	r1, r5
    81dc:	431a      	orrs	r2, r3
    81de:	1aba      	subs	r2, r7, r2
    81e0:	1a61      	subs	r1, r4, r1
    81e2:	4297      	cmp	r7, r2
    81e4:	41a4      	sbcs	r4, r4
    81e6:	0017      	movs	r7, r2
    81e8:	4264      	negs	r4, r4
    81ea:	1b0c      	subs	r4, r1, r4
    81ec:	0223      	lsls	r3, r4, #8
    81ee:	d562      	bpl.n	82b6 <__aeabi_dadd+0x17a>
    81f0:	0264      	lsls	r4, r4, #9
    81f2:	0a65      	lsrs	r5, r4, #9
    81f4:	2d00      	cmp	r5, #0
    81f6:	d100      	bne.n	81fa <__aeabi_dadd+0xbe>
    81f8:	e0df      	b.n	83ba <__aeabi_dadd+0x27e>
    81fa:	0028      	movs	r0, r5
    81fc:	f7fa ff2a 	bl	3054 <__clzsi2>
    8200:	0003      	movs	r3, r0
    8202:	3b08      	subs	r3, #8
    8204:	2b1f      	cmp	r3, #31
    8206:	dd00      	ble.n	820a <__aeabi_dadd+0xce>
    8208:	e0d2      	b.n	83b0 <__aeabi_dadd+0x274>
    820a:	2220      	movs	r2, #32
    820c:	003c      	movs	r4, r7
    820e:	1ad2      	subs	r2, r2, r3
    8210:	409d      	lsls	r5, r3
    8212:	40d4      	lsrs	r4, r2
    8214:	409f      	lsls	r7, r3
    8216:	4325      	orrs	r5, r4
    8218:	429e      	cmp	r6, r3
    821a:	dd00      	ble.n	821e <__aeabi_dadd+0xe2>
    821c:	e0c4      	b.n	83a8 <__aeabi_dadd+0x26c>
    821e:	1b9e      	subs	r6, r3, r6
    8220:	1c73      	adds	r3, r6, #1
    8222:	2b1f      	cmp	r3, #31
    8224:	dd00      	ble.n	8228 <__aeabi_dadd+0xec>
    8226:	e0f1      	b.n	840c <__aeabi_dadd+0x2d0>
    8228:	2220      	movs	r2, #32
    822a:	0038      	movs	r0, r7
    822c:	0029      	movs	r1, r5
    822e:	1ad2      	subs	r2, r2, r3
    8230:	40d8      	lsrs	r0, r3
    8232:	4091      	lsls	r1, r2
    8234:	4097      	lsls	r7, r2
    8236:	002c      	movs	r4, r5
    8238:	4301      	orrs	r1, r0
    823a:	1e78      	subs	r0, r7, #1
    823c:	4187      	sbcs	r7, r0
    823e:	40dc      	lsrs	r4, r3
    8240:	2600      	movs	r6, #0
    8242:	430f      	orrs	r7, r1
    8244:	077b      	lsls	r3, r7, #29
    8246:	d009      	beq.n	825c <__aeabi_dadd+0x120>
    8248:	230f      	movs	r3, #15
    824a:	403b      	ands	r3, r7
    824c:	2b04      	cmp	r3, #4
    824e:	d005      	beq.n	825c <__aeabi_dadd+0x120>
    8250:	1d3b      	adds	r3, r7, #4
    8252:	42bb      	cmp	r3, r7
    8254:	41bf      	sbcs	r7, r7
    8256:	427f      	negs	r7, r7
    8258:	19e4      	adds	r4, r4, r7
    825a:	001f      	movs	r7, r3
    825c:	0223      	lsls	r3, r4, #8
    825e:	d52c      	bpl.n	82ba <__aeabi_dadd+0x17e>
    8260:	4b96      	ldr	r3, [pc, #600]	; (84bc <__aeabi_dadd+0x380>)
    8262:	3601      	adds	r6, #1
    8264:	429e      	cmp	r6, r3
    8266:	d100      	bne.n	826a <__aeabi_dadd+0x12e>
    8268:	e09a      	b.n	83a0 <__aeabi_dadd+0x264>
    826a:	4645      	mov	r5, r8
    826c:	4b94      	ldr	r3, [pc, #592]	; (84c0 <__aeabi_dadd+0x384>)
    826e:	08ff      	lsrs	r7, r7, #3
    8270:	401c      	ands	r4, r3
    8272:	0760      	lsls	r0, r4, #29
    8274:	0576      	lsls	r6, r6, #21
    8276:	0264      	lsls	r4, r4, #9
    8278:	4307      	orrs	r7, r0
    827a:	0b24      	lsrs	r4, r4, #12
    827c:	0d76      	lsrs	r6, r6, #21
    827e:	2100      	movs	r1, #0
    8280:	0324      	lsls	r4, r4, #12
    8282:	0b23      	lsrs	r3, r4, #12
    8284:	0d0c      	lsrs	r4, r1, #20
    8286:	4a8f      	ldr	r2, [pc, #572]	; (84c4 <__aeabi_dadd+0x388>)
    8288:	0524      	lsls	r4, r4, #20
    828a:	431c      	orrs	r4, r3
    828c:	4014      	ands	r4, r2
    828e:	0533      	lsls	r3, r6, #20
    8290:	4323      	orrs	r3, r4
    8292:	005b      	lsls	r3, r3, #1
    8294:	07ed      	lsls	r5, r5, #31
    8296:	085b      	lsrs	r3, r3, #1
    8298:	432b      	orrs	r3, r5
    829a:	0038      	movs	r0, r7
    829c:	0019      	movs	r1, r3
    829e:	bc3c      	pop	{r2, r3, r4, r5}
    82a0:	4690      	mov	r8, r2
    82a2:	4699      	mov	r9, r3
    82a4:	46a2      	mov	sl, r4
    82a6:	46ab      	mov	fp, r5
    82a8:	bdf8      	pop	{r3, r4, r5, r6, r7, pc}
    82aa:	4664      	mov	r4, ip
    82ac:	4304      	orrs	r4, r0
    82ae:	d100      	bne.n	82b2 <__aeabi_dadd+0x176>
    82b0:	e211      	b.n	86d6 <__aeabi_dadd+0x59a>
    82b2:	0004      	movs	r4, r0
    82b4:	4667      	mov	r7, ip
    82b6:	077b      	lsls	r3, r7, #29
    82b8:	d1c6      	bne.n	8248 <__aeabi_dadd+0x10c>
    82ba:	4645      	mov	r5, r8
    82bc:	0760      	lsls	r0, r4, #29
    82be:	08ff      	lsrs	r7, r7, #3
    82c0:	4307      	orrs	r7, r0
    82c2:	08e4      	lsrs	r4, r4, #3
    82c4:	4b7d      	ldr	r3, [pc, #500]	; (84bc <__aeabi_dadd+0x380>)
    82c6:	429e      	cmp	r6, r3
    82c8:	d030      	beq.n	832c <__aeabi_dadd+0x1f0>
    82ca:	0324      	lsls	r4, r4, #12
    82cc:	0576      	lsls	r6, r6, #21
    82ce:	0b24      	lsrs	r4, r4, #12
    82d0:	0d76      	lsrs	r6, r6, #21
    82d2:	e7d4      	b.n	827e <__aeabi_dadd+0x142>
    82d4:	1a33      	subs	r3, r6, r0
    82d6:	469a      	mov	sl, r3
    82d8:	2b00      	cmp	r3, #0
    82da:	dd78      	ble.n	83ce <__aeabi_dadd+0x292>
    82dc:	2800      	cmp	r0, #0
    82de:	d031      	beq.n	8344 <__aeabi_dadd+0x208>
    82e0:	4876      	ldr	r0, [pc, #472]	; (84bc <__aeabi_dadd+0x380>)
    82e2:	4286      	cmp	r6, r0
    82e4:	d0ae      	beq.n	8244 <__aeabi_dadd+0x108>
    82e6:	2080      	movs	r0, #128	; 0x80
    82e8:	0400      	lsls	r0, r0, #16
    82ea:	4301      	orrs	r1, r0
    82ec:	4653      	mov	r3, sl
    82ee:	2b38      	cmp	r3, #56	; 0x38
    82f0:	dc00      	bgt.n	82f4 <__aeabi_dadd+0x1b8>
    82f2:	e0e9      	b.n	84c8 <__aeabi_dadd+0x38c>
    82f4:	430a      	orrs	r2, r1
    82f6:	1e51      	subs	r1, r2, #1
    82f8:	418a      	sbcs	r2, r1
    82fa:	2100      	movs	r1, #0
    82fc:	19d2      	adds	r2, r2, r7
    82fe:	42ba      	cmp	r2, r7
    8300:	41bf      	sbcs	r7, r7
    8302:	1909      	adds	r1, r1, r4
    8304:	427c      	negs	r4, r7
    8306:	0017      	movs	r7, r2
    8308:	190c      	adds	r4, r1, r4
    830a:	0223      	lsls	r3, r4, #8
    830c:	d5d3      	bpl.n	82b6 <__aeabi_dadd+0x17a>
    830e:	4b6b      	ldr	r3, [pc, #428]	; (84bc <__aeabi_dadd+0x380>)
    8310:	3601      	adds	r6, #1
    8312:	429e      	cmp	r6, r3
    8314:	d100      	bne.n	8318 <__aeabi_dadd+0x1dc>
    8316:	e13a      	b.n	858e <__aeabi_dadd+0x452>
    8318:	2001      	movs	r0, #1
    831a:	4b69      	ldr	r3, [pc, #420]	; (84c0 <__aeabi_dadd+0x384>)
    831c:	401c      	ands	r4, r3
    831e:	087b      	lsrs	r3, r7, #1
    8320:	4007      	ands	r7, r0
    8322:	431f      	orrs	r7, r3
    8324:	07e0      	lsls	r0, r4, #31
    8326:	4307      	orrs	r7, r0
    8328:	0864      	lsrs	r4, r4, #1
    832a:	e78b      	b.n	8244 <__aeabi_dadd+0x108>
    832c:	0023      	movs	r3, r4
    832e:	433b      	orrs	r3, r7
    8330:	d100      	bne.n	8334 <__aeabi_dadd+0x1f8>
    8332:	e1cb      	b.n	86cc <__aeabi_dadd+0x590>
    8334:	2280      	movs	r2, #128	; 0x80
    8336:	0312      	lsls	r2, r2, #12
    8338:	4314      	orrs	r4, r2
    833a:	0324      	lsls	r4, r4, #12
    833c:	0b24      	lsrs	r4, r4, #12
    833e:	e79e      	b.n	827e <__aeabi_dadd+0x142>
    8340:	002e      	movs	r6, r5
    8342:	e77f      	b.n	8244 <__aeabi_dadd+0x108>
    8344:	0008      	movs	r0, r1
    8346:	4310      	orrs	r0, r2
    8348:	d100      	bne.n	834c <__aeabi_dadd+0x210>
    834a:	e0b4      	b.n	84b6 <__aeabi_dadd+0x37a>
    834c:	1e58      	subs	r0, r3, #1
    834e:	2800      	cmp	r0, #0
    8350:	d000      	beq.n	8354 <__aeabi_dadd+0x218>
    8352:	e0de      	b.n	8512 <__aeabi_dadd+0x3d6>
    8354:	18ba      	adds	r2, r7, r2
    8356:	42ba      	cmp	r2, r7
    8358:	419b      	sbcs	r3, r3
    835a:	1864      	adds	r4, r4, r1
    835c:	425b      	negs	r3, r3
    835e:	18e4      	adds	r4, r4, r3
    8360:	0017      	movs	r7, r2
    8362:	2601      	movs	r6, #1
    8364:	0223      	lsls	r3, r4, #8
    8366:	d5a6      	bpl.n	82b6 <__aeabi_dadd+0x17a>
    8368:	2602      	movs	r6, #2
    836a:	e7d5      	b.n	8318 <__aeabi_dadd+0x1dc>
    836c:	2d00      	cmp	r5, #0
    836e:	d16e      	bne.n	844e <__aeabi_dadd+0x312>
    8370:	1c70      	adds	r0, r6, #1
    8372:	0540      	lsls	r0, r0, #21
    8374:	0d40      	lsrs	r0, r0, #21
    8376:	2801      	cmp	r0, #1
    8378:	dc00      	bgt.n	837c <__aeabi_dadd+0x240>
    837a:	e0f9      	b.n	8570 <__aeabi_dadd+0x434>
    837c:	1ab8      	subs	r0, r7, r2
    837e:	4684      	mov	ip, r0
    8380:	4287      	cmp	r7, r0
    8382:	4180      	sbcs	r0, r0
    8384:	1ae5      	subs	r5, r4, r3
    8386:	4240      	negs	r0, r0
    8388:	1a2d      	subs	r5, r5, r0
    838a:	0228      	lsls	r0, r5, #8
    838c:	d400      	bmi.n	8390 <__aeabi_dadd+0x254>
    838e:	e089      	b.n	84a4 <__aeabi_dadd+0x368>
    8390:	1bd7      	subs	r7, r2, r7
    8392:	42ba      	cmp	r2, r7
    8394:	4192      	sbcs	r2, r2
    8396:	1b1c      	subs	r4, r3, r4
    8398:	4252      	negs	r2, r2
    839a:	1aa5      	subs	r5, r4, r2
    839c:	46d8      	mov	r8, fp
    839e:	e729      	b.n	81f4 <__aeabi_dadd+0xb8>
    83a0:	4645      	mov	r5, r8
    83a2:	2400      	movs	r4, #0
    83a4:	2700      	movs	r7, #0
    83a6:	e76a      	b.n	827e <__aeabi_dadd+0x142>
    83a8:	4c45      	ldr	r4, [pc, #276]	; (84c0 <__aeabi_dadd+0x384>)
    83aa:	1af6      	subs	r6, r6, r3
    83ac:	402c      	ands	r4, r5
    83ae:	e749      	b.n	8244 <__aeabi_dadd+0x108>
    83b0:	003d      	movs	r5, r7
    83b2:	3828      	subs	r0, #40	; 0x28
    83b4:	4085      	lsls	r5, r0
    83b6:	2700      	movs	r7, #0
    83b8:	e72e      	b.n	8218 <__aeabi_dadd+0xdc>
    83ba:	0038      	movs	r0, r7
    83bc:	f7fa fe4a 	bl	3054 <__clzsi2>
    83c0:	3020      	adds	r0, #32
    83c2:	e71d      	b.n	8200 <__aeabi_dadd+0xc4>
    83c4:	430a      	orrs	r2, r1
    83c6:	1e51      	subs	r1, r2, #1
    83c8:	418a      	sbcs	r2, r1
    83ca:	2100      	movs	r1, #0
    83cc:	e707      	b.n	81de <__aeabi_dadd+0xa2>
    83ce:	2b00      	cmp	r3, #0
    83d0:	d000      	beq.n	83d4 <__aeabi_dadd+0x298>
    83d2:	e0f3      	b.n	85bc <__aeabi_dadd+0x480>
    83d4:	1c70      	adds	r0, r6, #1
    83d6:	0543      	lsls	r3, r0, #21
    83d8:	0d5b      	lsrs	r3, r3, #21
    83da:	2b01      	cmp	r3, #1
    83dc:	dc00      	bgt.n	83e0 <__aeabi_dadd+0x2a4>
    83de:	e0ad      	b.n	853c <__aeabi_dadd+0x400>
    83e0:	4b36      	ldr	r3, [pc, #216]	; (84bc <__aeabi_dadd+0x380>)
    83e2:	4298      	cmp	r0, r3
    83e4:	d100      	bne.n	83e8 <__aeabi_dadd+0x2ac>
    83e6:	e0d1      	b.n	858c <__aeabi_dadd+0x450>
    83e8:	18ba      	adds	r2, r7, r2
    83ea:	42ba      	cmp	r2, r7
    83ec:	41bf      	sbcs	r7, r7
    83ee:	1864      	adds	r4, r4, r1
    83f0:	427f      	negs	r7, r7
    83f2:	19e4      	adds	r4, r4, r7
    83f4:	07e7      	lsls	r7, r4, #31
    83f6:	0852      	lsrs	r2, r2, #1
    83f8:	4317      	orrs	r7, r2
    83fa:	0864      	lsrs	r4, r4, #1
    83fc:	0006      	movs	r6, r0
    83fe:	e721      	b.n	8244 <__aeabi_dadd+0x108>
    8400:	482e      	ldr	r0, [pc, #184]	; (84bc <__aeabi_dadd+0x380>)
    8402:	4285      	cmp	r5, r0
    8404:	d100      	bne.n	8408 <__aeabi_dadd+0x2cc>
    8406:	e093      	b.n	8530 <__aeabi_dadd+0x3f4>
    8408:	001d      	movs	r5, r3
    840a:	e6d0      	b.n	81ae <__aeabi_dadd+0x72>
    840c:	0029      	movs	r1, r5
    840e:	3e1f      	subs	r6, #31
    8410:	40f1      	lsrs	r1, r6
    8412:	2b20      	cmp	r3, #32
    8414:	d100      	bne.n	8418 <__aeabi_dadd+0x2dc>
    8416:	e08d      	b.n	8534 <__aeabi_dadd+0x3f8>
    8418:	2240      	movs	r2, #64	; 0x40
    841a:	1ad3      	subs	r3, r2, r3
    841c:	409d      	lsls	r5, r3
    841e:	432f      	orrs	r7, r5
    8420:	1e7d      	subs	r5, r7, #1
    8422:	41af      	sbcs	r7, r5
    8424:	2400      	movs	r4, #0
    8426:	430f      	orrs	r7, r1
    8428:	2600      	movs	r6, #0
    842a:	e744      	b.n	82b6 <__aeabi_dadd+0x17a>
    842c:	002b      	movs	r3, r5
    842e:	0008      	movs	r0, r1
    8430:	3b20      	subs	r3, #32
    8432:	40d8      	lsrs	r0, r3
    8434:	0003      	movs	r3, r0
    8436:	2d20      	cmp	r5, #32
    8438:	d100      	bne.n	843c <__aeabi_dadd+0x300>
    843a:	e07d      	b.n	8538 <__aeabi_dadd+0x3fc>
    843c:	2040      	movs	r0, #64	; 0x40
    843e:	1b45      	subs	r5, r0, r5
    8440:	40a9      	lsls	r1, r5
    8442:	430a      	orrs	r2, r1
    8444:	1e51      	subs	r1, r2, #1
    8446:	418a      	sbcs	r2, r1
    8448:	2100      	movs	r1, #0
    844a:	431a      	orrs	r2, r3
    844c:	e6c7      	b.n	81de <__aeabi_dadd+0xa2>
    844e:	2e00      	cmp	r6, #0
    8450:	d050      	beq.n	84f4 <__aeabi_dadd+0x3b8>
    8452:	4e1a      	ldr	r6, [pc, #104]	; (84bc <__aeabi_dadd+0x380>)
    8454:	42b0      	cmp	r0, r6
    8456:	d057      	beq.n	8508 <__aeabi_dadd+0x3cc>
    8458:	2680      	movs	r6, #128	; 0x80
    845a:	426b      	negs	r3, r5
    845c:	4699      	mov	r9, r3
    845e:	0436      	lsls	r6, r6, #16
    8460:	4334      	orrs	r4, r6
    8462:	464b      	mov	r3, r9
    8464:	2b38      	cmp	r3, #56	; 0x38
    8466:	dd00      	ble.n	846a <__aeabi_dadd+0x32e>
    8468:	e0d6      	b.n	8618 <__aeabi_dadd+0x4dc>
    846a:	2b1f      	cmp	r3, #31
    846c:	dd00      	ble.n	8470 <__aeabi_dadd+0x334>
    846e:	e135      	b.n	86dc <__aeabi_dadd+0x5a0>
    8470:	2620      	movs	r6, #32
    8472:	1af5      	subs	r5, r6, r3
    8474:	0026      	movs	r6, r4
    8476:	40ae      	lsls	r6, r5
    8478:	46b2      	mov	sl, r6
    847a:	003e      	movs	r6, r7
    847c:	40de      	lsrs	r6, r3
    847e:	46ac      	mov	ip, r5
    8480:	0035      	movs	r5, r6
    8482:	4656      	mov	r6, sl
    8484:	432e      	orrs	r6, r5
    8486:	4665      	mov	r5, ip
    8488:	40af      	lsls	r7, r5
    848a:	1e7d      	subs	r5, r7, #1
    848c:	41af      	sbcs	r7, r5
    848e:	40dc      	lsrs	r4, r3
    8490:	4337      	orrs	r7, r6
    8492:	1bd7      	subs	r7, r2, r7
    8494:	42ba      	cmp	r2, r7
    8496:	4192      	sbcs	r2, r2
    8498:	1b0c      	subs	r4, r1, r4
    849a:	4252      	negs	r2, r2
    849c:	1aa4      	subs	r4, r4, r2
    849e:	0006      	movs	r6, r0
    84a0:	46d8      	mov	r8, fp
    84a2:	e6a3      	b.n	81ec <__aeabi_dadd+0xb0>
    84a4:	4664      	mov	r4, ip
    84a6:	4667      	mov	r7, ip
    84a8:	432c      	orrs	r4, r5
    84aa:	d000      	beq.n	84ae <__aeabi_dadd+0x372>
    84ac:	e6a2      	b.n	81f4 <__aeabi_dadd+0xb8>
    84ae:	2500      	movs	r5, #0
    84b0:	2600      	movs	r6, #0
    84b2:	2700      	movs	r7, #0
    84b4:	e706      	b.n	82c4 <__aeabi_dadd+0x188>
    84b6:	001e      	movs	r6, r3
    84b8:	e6c4      	b.n	8244 <__aeabi_dadd+0x108>
    84ba:	46c0      	nop			; (mov r8, r8)
    84bc:	000007ff 	.word	0x000007ff
    84c0:	ff7fffff 	.word	0xff7fffff
    84c4:	800fffff 	.word	0x800fffff
    84c8:	2b1f      	cmp	r3, #31
    84ca:	dc63      	bgt.n	8594 <__aeabi_dadd+0x458>
    84cc:	2020      	movs	r0, #32
    84ce:	1ac3      	subs	r3, r0, r3
    84d0:	0008      	movs	r0, r1
    84d2:	4098      	lsls	r0, r3
    84d4:	469c      	mov	ip, r3
    84d6:	4683      	mov	fp, r0
    84d8:	4653      	mov	r3, sl
    84da:	0010      	movs	r0, r2
    84dc:	40d8      	lsrs	r0, r3
    84de:	0003      	movs	r3, r0
    84e0:	4658      	mov	r0, fp
    84e2:	4318      	orrs	r0, r3
    84e4:	4663      	mov	r3, ip
    84e6:	409a      	lsls	r2, r3
    84e8:	1e53      	subs	r3, r2, #1
    84ea:	419a      	sbcs	r2, r3
    84ec:	4653      	mov	r3, sl
    84ee:	4302      	orrs	r2, r0
    84f0:	40d9      	lsrs	r1, r3
    84f2:	e703      	b.n	82fc <__aeabi_dadd+0x1c0>
    84f4:	0026      	movs	r6, r4
    84f6:	433e      	orrs	r6, r7
    84f8:	d006      	beq.n	8508 <__aeabi_dadd+0x3cc>
    84fa:	43eb      	mvns	r3, r5
    84fc:	4699      	mov	r9, r3
    84fe:	2b00      	cmp	r3, #0
    8500:	d0c7      	beq.n	8492 <__aeabi_dadd+0x356>
    8502:	4e94      	ldr	r6, [pc, #592]	; (8754 <__aeabi_dadd+0x618>)
    8504:	42b0      	cmp	r0, r6
    8506:	d1ac      	bne.n	8462 <__aeabi_dadd+0x326>
    8508:	000c      	movs	r4, r1
    850a:	0017      	movs	r7, r2
    850c:	0006      	movs	r6, r0
    850e:	46d8      	mov	r8, fp
    8510:	e698      	b.n	8244 <__aeabi_dadd+0x108>
    8512:	4b90      	ldr	r3, [pc, #576]	; (8754 <__aeabi_dadd+0x618>)
    8514:	459a      	cmp	sl, r3
    8516:	d00b      	beq.n	8530 <__aeabi_dadd+0x3f4>
    8518:	4682      	mov	sl, r0
    851a:	e6e7      	b.n	82ec <__aeabi_dadd+0x1b0>
    851c:	2800      	cmp	r0, #0
    851e:	d000      	beq.n	8522 <__aeabi_dadd+0x3e6>
    8520:	e09e      	b.n	8660 <__aeabi_dadd+0x524>
    8522:	0018      	movs	r0, r3
    8524:	4310      	orrs	r0, r2
    8526:	d100      	bne.n	852a <__aeabi_dadd+0x3ee>
    8528:	e0e9      	b.n	86fe <__aeabi_dadd+0x5c2>
    852a:	001c      	movs	r4, r3
    852c:	0017      	movs	r7, r2
    852e:	46d8      	mov	r8, fp
    8530:	4e88      	ldr	r6, [pc, #544]	; (8754 <__aeabi_dadd+0x618>)
    8532:	e687      	b.n	8244 <__aeabi_dadd+0x108>
    8534:	2500      	movs	r5, #0
    8536:	e772      	b.n	841e <__aeabi_dadd+0x2e2>
    8538:	2100      	movs	r1, #0
    853a:	e782      	b.n	8442 <__aeabi_dadd+0x306>
    853c:	0023      	movs	r3, r4
    853e:	433b      	orrs	r3, r7
    8540:	2e00      	cmp	r6, #0
    8542:	d000      	beq.n	8546 <__aeabi_dadd+0x40a>
    8544:	e0ab      	b.n	869e <__aeabi_dadd+0x562>
    8546:	2b00      	cmp	r3, #0
    8548:	d100      	bne.n	854c <__aeabi_dadd+0x410>
    854a:	e0e7      	b.n	871c <__aeabi_dadd+0x5e0>
    854c:	000b      	movs	r3, r1
    854e:	4313      	orrs	r3, r2
    8550:	d100      	bne.n	8554 <__aeabi_dadd+0x418>
    8552:	e677      	b.n	8244 <__aeabi_dadd+0x108>
    8554:	18ba      	adds	r2, r7, r2
    8556:	42ba      	cmp	r2, r7
    8558:	41bf      	sbcs	r7, r7
    855a:	1864      	adds	r4, r4, r1
    855c:	427f      	negs	r7, r7
    855e:	19e4      	adds	r4, r4, r7
    8560:	0223      	lsls	r3, r4, #8
    8562:	d400      	bmi.n	8566 <__aeabi_dadd+0x42a>
    8564:	e0f2      	b.n	874c <__aeabi_dadd+0x610>
    8566:	4b7c      	ldr	r3, [pc, #496]	; (8758 <__aeabi_dadd+0x61c>)
    8568:	0017      	movs	r7, r2
    856a:	401c      	ands	r4, r3
    856c:	0006      	movs	r6, r0
    856e:	e669      	b.n	8244 <__aeabi_dadd+0x108>
    8570:	0020      	movs	r0, r4
    8572:	4338      	orrs	r0, r7
    8574:	2e00      	cmp	r6, #0
    8576:	d1d1      	bne.n	851c <__aeabi_dadd+0x3e0>
    8578:	2800      	cmp	r0, #0
    857a:	d15b      	bne.n	8634 <__aeabi_dadd+0x4f8>
    857c:	001c      	movs	r4, r3
    857e:	4314      	orrs	r4, r2
    8580:	d100      	bne.n	8584 <__aeabi_dadd+0x448>
    8582:	e0a8      	b.n	86d6 <__aeabi_dadd+0x59a>
    8584:	001c      	movs	r4, r3
    8586:	0017      	movs	r7, r2
    8588:	46d8      	mov	r8, fp
    858a:	e65b      	b.n	8244 <__aeabi_dadd+0x108>
    858c:	0006      	movs	r6, r0
    858e:	2400      	movs	r4, #0
    8590:	2700      	movs	r7, #0
    8592:	e697      	b.n	82c4 <__aeabi_dadd+0x188>
    8594:	4650      	mov	r0, sl
    8596:	000b      	movs	r3, r1
    8598:	3820      	subs	r0, #32
    859a:	40c3      	lsrs	r3, r0
    859c:	4699      	mov	r9, r3
    859e:	4653      	mov	r3, sl
    85a0:	2b20      	cmp	r3, #32
    85a2:	d100      	bne.n	85a6 <__aeabi_dadd+0x46a>
    85a4:	e095      	b.n	86d2 <__aeabi_dadd+0x596>
    85a6:	2340      	movs	r3, #64	; 0x40
    85a8:	4650      	mov	r0, sl
    85aa:	1a1b      	subs	r3, r3, r0
    85ac:	4099      	lsls	r1, r3
    85ae:	430a      	orrs	r2, r1
    85b0:	1e51      	subs	r1, r2, #1
    85b2:	418a      	sbcs	r2, r1
    85b4:	464b      	mov	r3, r9
    85b6:	2100      	movs	r1, #0
    85b8:	431a      	orrs	r2, r3
    85ba:	e69f      	b.n	82fc <__aeabi_dadd+0x1c0>
    85bc:	2e00      	cmp	r6, #0
    85be:	d130      	bne.n	8622 <__aeabi_dadd+0x4e6>
    85c0:	0026      	movs	r6, r4
    85c2:	433e      	orrs	r6, r7
    85c4:	d067      	beq.n	8696 <__aeabi_dadd+0x55a>
    85c6:	43db      	mvns	r3, r3
    85c8:	469a      	mov	sl, r3
    85ca:	2b00      	cmp	r3, #0
    85cc:	d01c      	beq.n	8608 <__aeabi_dadd+0x4cc>
    85ce:	4e61      	ldr	r6, [pc, #388]	; (8754 <__aeabi_dadd+0x618>)
    85d0:	42b0      	cmp	r0, r6
    85d2:	d060      	beq.n	8696 <__aeabi_dadd+0x55a>
    85d4:	4653      	mov	r3, sl
    85d6:	2b38      	cmp	r3, #56	; 0x38
    85d8:	dd00      	ble.n	85dc <__aeabi_dadd+0x4a0>
    85da:	e096      	b.n	870a <__aeabi_dadd+0x5ce>
    85dc:	2b1f      	cmp	r3, #31
    85de:	dd00      	ble.n	85e2 <__aeabi_dadd+0x4a6>
    85e0:	e09f      	b.n	8722 <__aeabi_dadd+0x5e6>
    85e2:	2620      	movs	r6, #32
    85e4:	1af3      	subs	r3, r6, r3
    85e6:	0026      	movs	r6, r4
    85e8:	409e      	lsls	r6, r3
    85ea:	469c      	mov	ip, r3
    85ec:	46b3      	mov	fp, r6
    85ee:	4653      	mov	r3, sl
    85f0:	003e      	movs	r6, r7
    85f2:	40de      	lsrs	r6, r3
    85f4:	0033      	movs	r3, r6
    85f6:	465e      	mov	r6, fp
    85f8:	431e      	orrs	r6, r3
    85fa:	4663      	mov	r3, ip
    85fc:	409f      	lsls	r7, r3
    85fe:	1e7b      	subs	r3, r7, #1
    8600:	419f      	sbcs	r7, r3
    8602:	4653      	mov	r3, sl
    8604:	40dc      	lsrs	r4, r3
    8606:	4337      	orrs	r7, r6
    8608:	18bf      	adds	r7, r7, r2
    860a:	4297      	cmp	r7, r2
    860c:	4192      	sbcs	r2, r2
    860e:	1864      	adds	r4, r4, r1
    8610:	4252      	negs	r2, r2
    8612:	18a4      	adds	r4, r4, r2
    8614:	0006      	movs	r6, r0
    8616:	e678      	b.n	830a <__aeabi_dadd+0x1ce>
    8618:	4327      	orrs	r7, r4
    861a:	1e7c      	subs	r4, r7, #1
    861c:	41a7      	sbcs	r7, r4
    861e:	2400      	movs	r4, #0
    8620:	e737      	b.n	8492 <__aeabi_dadd+0x356>
    8622:	4e4c      	ldr	r6, [pc, #304]	; (8754 <__aeabi_dadd+0x618>)
    8624:	42b0      	cmp	r0, r6
    8626:	d036      	beq.n	8696 <__aeabi_dadd+0x55a>
    8628:	2680      	movs	r6, #128	; 0x80
    862a:	425b      	negs	r3, r3
    862c:	0436      	lsls	r6, r6, #16
    862e:	469a      	mov	sl, r3
    8630:	4334      	orrs	r4, r6
    8632:	e7cf      	b.n	85d4 <__aeabi_dadd+0x498>
    8634:	0018      	movs	r0, r3
    8636:	4310      	orrs	r0, r2
    8638:	d100      	bne.n	863c <__aeabi_dadd+0x500>
    863a:	e603      	b.n	8244 <__aeabi_dadd+0x108>
    863c:	1ab8      	subs	r0, r7, r2
    863e:	4684      	mov	ip, r0
    8640:	4567      	cmp	r7, ip
    8642:	41ad      	sbcs	r5, r5
    8644:	1ae0      	subs	r0, r4, r3
    8646:	426d      	negs	r5, r5
    8648:	1b40      	subs	r0, r0, r5
    864a:	0205      	lsls	r5, r0, #8
    864c:	d400      	bmi.n	8650 <__aeabi_dadd+0x514>
    864e:	e62c      	b.n	82aa <__aeabi_dadd+0x16e>
    8650:	1bd7      	subs	r7, r2, r7
    8652:	42ba      	cmp	r2, r7
    8654:	4192      	sbcs	r2, r2
    8656:	1b1c      	subs	r4, r3, r4
    8658:	4252      	negs	r2, r2
    865a:	1aa4      	subs	r4, r4, r2
    865c:	46d8      	mov	r8, fp
    865e:	e5f1      	b.n	8244 <__aeabi_dadd+0x108>
    8660:	0018      	movs	r0, r3
    8662:	4310      	orrs	r0, r2
    8664:	d100      	bne.n	8668 <__aeabi_dadd+0x52c>
    8666:	e763      	b.n	8530 <__aeabi_dadd+0x3f4>
    8668:	08f8      	lsrs	r0, r7, #3
    866a:	0767      	lsls	r7, r4, #29
    866c:	4307      	orrs	r7, r0
    866e:	2080      	movs	r0, #128	; 0x80
    8670:	08e4      	lsrs	r4, r4, #3
    8672:	0300      	lsls	r0, r0, #12
    8674:	4204      	tst	r4, r0
    8676:	d008      	beq.n	868a <__aeabi_dadd+0x54e>
    8678:	08dd      	lsrs	r5, r3, #3
    867a:	4205      	tst	r5, r0
    867c:	d105      	bne.n	868a <__aeabi_dadd+0x54e>
    867e:	08d2      	lsrs	r2, r2, #3
    8680:	0759      	lsls	r1, r3, #29
    8682:	4311      	orrs	r1, r2
    8684:	000f      	movs	r7, r1
    8686:	002c      	movs	r4, r5
    8688:	46d8      	mov	r8, fp
    868a:	0f7b      	lsrs	r3, r7, #29
    868c:	00e4      	lsls	r4, r4, #3
    868e:	431c      	orrs	r4, r3
    8690:	00ff      	lsls	r7, r7, #3
    8692:	4e30      	ldr	r6, [pc, #192]	; (8754 <__aeabi_dadd+0x618>)
    8694:	e5d6      	b.n	8244 <__aeabi_dadd+0x108>
    8696:	000c      	movs	r4, r1
    8698:	0017      	movs	r7, r2
    869a:	0006      	movs	r6, r0
    869c:	e5d2      	b.n	8244 <__aeabi_dadd+0x108>
    869e:	2b00      	cmp	r3, #0
    86a0:	d038      	beq.n	8714 <__aeabi_dadd+0x5d8>
    86a2:	000b      	movs	r3, r1
    86a4:	4313      	orrs	r3, r2
    86a6:	d100      	bne.n	86aa <__aeabi_dadd+0x56e>
    86a8:	e742      	b.n	8530 <__aeabi_dadd+0x3f4>
    86aa:	08f8      	lsrs	r0, r7, #3
    86ac:	0767      	lsls	r7, r4, #29
    86ae:	4307      	orrs	r7, r0
    86b0:	2080      	movs	r0, #128	; 0x80
    86b2:	08e4      	lsrs	r4, r4, #3
    86b4:	0300      	lsls	r0, r0, #12
    86b6:	4204      	tst	r4, r0
    86b8:	d0e7      	beq.n	868a <__aeabi_dadd+0x54e>
    86ba:	08cb      	lsrs	r3, r1, #3
    86bc:	4203      	tst	r3, r0
    86be:	d1e4      	bne.n	868a <__aeabi_dadd+0x54e>
    86c0:	08d2      	lsrs	r2, r2, #3
    86c2:	0749      	lsls	r1, r1, #29
    86c4:	4311      	orrs	r1, r2
    86c6:	000f      	movs	r7, r1
    86c8:	001c      	movs	r4, r3
    86ca:	e7de      	b.n	868a <__aeabi_dadd+0x54e>
    86cc:	2700      	movs	r7, #0
    86ce:	2400      	movs	r4, #0
    86d0:	e5d5      	b.n	827e <__aeabi_dadd+0x142>
    86d2:	2100      	movs	r1, #0
    86d4:	e76b      	b.n	85ae <__aeabi_dadd+0x472>
    86d6:	2500      	movs	r5, #0
    86d8:	2700      	movs	r7, #0
    86da:	e5f3      	b.n	82c4 <__aeabi_dadd+0x188>
    86dc:	464e      	mov	r6, r9
    86de:	0025      	movs	r5, r4
    86e0:	3e20      	subs	r6, #32
    86e2:	40f5      	lsrs	r5, r6
    86e4:	464b      	mov	r3, r9
    86e6:	002e      	movs	r6, r5
    86e8:	2b20      	cmp	r3, #32
    86ea:	d02d      	beq.n	8748 <__aeabi_dadd+0x60c>
    86ec:	2540      	movs	r5, #64	; 0x40
    86ee:	1aed      	subs	r5, r5, r3
    86f0:	40ac      	lsls	r4, r5
    86f2:	4327      	orrs	r7, r4
    86f4:	1e7c      	subs	r4, r7, #1
    86f6:	41a7      	sbcs	r7, r4
    86f8:	2400      	movs	r4, #0
    86fa:	4337      	orrs	r7, r6
    86fc:	e6c9      	b.n	8492 <__aeabi_dadd+0x356>
    86fe:	2480      	movs	r4, #128	; 0x80
    8700:	2500      	movs	r5, #0
    8702:	0324      	lsls	r4, r4, #12
    8704:	4e13      	ldr	r6, [pc, #76]	; (8754 <__aeabi_dadd+0x618>)
    8706:	2700      	movs	r7, #0
    8708:	e5dc      	b.n	82c4 <__aeabi_dadd+0x188>
    870a:	4327      	orrs	r7, r4
    870c:	1e7c      	subs	r4, r7, #1
    870e:	41a7      	sbcs	r7, r4
    8710:	2400      	movs	r4, #0
    8712:	e779      	b.n	8608 <__aeabi_dadd+0x4cc>
    8714:	000c      	movs	r4, r1
    8716:	0017      	movs	r7, r2
    8718:	4e0e      	ldr	r6, [pc, #56]	; (8754 <__aeabi_dadd+0x618>)
    871a:	e593      	b.n	8244 <__aeabi_dadd+0x108>
    871c:	000c      	movs	r4, r1
    871e:	0017      	movs	r7, r2
    8720:	e590      	b.n	8244 <__aeabi_dadd+0x108>
    8722:	4656      	mov	r6, sl
    8724:	0023      	movs	r3, r4
    8726:	3e20      	subs	r6, #32
    8728:	40f3      	lsrs	r3, r6
    872a:	4699      	mov	r9, r3
    872c:	4653      	mov	r3, sl
    872e:	2b20      	cmp	r3, #32
    8730:	d00e      	beq.n	8750 <__aeabi_dadd+0x614>
    8732:	2340      	movs	r3, #64	; 0x40
    8734:	4656      	mov	r6, sl
    8736:	1b9b      	subs	r3, r3, r6
    8738:	409c      	lsls	r4, r3
    873a:	4327      	orrs	r7, r4
    873c:	1e7c      	subs	r4, r7, #1
    873e:	41a7      	sbcs	r7, r4
    8740:	464b      	mov	r3, r9
    8742:	2400      	movs	r4, #0
    8744:	431f      	orrs	r7, r3
    8746:	e75f      	b.n	8608 <__aeabi_dadd+0x4cc>
    8748:	2400      	movs	r4, #0
    874a:	e7d2      	b.n	86f2 <__aeabi_dadd+0x5b6>
    874c:	0017      	movs	r7, r2
    874e:	e5b2      	b.n	82b6 <__aeabi_dadd+0x17a>
    8750:	2400      	movs	r4, #0
    8752:	e7f2      	b.n	873a <__aeabi_dadd+0x5fe>
    8754:	000007ff 	.word	0x000007ff
    8758:	ff7fffff 	.word	0xff7fffff

0000875c <__aeabi_dcmpun>:
    875c:	b570      	push	{r4, r5, r6, lr}
    875e:	4e0e      	ldr	r6, [pc, #56]	; (8798 <__aeabi_dcmpun+0x3c>)
    8760:	030d      	lsls	r5, r1, #12
    8762:	031c      	lsls	r4, r3, #12
    8764:	0049      	lsls	r1, r1, #1
    8766:	005b      	lsls	r3, r3, #1
    8768:	0b2d      	lsrs	r5, r5, #12
    876a:	0d49      	lsrs	r1, r1, #21
    876c:	0b24      	lsrs	r4, r4, #12
    876e:	0d5b      	lsrs	r3, r3, #21
    8770:	42b1      	cmp	r1, r6
    8772:	d004      	beq.n	877e <__aeabi_dcmpun+0x22>
    8774:	4908      	ldr	r1, [pc, #32]	; (8798 <__aeabi_dcmpun+0x3c>)
    8776:	2000      	movs	r0, #0
    8778:	428b      	cmp	r3, r1
    877a:	d008      	beq.n	878e <__aeabi_dcmpun+0x32>
    877c:	bd70      	pop	{r4, r5, r6, pc}
    877e:	4305      	orrs	r5, r0
    8780:	2001      	movs	r0, #1
    8782:	2d00      	cmp	r5, #0
    8784:	d1fa      	bne.n	877c <__aeabi_dcmpun+0x20>
    8786:	4904      	ldr	r1, [pc, #16]	; (8798 <__aeabi_dcmpun+0x3c>)
    8788:	2000      	movs	r0, #0
    878a:	428b      	cmp	r3, r1
    878c:	d1f6      	bne.n	877c <__aeabi_dcmpun+0x20>
    878e:	4314      	orrs	r4, r2
    8790:	0020      	movs	r0, r4
    8792:	1e44      	subs	r4, r0, #1
    8794:	41a0      	sbcs	r0, r4
    8796:	e7f1      	b.n	877c <__aeabi_dcmpun+0x20>
    8798:	000007ff 	.word	0x000007ff
    879c:	00000346 	.word	0x00000346
    87a0:	00000374 	.word	0x00000374
    87a4:	000002ea 	.word	0x000002ea
    87a8:	0000037e 	.word	0x0000037e
    87ac:	000002f6 	.word	0x000002f6
    87b0:	00000300 	.word	0x00000300
    87b4:	0000030c 	.word	0x0000030c
    87b8:	00000316 	.word	0x00000316
    87bc:	00000320 	.word	0x00000320
    87c0:	0000032a 	.word	0x0000032a
    87c4:	00000334 	.word	0x00000334
    87c8:	682f2e2e 	.word	0x682f2e2e
    87cc:	732f6c61 	.word	0x732f6c61
    87d0:	682f6372 	.word	0x682f6372
    87d4:	695f6c61 	.word	0x695f6c61
    87d8:	6d5f6332 	.word	0x6d5f6332
    87dc:	6e79735f 	.word	0x6e79735f
    87e0:	00632e63 	.word	0x00632e63
    87e4:	682f2e2e 	.word	0x682f2e2e
    87e8:	732f6c61 	.word	0x732f6c61
    87ec:	682f6372 	.word	0x682f6372
    87f0:	695f6c61 	.word	0x695f6c61
    87f4:	00632e6f 	.word	0x00632e6f
    87f8:	682f2e2e 	.word	0x682f2e2e
    87fc:	732f6c61 	.word	0x732f6c61
    8800:	682f6372 	.word	0x682f6372
    8804:	755f6c61 	.word	0x755f6c61
    8808:	74726173 	.word	0x74726173
    880c:	6e79735f 	.word	0x6e79735f
    8810:	00632e63 	.word	0x00632e63

00008814 <_i2cms>:
    8814:	00000000 00200014 00000100 00000022     ...... ....."...
    8824:	00d70000 007a1200 682f2e2e 732f6c70     ......z.../hpl/s
    8834:	6f637265 70682f6d 65735f6c 6d6f6372     ercom/hpl_sercom
    8844:	0000632e 20717269 2070616d 0a0d6425     .c..irq map %d..
    8854:	00000000 74530a0d 20747261 4c584441     ......Start ADXL
    8864:	20353433 74736554 0000000d 202a2a2a     345 Test....*** 
    8874:	6f727265 6e692072 20697469 2a2a2021     error initi ! **
    8884:	000d2a2a 676e6172 30203a65 32302578     **..range: 0x%02
    8894:	20202058 74615220 30203a65 58302578     X    Rate: 0x%0X
    88a4:	000a0d20 206e7552 6f72657a 66666f20      ...Run zero off
    88b4:	20746573 74736574 2e2e2e20 656c7020     set test ... ple
    88c4:	20657361 74696177 0000000d 5f776172     ase wait....raw_
    88d4:	25203d78 09643330 77617209 203d795f     x= %03d..raw_y= 
    88e4:	64333025 61720909 3d7a5f77 33302520     %03d..raw_z= %03
    88f4:	000a0d64 25203a78 66342e32 3a790909     d...x: %2.4f..y:
    8904:	2e322520 09096634 25203a7a 66342e32      %2.4f..z: %2.4f
    8914:	000a0d20 7366666f 78207465 0964253d      ...offset x=%d.
    8924:	66666f09 5f746573 64253d79 20090909     .offset_y=%d... 
    8934:	7366666f 7a5f7465 0d64253d 0000000a     offset_z=%d.....
    8944:	00001d28 00001d0a 00001cc4 00001be2     (...............
    8954:	00001cc4 00001cfc 00001cc4 00001be2     ................
    8964:	00001d0a 00001d0a 00001cfc 00001be2     ................
    8974:	00001bda 00001bda 00001bda 00001f40     ............@...
    8984:	00002388 00002248 00002248 00002244     .#..H"..H"..D"..
    8994:	00002360 00002360 00002352 00002244     `#..`#..R#..D"..
    89a4:	00002360 00002352 00002360 00002244     `#..R#..`#..D"..
    89b4:	00002368 00002368 00002368 0000256c     h#..h#..h#..l%..

000089c4 <_global_impure_ptr>:
    89c4:	20000008 00003c92 00003d66 00003d66     ... .<..f=..f=..
    89d4:	00003c7e 00003d66 00003d66 00003d66     ~<..f=..f=..f=..
    89e4:	00003d66 00003d66 00003d66 00003d38     f=..f=..f=..8=..
    89f4:	0000384a 00003d66 00003840 00003854     J8..f=..@8..T8..
    8a04:	00003d66 00003c88 00003a14 00003a14     f=...<...:...:..
    8a14:	00003a14 00003a14 00003a14 00003a14     .:...:...:...:..
    8a24:	00003a14 00003a14 00003a14 00003d66     .:...:...:..f=..
    8a34:	00003d66 00003d66 00003d66 00003d66     f=..f=..f=..f=..
    8a44:	00003d66 00003d66 00003d66 00003d66     f=..f=..f=..f=..
    8a54:	00003d66 00003d4e 00003ca2 00003d66     f=..N=...<..f=..
    8a64:	00003ca2 00003d66 00003d66 00003d66     .<..f=..f=..f=..
    8a74:	00003d66 00003c08 00003d66 00003d66     f=...<..f=..f=..
    8a84:	00003c12 00003d66 00003d66 00003d66     .<..f=..f=..f=..
    8a94:	00003d66 00003d66 00003c40 00003d66     f=..f=..@<..f=..
    8aa4:	00003d66 00003c6e 00003d66 00003d66     f=..n<..f=..f=..
    8ab4:	00003d66 00003d66 00003d66 00003d66     f=..f=..f=..f=..
    8ac4:	00003d66 00003d66 00003d66 00003d66     f=..f=..f=..f=..
    8ad4:	00003a54 00003a8a 00003ca2 00003ca2     T:...:...<...<..
    8ae4:	00003ca2 00003b32 00003a8a 00003d66     .<..2;...:..f=..
    8af4:	00003d66 00003b3c 00003d66 00003b4e     f=..<;..f=..N;..
    8b04:	00003d62 00003b7c 00003ba6 00003d66     b=..|;...;..f=..
    8b14:	00003bb0 00003d66 00003d5e 00003d66     .;..f=..^=..f=..
    8b24:	00003d66 000038a2 00464e49 00666e69     f=...8..INF.inf.
    8b34:	004e414e 006e616e 33323130 37363534     NAN.nan.01234567
    8b44:	42413938 46454443 00000000 33323130     89ABCDEF....0123
    8b54:	37363534 62613938 66656463 00000000     456789abcdef....
    8b64:	6c756e28 0000296c 00000030              (null)..0...

00008b70 <blanks.7238>:
    8b70:	20202020 20202020 20202020 20202020                     

00008b80 <zeroes.7239>:
    8b80:	30303030 30303030 30303030 30303030     0000000000000000
    8b90:	69666e49 7974696e 00000000 004e614e     Infinity....NaN.

00008ba0 <__mprec_bigtens>:
    8ba0:	37e08000 4341c379 b5056e17 4693b8b5     ...7y.AC.n.....F
    8bb0:	e93ff9f5 4d384f03 f9301d32 5a827748     ..?..O8M2.0.Hw.Z
    8bc0:	7f73bf3c 75154fdd                       <.s..O.u

00008bc8 <__mprec_tens>:
    8bc8:	00000000 3ff00000 00000000 40240000     .......?......$@
    8bd8:	00000000 40590000 00000000 408f4000     ......Y@.....@.@
    8be8:	00000000 40c38800 00000000 40f86a00     .......@.....j.@
    8bf8:	00000000 412e8480 00000000 416312d0     .......A......cA
    8c08:	00000000 4197d784 00000000 41cdcd65     .......A....e..A
    8c18:	20000000 4202a05f e8000000 42374876     ... _..B....vH7B
    8c28:	a2000000 426d1a94 e5400000 42a2309c     ......mB..@..0.B
    8c38:	1e900000 42d6bcc4 26340000 430c6bf5     .......B..4&.k.C
    8c48:	37e08000 4341c379 85d8a000 43763457     ...7y.AC....W4vC
    8c58:	674ec800 43abc16d 60913d00 43e158e4     ..Ngm..C.=.`.X.C
    8c68:	78b58c40 4415af1d d6e2ef50 444b1ae4     @..x...DP.....KD
    8c78:	064dd592 4480f0cf c7e14af6 44b52d02     ..M....D.J...-.D
    8c88:	79d99db4 44ea7843                       ...yCx.D

00008c90 <p05.6055>:
    8c90:	00000005 00000019 0000007d 00000043     ........}...C...
    8ca0:	49534f50 00000058 0000002e              POSIX.......

00008cac <_ctype_>:
    8cac:	20202000 20202020 28282020 20282828     .         ((((( 
    8cbc:	20202020 20202020 20202020 20202020                     
    8ccc:	10108820 10101010 10101010 10101010      ...............
    8cdc:	04040410 04040404 10040404 10101010     ................
    8cec:	41411010 41414141 01010101 01010101     ..AAAAAA........
    8cfc:	01010101 01010101 01010101 10101010     ................
    8d0c:	42421010 42424242 02020202 02020202     ..BBBBBB........
    8d1c:	02020202 02020202 02020202 10101010     ................
    8d2c:	00000020 00000000 00000000 00000000      ...............
	...

00008db0 <_init>:
    8db0:	b5f8      	push	{r3, r4, r5, r6, r7, lr}
    8db2:	46c0      	nop			; (mov r8, r8)
    8db4:	bcf8      	pop	{r3, r4, r5, r6, r7}
    8db6:	bc08      	pop	{r3}
    8db8:	469e      	mov	lr, r3
    8dba:	4770      	bx	lr

00008dbc <__init_array_start>:
    8dbc:	00004ea9 	.word	0x00004ea9

00008dc0 <__frame_dummy_init_array_entry>:
    8dc0:	000000dd                                ....

00008dc4 <_fini>:
    8dc4:	b5f8      	push	{r3, r4, r5, r6, r7, lr}
    8dc6:	46c0      	nop			; (mov r8, r8)
    8dc8:	bcf8      	pop	{r3, r4, r5, r6, r7}
    8dca:	bc08      	pop	{r3}
    8dcc:	469e      	mov	lr, r3
    8dce:	4770      	bx	lr

00008dd0 <__fini_array_start>:
    8dd0:	000000b5 	.word	0x000000b5
